C000  4C F5 C5  JMP $C5F5                       A:00 X:00 Y:00 P:24 SP:F
C5F5  A2 00     LDX #$00                        A:00 X:00 Y:00 P:24 SP:F
C5F7  86 00     STX $00 = 00                    A:00 X:00 Y:00 P:26 SP:F
C5F9  86 10     STX $10 = 00                    A:00 X:00 Y:00 P:26 SP:F
C5FB  86 11     STX $11 = 00                    A:00 X:00 Y:00 P:26 SP:F
C5FD  20 2D C7  JSR $C72D                       A:00 X:00 Y:00 P:26 SP:F
C72D  EA        NOP                             A:00 X:00 Y:00 P:26 SP:F
C72E  38        SEC                             A:00 X:00 Y:00 P:26 SP:F
C72F  B0 04     BCS $C735                       A:00 X:00 Y:00 P:27 SP:F
C735  EA        NOP                             A:00 X:00 Y:00 P:27 SP:F
C736  18        CLC                             A:00 X:00 Y:00 P:27 SP:F
C737  B0 03     BCS $C73C                       A:00 X:00 Y:00 P:26 SP:F
C739  4C 40 C7  JMP $C740                       A:00 X:00 Y:00 P:26 SP:F
C740  EA        NOP                             A:00 X:00 Y:00 P:26 SP:F
C741  38        SEC                             A:00 X:00 Y:00 P:26 SP:F
C742  90 03     BCC $C747                       A:00 X:00 Y:00 P:27 SP:F
C744  4C 4B C7  JMP $C74B                       A:00 X:00 Y:00 P:27 SP:F
C74B  EA        NOP                             A:00 X:00 Y:00 P:27 SP:F
C74C  18        CLC                             A:00 X:00 Y:00 P:27 SP:F
C74D  90 04     BCC $C753                       A:00 X:00 Y:00 P:26 SP:F
C753  EA        NOP                             A:00 X:00 Y:00 P:26 SP:F
C754  A9 00     LDA #$00                        A:00 X:00 Y:00 P:26 SP:F
C756  F0 04     BEQ $C75C                       A:00 X:00 Y:00 P:26 SP:F
C75C  EA        NOP                             A:00 X:00 Y:00 P:26 SP:F
C75D  A9 40     LDA #$40                        A:00 X:00 Y:00 P:26 SP:F
C75F  F0 03     BEQ $C764                       A:40 X:00 Y:00 P:24 SP:F
C761  4C 68 C7  JMP $C768                       A:40 X:00 Y:00 P:24 SP:F
C768  EA        NOP                             A:40 X:00 Y:00 P:24 SP:F
C769  A9 40     LDA #$40                        A:40 X:00 Y:00 P:24 SP:F
C76B  D0 04     BNE $C771                       A:40 X:00 Y:00 P:24 SP:F
C771  EA        NOP                             A:40 X:00 Y:00 P:24 SP:F
C772  A9 00     LDA #$00                        A:40 X:00 Y:00 P:24 SP:F
C774  D0 03     BNE $C779                       A:00 X:00 Y:00 P:26 SP:F
C776  4C 7D C7  JMP $C77D                       A:00 X:00 Y:00 P:26 SP:F
C77D  EA        NOP                             A:00 X:00 Y:00 P:26 SP:F
C77E  A9 FF     LDA #$FF                        A:00 X:00 Y:00 P:26 SP:F
C780  85 01     STA $01 = 00                    A:FF X:00 Y:00 P:A4 SP:F
C782  24 01     BIT $01 = FF                    A:FF X:00 Y:00 P:A4 SP:F
C784  70 04     BVS $C78A                       A:FF X:00 Y:00 P:E4 SP:F
C78A  EA        NOP                             A:FF X:00 Y:00 P:E4 SP:F
C78B  24 01     BIT $01 = FF                    A:FF X:00 Y:00 P:E4 SP:F
C78D  50 03     BVC $C792                       A:FF X:00 Y:00 P:E4 SP:F
C78F  4C 96 C7  JMP $C796                       A:FF X:00 Y:00 P:E4 SP:F
C796  EA        NOP                             A:FF X:00 Y:00 P:E4 SP:F
C797  A9 00     LDA #$00                        A:FF X:00 Y:00 P:E4 SP:F
C799  85 01     STA $01 = FF                    A:00 X:00 Y:00 P:66 SP:F
C79B  24 01     BIT $01 = 00                    A:00 X:00 Y:00 P:66 SP:F
C79D  50 04     BVC $C7A3                       A:00 X:00 Y:00 P:26 SP:F
C7A3  EA        NOP                             A:00 X:00 Y:00 P:26 SP:F
C7A4  24 01     BIT $01 = 00                    A:00 X:00 Y:00 P:26 SP:F
C7A6  70 03     BVS $C7AB                       A:00 X:00 Y:00 P:26 SP:F
C7A8  4C AF C7  JMP $C7AF                       A:00 X:00 Y:00 P:26 SP:F
C7AF  EA        NOP                             A:00 X:00 Y:00 P:26 SP:F
C7B0  A9 00     LDA #$00                        A:00 X:00 Y:00 P:26 SP:F
C7B2  10 04     BPL $C7B8                       A:00 X:00 Y:00 P:26 SP:F
C7B8  EA        NOP                             A:00 X:00 Y:00 P:26 SP:F
C7B9  A9 80     LDA #$80                        A:00 X:00 Y:00 P:26 SP:F
C7BB  10 03     BPL $C7C0                       A:80 X:00 Y:00 P:A4 SP:F
C7BD  4C D9 C7  JMP $C7D9                       A:80 X:00 Y:00 P:A4 SP:F
C7D9  EA        NOP                             A:80 X:00 Y:00 P:A4 SP:F
C7DA  60        RTS                             A:80 X:00 Y:00 P:A4 SP:F
C600  20 DB C7  JSR $C7DB                       A:80 X:00 Y:00 P:A4 SP:F
C7DB  EA        NOP                             A:80 X:00 Y:00 P:A4 SP:F
C7DC  A9 FF     LDA #$FF                        A:80 X:00 Y:00 P:A4 SP:F
C7DE  85 01     STA $01 = 00                    A:FF X:00 Y:00 P:A4 SP:F
C7E0  24 01     BIT $01 = FF                    A:FF X:00 Y:00 P:A4 SP:F
C7E2  A9 00     LDA #$00                        A:FF X:00 Y:00 P:E4 SP:F
C7E4  38        SEC                             A:00 X:00 Y:00 P:66 SP:F
C7E5  78        SEI                             A:00 X:00 Y:00 P:67 SP:F
C7E6  F8        SED                             A:00 X:00 Y:00 P:67 SP:F
C7E7  08        PHP                             A:00 X:00 Y:00 P:6F SP:F
C7E8  68        PLA                             A:00 X:00 Y:00 P:6F SP:F
C7E9  29 EF     AND #$EF                        A:7F X:00 Y:00 P:6D SP:F
C7EB  C9 6F     CMP #$6F                        A:6F X:00 Y:00 P:6D SP:F
C7ED  F0 04     BEQ $C7F3                       A:6F X:00 Y:00 P:6F SP:F
C7F3  EA        NOP                             A:6F X:00 Y:00 P:6F SP:F
C7F4  A9 40     LDA #$40                        A:6F X:00 Y:00 P:6F SP:F
C7F6  85 01     STA $01 = FF                    A:40 X:00 Y:00 P:6D SP:F
C7F8  24 01     BIT $01 = 40                    A:40 X:00 Y:00 P:6D SP:F
C7FA  D8        CLD                             A:40 X:00 Y:00 P:6D SP:F
C7FB  A9 10     LDA #$10                        A:40 X:00 Y:00 P:65 SP:F
C7FD  18        CLC                             A:10 X:00 Y:00 P:65 SP:F
C7FE  08        PHP                             A:10 X:00 Y:00 P:64 SP:F
C7FF  68        PLA                             A:10 X:00 Y:00 P:64 SP:F
C800  29 EF     AND #$EF                        A:74 X:00 Y:00 P:64 SP:F
C802  C9 64     CMP #$64                        A:64 X:00 Y:00 P:64 SP:F
C804  F0 04     BEQ $C80A                       A:64 X:00 Y:00 P:67 SP:F
C80A  EA        NOP                             A:64 X:00 Y:00 P:67 SP:F
C80B  A9 80     LDA #$80                        A:64 X:00 Y:00 P:67 SP:F
C80D  85 01     STA $01 = 40                    A:80 X:00 Y:00 P:E5 SP:F
C80F  24 01     BIT $01 = 80                    A:80 X:00 Y:00 P:E5 SP:F
C811  F8        SED                             A:80 X:00 Y:00 P:A5 SP:F
C812  A9 00     LDA #$00                        A:80 X:00 Y:00 P:AD SP:F
C814  38        SEC                             A:00 X:00 Y:00 P:2F SP:F
C815  08        PHP                             A:00 X:00 Y:00 P:2F SP:F
C816  68        PLA                             A:00 X:00 Y:00 P:2F SP:F
C817  29 EF     AND #$EF                        A:3F X:00 Y:00 P:2D SP:F
C819  C9 2F     CMP #$2F                        A:2F X:00 Y:00 P:2D SP:F
C81B  F0 04     BEQ $C821                       A:2F X:00 Y:00 P:2F SP:F
C821  EA        NOP                             A:2F X:00 Y:00 P:2F SP:F
C822  A9 FF     LDA #$FF                        A:2F X:00 Y:00 P:2F SP:F
C824  48        PHA                             A:FF X:00 Y:00 P:AD SP:F
C825  28        PLP                             A:FF X:00 Y:00 P:AD SP:F
C826  D0 09     BNE $C831                       A:FF X:00 Y:00 P:EF SP:F
C828  10 07     BPL $C831                       A:FF X:00 Y:00 P:EF SP:F
C82A  50 05     BVC $C831                       A:FF X:00 Y:00 P:EF SP:F
C82C  90 03     BCC $C831                       A:FF X:00 Y:00 P:EF SP:F
C82E  4C 35 C8  JMP $C835                       A:FF X:00 Y:00 P:EF SP:F
C835  EA        NOP                             A:FF X:00 Y:00 P:EF SP:F
C836  A9 04     LDA #$04                        A:FF X:00 Y:00 P:EF SP:F
C838  48        PHA                             A:04 X:00 Y:00 P:6D SP:F
C839  28        PLP                             A:04 X:00 Y:00 P:6D SP:F
C83A  F0 09     BEQ $C845                       A:04 X:00 Y:00 P:24 SP:F
C83C  30 07     BMI $C845                       A:04 X:00 Y:00 P:24 SP:F
C83E  70 05     BVS $C845                       A:04 X:00 Y:00 P:24 SP:F
C840  B0 03     BCS $C845                       A:04 X:00 Y:00 P:24 SP:F
C842  4C 49 C8  JMP $C849                       A:04 X:00 Y:00 P:24 SP:F
C849  EA        NOP                             A:04 X:00 Y:00 P:24 SP:F
C84A  F8        SED                             A:04 X:00 Y:00 P:24 SP:F
C84B  A9 FF     LDA #$FF                        A:04 X:00 Y:00 P:2C SP:F
C84D  85 01     STA $01 = 80                    A:FF X:00 Y:00 P:AC SP:F
C84F  24 01     BIT $01 = FF                    A:FF X:00 Y:00 P:AC SP:F
C851  18        CLC                             A:FF X:00 Y:00 P:EC SP:F
C852  A9 00     LDA #$00                        A:FF X:00 Y:00 P:EC SP:F
C854  48        PHA                             A:00 X:00 Y:00 P:6E SP:F
C855  A9 FF     LDA #$FF                        A:00 X:00 Y:00 P:6E SP:F
C857  68        PLA                             A:FF X:00 Y:00 P:EC SP:F
C858  D0 09     BNE $C863                       A:00 X:00 Y:00 P:6E SP:F
C85A  30 07     BMI $C863                       A:00 X:00 Y:00 P:6E SP:F
C85C  50 05     BVC $C863                       A:00 X:00 Y:00 P:6E SP:F
C85E  B0 03     BCS $C863                       A:00 X:00 Y:00 P:6E SP:F
C860  4C 67 C8  JMP $C867                       A:00 X:00 Y:00 P:6E SP:F
C867  EA        NOP                             A:00 X:00 Y:00 P:6E SP:F
C868  A9 00     LDA #$00                        A:00 X:00 Y:00 P:6E SP:F
C86A  85 01     STA $01 = FF                    A:00 X:00 Y:00 P:6E SP:F
C86C  24 01     BIT $01 = 00                    A:00 X:00 Y:00 P:6E SP:F
C86E  38        SEC                             A:00 X:00 Y:00 P:2E SP:F
C86F  A9 FF     LDA #$FF                        A:00 X:00 Y:00 P:2F SP:F
C871  48        PHA                             A:FF X:00 Y:00 P:AD SP:F
C872  A9 00     LDA #$00                        A:FF X:00 Y:00 P:AD SP:F
C874  68        PLA                             A:00 X:00 Y:00 P:2F SP:F
C875  F0 09     BEQ $C880                       A:FF X:00 Y:00 P:AD SP:F
C877  10 07     BPL $C880                       A:FF X:00 Y:00 P:AD SP:F
C879  70 05     BVS $C880                       A:FF X:00 Y:00 P:AD SP:F
C87B  90 03     BCC $C880                       A:FF X:00 Y:00 P:AD SP:F
C87D  4C 84 C8  JMP $C884                       A:FF X:00 Y:00 P:AD SP:F
C884  60        RTS                             A:FF X:00 Y:00 P:AD SP:F
C603  20 85 C8  JSR $C885                       A:FF X:00 Y:00 P:AD SP:F
C885  EA        NOP                             A:FF X:00 Y:00 P:AD SP:F
C886  18        CLC                             A:FF X:00 Y:00 P:AD SP:F
C887  A9 FF     LDA #$FF                        A:FF X:00 Y:00 P:AC SP:F
C889  85 01     STA $01 = 00                    A:FF X:00 Y:00 P:AC SP:F
C88B  24 01     BIT $01 = FF                    A:FF X:00 Y:00 P:AC SP:F
C88D  A9 55     LDA #$55                        A:FF X:00 Y:00 P:EC SP:F
C88F  09 AA     ORA #$AA                        A:55 X:00 Y:00 P:6C SP:F
C891  B0 0B     BCS $C89E                       A:FF X:00 Y:00 P:EC SP:F
C893  10 09     BPL $C89E                       A:FF X:00 Y:00 P:EC SP:F
C895  C9 FF     CMP #$FF                        A:FF X:00 Y:00 P:EC SP:F
C897  D0 05     BNE $C89E                       A:FF X:00 Y:00 P:6F SP:F
C899  50 03     BVC $C89E                       A:FF X:00 Y:00 P:6F SP:F
C89B  4C A2 C8  JMP $C8A2                       A:FF X:00 Y:00 P:6F SP:F
C8A2  EA        NOP                             A:FF X:00 Y:00 P:6F SP:F
C8A3  38        SEC                             A:FF X:00 Y:00 P:6F SP:F
C8A4  B8        CLV                             A:FF X:00 Y:00 P:6F SP:F
C8A5  A9 00     LDA #$00                        A:FF X:00 Y:00 P:2F SP:F
C8A7  09 00     ORA #$00                        A:00 X:00 Y:00 P:2F SP:F
C8A9  D0 09     BNE $C8B4                       A:00 X:00 Y:00 P:2F SP:F
C8AB  70 07     BVS $C8B4                       A:00 X:00 Y:00 P:2F SP:F
C8AD  90 05     BCC $C8B4                       A:00 X:00 Y:00 P:2F SP:F
C8AF  30 03     BMI $C8B4                       A:00 X:00 Y:00 P:2F SP:F
C8B1  4C B8 C8  JMP $C8B8                       A:00 X:00 Y:00 P:2F SP:F
C8B8  EA        NOP                             A:00 X:00 Y:00 P:2F SP:F
C8B9  18        CLC                             A:00 X:00 Y:00 P:2F SP:F
C8BA  24 01     BIT $01 = FF                    A:00 X:00 Y:00 P:2E SP:F
C8BC  A9 55     LDA #$55                        A:00 X:00 Y:00 P:EE SP:F
C8BE  29 AA     AND #$AA                        A:55 X:00 Y:00 P:6C SP:F
C8C0  D0 09     BNE $C8CB                       A:00 X:00 Y:00 P:6E SP:F
C8C2  50 07     BVC $C8CB                       A:00 X:00 Y:00 P:6E SP:F
C8C4  B0 05     BCS $C8CB                       A:00 X:00 Y:00 P:6E SP:F
C8C6  30 03     BMI $C8CB                       A:00 X:00 Y:00 P:6E SP:F
C8C8  4C CF C8  JMP $C8CF                       A:00 X:00 Y:00 P:6E SP:F
C8CF  EA        NOP                             A:00 X:00 Y:00 P:6E SP:F
C8D0  38        SEC                             A:00 X:00 Y:00 P:6E SP:F
C8D1  B8        CLV                             A:00 X:00 Y:00 P:6F SP:F
C8D2  A9 F8     LDA #$F8                        A:00 X:00 Y:00 P:2F SP:F
C8D4  29 EF     AND #$EF                        A:F8 X:00 Y:00 P:AD SP:F
C8D6  90 0B     BCC $C8E3                       A:E8 X:00 Y:00 P:AD SP:F
C8D8  10 09     BPL $C8E3                       A:E8 X:00 Y:00 P:AD SP:F
C8DA  C9 E8     CMP #$E8                        A:E8 X:00 Y:00 P:AD SP:F
C8DC  D0 05     BNE $C8E3                       A:E8 X:00 Y:00 P:2F SP:F
C8DE  70 03     BVS $C8E3                       A:E8 X:00 Y:00 P:2F SP:F
C8E0  4C E7 C8  JMP $C8E7                       A:E8 X:00 Y:00 P:2F SP:F
C8E7  EA        NOP                             A:E8 X:00 Y:00 P:2F SP:F
C8E8  18        CLC                             A:E8 X:00 Y:00 P:2F SP:F
C8E9  24 01     BIT $01 = FF                    A:E8 X:00 Y:00 P:2E SP:F
C8EB  A9 5F     LDA #$5F                        A:E8 X:00 Y:00 P:EC SP:F
C8ED  49 AA     EOR #$AA                        A:5F X:00 Y:00 P:6C SP:F
C8EF  B0 0B     BCS $C8FC                       A:F5 X:00 Y:00 P:EC SP:F
C8F1  10 09     BPL $C8FC                       A:F5 X:00 Y:00 P:EC SP:F
C8F3  C9 F5     CMP #$F5                        A:F5 X:00 Y:00 P:EC SP:F
C8F5  D0 05     BNE $C8FC                       A:F5 X:00 Y:00 P:6F SP:F
C8F7  50 03     BVC $C8FC                       A:F5 X:00 Y:00 P:6F SP:F
C8F9  4C 00 C9  JMP $C900                       A:F5 X:00 Y:00 P:6F SP:F
C900  EA        NOP                             A:F5 X:00 Y:00 P:6F SP:F
C901  38        SEC                             A:F5 X:00 Y:00 P:6F SP:F
C902  B8        CLV                             A:F5 X:00 Y:00 P:6F SP:F
C903  A9 70     LDA #$70                        A:F5 X:00 Y:00 P:2F SP:F
C905  49 70     EOR #$70                        A:70 X:00 Y:00 P:2D SP:F
C907  D0 09     BNE $C912                       A:00 X:00 Y:00 P:2F SP:F
C909  70 07     BVS $C912                       A:00 X:00 Y:00 P:2F SP:F
C90B  90 05     BCC $C912                       A:00 X:00 Y:00 P:2F SP:F
C90D  30 03     BMI $C912                       A:00 X:00 Y:00 P:2F SP:F
C90F  4C 16 C9  JMP $C916                       A:00 X:00 Y:00 P:2F SP:F
C916  EA        NOP                             A:00 X:00 Y:00 P:2F SP:F
C917  18        CLC                             A:00 X:00 Y:00 P:2F SP:F
C918  24 01     BIT $01 = FF                    A:00 X:00 Y:00 P:2E SP:F
C91A  A9 00     LDA #$00                        A:00 X:00 Y:00 P:EE SP:F
C91C  69 69     ADC #$69                        A:00 X:00 Y:00 P:6E SP:F
C91E  30 0B     BMI $C92B                       A:69 X:00 Y:00 P:2C SP:F
C920  B0 09     BCS $C92B                       A:69 X:00 Y:00 P:2C SP:F
C922  C9 69     CMP #$69                        A:69 X:00 Y:00 P:2C SP:F
C924  D0 05     BNE $C92B                       A:69 X:00 Y:00 P:2F SP:F
C926  70 03     BVS $C92B                       A:69 X:00 Y:00 P:2F SP:F
C928  4C 2F C9  JMP $C92F                       A:69 X:00 Y:00 P:2F SP:F
C92F  EA        NOP                             A:69 X:00 Y:00 P:2F SP:F
C930  38        SEC                             A:69 X:00 Y:00 P:2F SP:F
C931  F8        SED                             A:69 X:00 Y:00 P:2F SP:F
C932  24 01     BIT $01 = FF                    A:69 X:00 Y:00 P:2F SP:F
C934  A9 01     LDA #$01                        A:69 X:00 Y:00 P:ED SP:F
C936  69 69     ADC #$69                        A:01 X:00 Y:00 P:6D SP:F
C938  30 0B     BMI $C945                       A:6B X:00 Y:00 P:2C SP:F
C93A  B0 09     BCS $C945                       A:6B X:00 Y:00 P:2C SP:F
C93C  C9 6B     CMP #$6B                        A:6B X:00 Y:00 P:2C SP:F
C93E  D0 05     BNE $C945                       A:6B X:00 Y:00 P:2F SP:F
C940  70 03     BVS $C945                       A:6B X:00 Y:00 P:2F SP:F
C942  4C 49 C9  JMP $C949                       A:6B X:00 Y:00 P:2F SP:F
C949  EA        NOP                             A:6B X:00 Y:00 P:2F SP:F
C94A  D8        CLD                             A:6B X:00 Y:00 P:2F SP:F
C94B  38        SEC                             A:6B X:00 Y:00 P:27 SP:F
C94C  B8        CLV                             A:6B X:00 Y:00 P:27 SP:F
C94D  A9 7F     LDA #$7F                        A:6B X:00 Y:00 P:27 SP:F
C94F  69 7F     ADC #$7F                        A:7F X:00 Y:00 P:25 SP:F
C951  10 0B     BPL $C95E                       A:FF X:00 Y:00 P:E4 SP:F
C953  B0 09     BCS $C95E                       A:FF X:00 Y:00 P:E4 SP:F
C955  C9 FF     CMP #$FF                        A:FF X:00 Y:00 P:E4 SP:F
C957  D0 05     BNE $C95E                       A:FF X:00 Y:00 P:67 SP:F
C959  50 03     BVC $C95E                       A:FF X:00 Y:00 P:67 SP:F
C95B  4C 62 C9  JMP $C962                       A:FF X:00 Y:00 P:67 SP:F
C962  EA        NOP                             A:FF X:00 Y:00 P:67 SP:F
C963  18        CLC                             A:FF X:00 Y:00 P:67 SP:F
C964  24 01     BIT $01 = FF                    A:FF X:00 Y:00 P:66 SP:F
C966  A9 7F     LDA #$7F                        A:FF X:00 Y:00 P:E4 SP:F
C968  69 80     ADC #$80                        A:7F X:00 Y:00 P:64 SP:F
C96A  10 0B     BPL $C977                       A:FF X:00 Y:00 P:A4 SP:F
C96C  B0 09     BCS $C977                       A:FF X:00 Y:00 P:A4 SP:F
C96E  C9 FF     CMP #$FF                        A:FF X:00 Y:00 P:A4 SP:F
C970  D0 05     BNE $C977                       A:FF X:00 Y:00 P:27 SP:F
C972  70 03     BVS $C977                       A:FF X:00 Y:00 P:27 SP:F
C974  4C 7B C9  JMP $C97B                       A:FF X:00 Y:00 P:27 SP:F
C97B  EA        NOP                             A:FF X:00 Y:00 P:27 SP:F
C97C  38        SEC                             A:FF X:00 Y:00 P:27 SP:F
C97D  B8        CLV                             A:FF X:00 Y:00 P:27 SP:F
C97E  A9 7F     LDA #$7F                        A:FF X:00 Y:00 P:27 SP:F
C980  69 80     ADC #$80                        A:7F X:00 Y:00 P:25 SP:F
C982  D0 09     BNE $C98D                       A:00 X:00 Y:00 P:27 SP:F
C984  30 07     BMI $C98D                       A:00 X:00 Y:00 P:27 SP:F
C986  70 05     BVS $C98D                       A:00 X:00 Y:00 P:27 SP:F
C988  90 03     BCC $C98D                       A:00 X:00 Y:00 P:27 SP:F
C98A  4C 91 C9  JMP $C991                       A:00 X:00 Y:00 P:27 SP:F
C991  EA        NOP                             A:00 X:00 Y:00 P:27 SP:F
C992  38        SEC                             A:00 X:00 Y:00 P:27 SP:F
C993  B8        CLV                             A:00 X:00 Y:00 P:27 SP:F
C994  A9 9F     LDA #$9F                        A:00 X:00 Y:00 P:27 SP:F
C996  F0 09     BEQ $C9A1                       A:9F X:00 Y:00 P:A5 SP:F
C998  10 07     BPL $C9A1                       A:9F X:00 Y:00 P:A5 SP:F
C99A  70 05     BVS $C9A1                       A:9F X:00 Y:00 P:A5 SP:F
C99C  90 03     BCC $C9A1                       A:9F X:00 Y:00 P:A5 SP:F
C99E  4C A5 C9  JMP $C9A5                       A:9F X:00 Y:00 P:A5 SP:F
C9A5  EA        NOP                             A:9F X:00 Y:00 P:A5 SP:F
C9A6  18        CLC                             A:9F X:00 Y:00 P:A5 SP:F
C9A7  24 01     BIT $01 = FF                    A:9F X:00 Y:00 P:A4 SP:F
C9A9  A9 00     LDA #$00                        A:9F X:00 Y:00 P:E4 SP:F
C9AB  D0 09     BNE $C9B6                       A:00 X:00 Y:00 P:66 SP:F
C9AD  30 07     BMI $C9B6                       A:00 X:00 Y:00 P:66 SP:F
C9AF  50 05     BVC $C9B6                       A:00 X:00 Y:00 P:66 SP:F
C9B1  B0 03     BCS $C9B6                       A:00 X:00 Y:00 P:66 SP:F
C9B3  4C BA C9  JMP $C9BA                       A:00 X:00 Y:00 P:66 SP:F
C9BA  EA        NOP                             A:00 X:00 Y:00 P:66 SP:F
C9BB  24 01     BIT $01 = FF                    A:00 X:00 Y:00 P:66 SP:F
C9BD  A9 40     LDA #$40                        A:00 X:00 Y:00 P:E6 SP:F
C9BF  C9 40     CMP #$40                        A:40 X:00 Y:00 P:64 SP:F
C9C1  30 09     BMI $C9CC                       A:40 X:00 Y:00 P:67 SP:F
C9C3  90 07     BCC $C9CC                       A:40 X:00 Y:00 P:67 SP:F
C9C5  D0 05     BNE $C9CC                       A:40 X:00 Y:00 P:67 SP:F
C9C7  50 03     BVC $C9CC                       A:40 X:00 Y:00 P:67 SP:F
C9C9  4C D0 C9  JMP $C9D0                       A:40 X:00 Y:00 P:67 SP:F
C9D0  EA        NOP                             A:40 X:00 Y:00 P:67 SP:F
C9D1  B8        CLV                             A:40 X:00 Y:00 P:67 SP:F
C9D2  C9 3F     CMP #$3F                        A:40 X:00 Y:00 P:27 SP:F
C9D4  F0 09     BEQ $C9DF                       A:40 X:00 Y:00 P:25 SP:F
C9D6  30 07     BMI $C9DF                       A:40 X:00 Y:00 P:25 SP:F
C9D8  90 05     BCC $C9DF                       A:40 X:00 Y:00 P:25 SP:F
C9DA  70 03     BVS $C9DF                       A:40 X:00 Y:00 P:25 SP:F
C9DC  4C E3 C9  JMP $C9E3                       A:40 X:00 Y:00 P:25 SP:F
C9E3  EA        NOP                             A:40 X:00 Y:00 P:25 SP:F
C9E4  C9 41     CMP #$41                        A:40 X:00 Y:00 P:25 SP:F
C9E6  F0 07     BEQ $C9EF                       A:40 X:00 Y:00 P:A4 SP:F
C9E8  10 05     BPL $C9EF                       A:40 X:00 Y:00 P:A4 SP:F
C9EA  10 03     BPL $C9EF                       A:40 X:00 Y:00 P:A4 SP:F
C9EC  4C F3 C9  JMP $C9F3                       A:40 X:00 Y:00 P:A4 SP:F
C9F3  EA        NOP                             A:40 X:00 Y:00 P:A4 SP:F
C9F4  A9 80     LDA #$80                        A:40 X:00 Y:00 P:A4 SP:F
C9F6  C9 00     CMP #$00                        A:80 X:00 Y:00 P:A4 SP:F
C9F8  F0 07     BEQ $CA01                       A:80 X:00 Y:00 P:A5 SP:F
C9FA  10 05     BPL $CA01                       A:80 X:00 Y:00 P:A5 SP:F
C9FC  90 03     BCC $CA01                       A:80 X:00 Y:00 P:A5 SP:F
C9FE  4C 05 CA  JMP $CA05                       A:80 X:00 Y:00 P:A5 SP:F
CA05  EA        NOP                             A:80 X:00 Y:00 P:A5 SP:F
CA06  C9 80     CMP #$80                        A:80 X:00 Y:00 P:A5 SP:F
CA08  D0 07     BNE $CA11                       A:80 X:00 Y:00 P:27 SP:F
CA0A  30 05     BMI $CA11                       A:80 X:00 Y:00 P:27 SP:F
CA0C  90 03     BCC $CA11                       A:80 X:00 Y:00 P:27 SP:F
CA0E  4C 15 CA  JMP $CA15                       A:80 X:00 Y:00 P:27 SP:F
CA15  EA        NOP                             A:80 X:00 Y:00 P:27 SP:F
CA16  C9 81     CMP #$81                        A:80 X:00 Y:00 P:27 SP:F
CA18  B0 07     BCS $CA21                       A:80 X:00 Y:00 P:A4 SP:F
CA1A  F0 05     BEQ $CA21                       A:80 X:00 Y:00 P:A4 SP:F
CA1C  10 03     BPL $CA21                       A:80 X:00 Y:00 P:A4 SP:F
CA1E  4C 25 CA  JMP $CA25                       A:80 X:00 Y:00 P:A4 SP:F
CA25  EA        NOP                             A:80 X:00 Y:00 P:A4 SP:F
CA26  C9 7F     CMP #$7F                        A:80 X:00 Y:00 P:A4 SP:F
CA28  90 07     BCC $CA31                       A:80 X:00 Y:00 P:25 SP:F
CA2A  F0 05     BEQ $CA31                       A:80 X:00 Y:00 P:25 SP:F
CA2C  30 03     BMI $CA31                       A:80 X:00 Y:00 P:25 SP:F
CA2E  4C 35 CA  JMP $CA35                       A:80 X:00 Y:00 P:25 SP:F
CA35  EA        NOP                             A:80 X:00 Y:00 P:25 SP:F
CA36  24 01     BIT $01 = FF                    A:80 X:00 Y:00 P:25 SP:F
CA38  A0 40     LDY #$40                        A:80 X:00 Y:00 P:E5 SP:F
CA3A  C0 40     CPY #$40                        A:80 X:00 Y:40 P:65 SP:F
CA3C  D0 09     BNE $CA47                       A:80 X:00 Y:40 P:67 SP:F
CA3E  30 07     BMI $CA47                       A:80 X:00 Y:40 P:67 SP:F
CA40  90 05     BCC $CA47                       A:80 X:00 Y:40 P:67 SP:F
CA42  50 03     BVC $CA47                       A:80 X:00 Y:40 P:67 SP:F
CA44  4C 4B CA  JMP $CA4B                       A:80 X:00 Y:40 P:67 SP:F
CA4B  EA        NOP                             A:80 X:00 Y:40 P:67 SP:F
CA4C  B8        CLV                             A:80 X:00 Y:40 P:67 SP:F
CA4D  C0 3F     CPY #$3F                        A:80 X:00 Y:40 P:27 SP:F
CA4F  F0 09     BEQ $CA5A                       A:80 X:00 Y:40 P:25 SP:F
CA51  30 07     BMI $CA5A                       A:80 X:00 Y:40 P:25 SP:F
CA53  90 05     BCC $CA5A                       A:80 X:00 Y:40 P:25 SP:F
CA55  70 03     BVS $CA5A                       A:80 X:00 Y:40 P:25 SP:F
CA57  4C 5E CA  JMP $CA5E                       A:80 X:00 Y:40 P:25 SP:F
CA5E  EA        NOP                             A:80 X:00 Y:40 P:25 SP:F
CA5F  C0 41     CPY #$41                        A:80 X:00 Y:40 P:25 SP:F
CA61  F0 07     BEQ $CA6A                       A:80 X:00 Y:40 P:A4 SP:F
CA63  10 05     BPL $CA6A                       A:80 X:00 Y:40 P:A4 SP:F
CA65  10 03     BPL $CA6A                       A:80 X:00 Y:40 P:A4 SP:F
CA67  4C 6E CA  JMP $CA6E                       A:80 X:00 Y:40 P:A4 SP:F
CA6E  EA        NOP                             A:80 X:00 Y:40 P:A4 SP:F
CA6F  A0 80     LDY #$80                        A:80 X:00 Y:40 P:A4 SP:F
CA71  C0 00     CPY #$00                        A:80 X:00 Y:80 P:A4 SP:F
CA73  F0 07     BEQ $CA7C                       A:80 X:00 Y:80 P:A5 SP:F
CA75  10 05     BPL $CA7C                       A:80 X:00 Y:80 P:A5 SP:F
CA77  90 03     BCC $CA7C                       A:80 X:00 Y:80 P:A5 SP:F
CA79  4C 80 CA  JMP $CA80                       A:80 X:00 Y:80 P:A5 SP:F
CA80  EA        NOP                             A:80 X:00 Y:80 P:A5 SP:F
CA81  C0 80     CPY #$80                        A:80 X:00 Y:80 P:A5 SP:F
CA83  D0 07     BNE $CA8C                       A:80 X:00 Y:80 P:27 SP:F
CA85  30 05     BMI $CA8C                       A:80 X:00 Y:80 P:27 SP:F
CA87  90 03     BCC $CA8C                       A:80 X:00 Y:80 P:27 SP:F
CA89  4C 90 CA  JMP $CA90                       A:80 X:00 Y:80 P:27 SP:F
CA90  EA        NOP                             A:80 X:00 Y:80 P:27 SP:F
CA91  C0 81     CPY #$81                        A:80 X:00 Y:80 P:27 SP:F
CA93  B0 07     BCS $CA9C                       A:80 X:00 Y:80 P:A4 SP:F
CA95  F0 05     BEQ $CA9C                       A:80 X:00 Y:80 P:A4 SP:F
CA97  10 03     BPL $CA9C                       A:80 X:00 Y:80 P:A4 SP:F
CA99  4C A0 CA  JMP $CAA0                       A:80 X:00 Y:80 P:A4 SP:F
CAA0  EA        NOP                             A:80 X:00 Y:80 P:A4 SP:F
CAA1  C0 7F     CPY #$7F                        A:80 X:00 Y:80 P:A4 SP:F
CAA3  90 07     BCC $CAAC                       A:80 X:00 Y:80 P:25 SP:F
CAA5  F0 05     BEQ $CAAC                       A:80 X:00 Y:80 P:25 SP:F
CAA7  30 03     BMI $CAAC                       A:80 X:00 Y:80 P:25 SP:F
CAA9  4C B0 CA  JMP $CAB0                       A:80 X:00 Y:80 P:25 SP:F
CAB0  EA        NOP                             A:80 X:00 Y:80 P:25 SP:F
CAB1  24 01     BIT $01 = FF                    A:80 X:00 Y:80 P:25 SP:F
CAB3  A2 40     LDX #$40                        A:80 X:00 Y:80 P:E5 SP:F
CAB5  E0 40     CPX #$40                        A:80 X:40 Y:80 P:65 SP:F
CAB7  D0 09     BNE $CAC2                       A:80 X:40 Y:80 P:67 SP:F
CAB9  30 07     BMI $CAC2                       A:80 X:40 Y:80 P:67 SP:F
CABB  90 05     BCC $CAC2                       A:80 X:40 Y:80 P:67 SP:F
CABD  50 03     BVC $CAC2                       A:80 X:40 Y:80 P:67 SP:F
CABF  4C C6 CA  JMP $CAC6                       A:80 X:40 Y:80 P:67 SP:F
CAC6  EA        NOP                             A:80 X:40 Y:80 P:67 SP:F
CAC7  B8        CLV                             A:80 X:40 Y:80 P:67 SP:F
CAC8  E0 3F     CPX #$3F                        A:80 X:40 Y:80 P:27 SP:F
CACA  F0 09     BEQ $CAD5                       A:80 X:40 Y:80 P:25 SP:F
CACC  30 07     BMI $CAD5                       A:80 X:40 Y:80 P:25 SP:F
CACE  90 05     BCC $CAD5                       A:80 X:40 Y:80 P:25 SP:F
CAD0  70 03     BVS $CAD5                       A:80 X:40 Y:80 P:25 SP:F
CAD2  4C D9 CA  JMP $CAD9                       A:80 X:40 Y:80 P:25 SP:F
CAD9  EA        NOP                             A:80 X:40 Y:80 P:25 SP:F
CADA  E0 41     CPX #$41                        A:80 X:40 Y:80 P:25 SP:F
CADC  F0 07     BEQ $CAE5                       A:80 X:40 Y:80 P:A4 SP:F
CADE  10 05     BPL $CAE5                       A:80 X:40 Y:80 P:A4 SP:F
CAE0  10 03     BPL $CAE5                       A:80 X:40 Y:80 P:A4 SP:F
CAE2  4C E9 CA  JMP $CAE9                       A:80 X:40 Y:80 P:A4 SP:F
CAE9  EA        NOP                             A:80 X:40 Y:80 P:A4 SP:F
CAEA  A2 80     LDX #$80                        A:80 X:40 Y:80 P:A4 SP:F
CAEC  E0 00     CPX #$00                        A:80 X:80 Y:80 P:A4 SP:F
CAEE  F0 07     BEQ $CAF7                       A:80 X:80 Y:80 P:A5 SP:F
CAF0  10 05     BPL $CAF7                       A:80 X:80 Y:80 P:A5 SP:F
CAF2  90 03     BCC $CAF7                       A:80 X:80 Y:80 P:A5 SP:F
CAF4  4C FB CA  JMP $CAFB                       A:80 X:80 Y:80 P:A5 SP:F
CAFB  EA        NOP                             A:80 X:80 Y:80 P:A5 SP:F
CAFC  E0 80     CPX #$80                        A:80 X:80 Y:80 P:A5 SP:F
CAFE  D0 07     BNE $CB07                       A:80 X:80 Y:80 P:27 SP:F
CB00  30 05     BMI $CB07                       A:80 X:80 Y:80 P:27 SP:F
CB02  90 03     BCC $CB07                       A:80 X:80 Y:80 P:27 SP:F
CB04  4C 0B CB  JMP $CB0B                       A:80 X:80 Y:80 P:27 SP:F
CB0B  EA        NOP                             A:80 X:80 Y:80 P:27 SP:F
CB0C  E0 81     CPX #$81                        A:80 X:80 Y:80 P:27 SP:F
CB0E  B0 07     BCS $CB17                       A:80 X:80 Y:80 P:A4 SP:F
CB10  F0 05     BEQ $CB17                       A:80 X:80 Y:80 P:A4 SP:F
CB12  10 03     BPL $CB17                       A:80 X:80 Y:80 P:A4 SP:F
CB14  4C 1B CB  JMP $CB1B                       A:80 X:80 Y:80 P:A4 SP:F
CB1B  EA        NOP                             A:80 X:80 Y:80 P:A4 SP:F
CB1C  E0 7F     CPX #$7F                        A:80 X:80 Y:80 P:A4 SP:F
CB1E  90 07     BCC $CB27                       A:80 X:80 Y:80 P:25 SP:F
CB20  F0 05     BEQ $CB27                       A:80 X:80 Y:80 P:25 SP:F
CB22  30 03     BMI $CB27                       A:80 X:80 Y:80 P:25 SP:F
CB24  4C 2B CB  JMP $CB2B                       A:80 X:80 Y:80 P:25 SP:F
CB2B  EA        NOP                             A:80 X:80 Y:80 P:25 SP:F
CB2C  38        SEC                             A:80 X:80 Y:80 P:25 SP:F
CB2D  B8        CLV                             A:80 X:80 Y:80 P:25 SP:F
CB2E  A2 9F     LDX #$9F                        A:80 X:80 Y:80 P:25 SP:F
CB30  F0 09     BEQ $CB3B                       A:80 X:9F Y:80 P:A5 SP:F
CB32  10 07     BPL $CB3B                       A:80 X:9F Y:80 P:A5 SP:F
CB34  70 05     BVS $CB3B                       A:80 X:9F Y:80 P:A5 SP:F
CB36  90 03     BCC $CB3B                       A:80 X:9F Y:80 P:A5 SP:F
CB38  4C 3F CB  JMP $CB3F                       A:80 X:9F Y:80 P:A5 SP:F
CB3F  EA        NOP                             A:80 X:9F Y:80 P:A5 SP:F
CB40  18        CLC                             A:80 X:9F Y:80 P:A5 SP:F
CB41  24 01     BIT $01 = FF                    A:80 X:9F Y:80 P:A4 SP:F
CB43  A2 00     LDX #$00                        A:80 X:9F Y:80 P:E4 SP:F
CB45  D0 09     BNE $CB50                       A:80 X:00 Y:80 P:66 SP:F
CB47  30 07     BMI $CB50                       A:80 X:00 Y:80 P:66 SP:F
CB49  50 05     BVC $CB50                       A:80 X:00 Y:80 P:66 SP:F
CB4B  B0 03     BCS $CB50                       A:80 X:00 Y:80 P:66 SP:F
CB4D  4C 54 CB  JMP $CB54                       A:80 X:00 Y:80 P:66 SP:F
CB54  EA        NOP                             A:80 X:00 Y:80 P:66 SP:F
CB55  38        SEC                             A:80 X:00 Y:80 P:66 SP:F
CB56  B8        CLV                             A:80 X:00 Y:80 P:67 SP:F
CB57  A0 9F     LDY #$9F                        A:80 X:00 Y:80 P:27 SP:F
CB59  F0 09     BEQ $CB64                       A:80 X:00 Y:9F P:A5 SP:F
CB5B  10 07     BPL $CB64                       A:80 X:00 Y:9F P:A5 SP:F
CB5D  70 05     BVS $CB64                       A:80 X:00 Y:9F P:A5 SP:F
CB5F  90 03     BCC $CB64                       A:80 X:00 Y:9F P:A5 SP:F
CB61  4C 68 CB  JMP $CB68                       A:80 X:00 Y:9F P:A5 SP:F
CB68  EA        NOP                             A:80 X:00 Y:9F P:A5 SP:F
CB69  18        CLC                             A:80 X:00 Y:9F P:A5 SP:F
CB6A  24 01     BIT $01 = FF                    A:80 X:00 Y:9F P:A4 SP:F
CB6C  A0 00     LDY #$00                        A:80 X:00 Y:9F P:E4 SP:F
CB6E  D0 09     BNE $CB79                       A:80 X:00 Y:00 P:66 SP:F
CB70  30 07     BMI $CB79                       A:80 X:00 Y:00 P:66 SP:F
CB72  50 05     BVC $CB79                       A:80 X:00 Y:00 P:66 SP:F
CB74  B0 03     BCS $CB79                       A:80 X:00 Y:00 P:66 SP:F
CB76  4C 7D CB  JMP $CB7D                       A:80 X:00 Y:00 P:66 SP:F
CB7D  EA        NOP                             A:80 X:00 Y:00 P:66 SP:F
CB7E  A9 55     LDA #$55                        A:80 X:00 Y:00 P:66 SP:F
CB80  A2 AA     LDX #$AA                        A:55 X:00 Y:00 P:64 SP:F
CB82  A0 33     LDY #$33                        A:55 X:AA Y:00 P:E4 SP:F
CB84  C9 55     CMP #$55                        A:55 X:AA Y:33 P:64 SP:F
CB86  D0 23     BNE $CBAB                       A:55 X:AA Y:33 P:67 SP:F
CB88  E0 AA     CPX #$AA                        A:55 X:AA Y:33 P:67 SP:F
CB8A  D0 1F     BNE $CBAB                       A:55 X:AA Y:33 P:67 SP:F
CB8C  C0 33     CPY #$33                        A:55 X:AA Y:33 P:67 SP:F
CB8E  D0 1B     BNE $CBAB                       A:55 X:AA Y:33 P:67 SP:F
CB90  C9 55     CMP #$55                        A:55 X:AA Y:33 P:67 SP:F
CB92  D0 17     BNE $CBAB                       A:55 X:AA Y:33 P:67 SP:F
CB94  E0 AA     CPX #$AA                        A:55 X:AA Y:33 P:67 SP:F
CB96  D0 13     BNE $CBAB                       A:55 X:AA Y:33 P:67 SP:F
CB98  C0 33     CPY #$33                        A:55 X:AA Y:33 P:67 SP:F
CB9A  D0 0F     BNE $CBAB                       A:55 X:AA Y:33 P:67 SP:F
CB9C  C9 56     CMP #$56                        A:55 X:AA Y:33 P:67 SP:F
CB9E  F0 0B     BEQ $CBAB                       A:55 X:AA Y:33 P:E4 SP:F
CBA0  E0 AB     CPX #$AB                        A:55 X:AA Y:33 P:E4 SP:F
CBA2  F0 07     BEQ $CBAB                       A:55 X:AA Y:33 P:E4 SP:F
CBA4  C0 34     CPY #$34                        A:55 X:AA Y:33 P:E4 SP:F
CBA6  F0 03     BEQ $CBAB                       A:55 X:AA Y:33 P:E4 SP:F
CBA8  4C AF CB  JMP $CBAF                       A:55 X:AA Y:33 P:E4 SP:F
CBAF  A0 71     LDY #$71                        A:55 X:AA Y:33 P:E4 SP:F
CBB1  20 31 F9  JSR $F931                       A:55 X:AA Y:71 P:64 SP:F
F931  24 01     BIT $01 = FF                    A:55 X:AA Y:71 P:64 SP:F
F933  A9 40     LDA #$40                        A:55 X:AA Y:71 P:E4 SP:F
F935  38        SEC                             A:40 X:AA Y:71 P:64 SP:F
F936  60        RTS                             A:40 X:AA Y:71 P:65 SP:F
CBB4  E9 40     SBC #$40                        A:40 X:AA Y:71 P:65 SP:F
CBB6  20 37 F9  JSR $F937                       A:00 X:AA Y:71 P:27 SP:F
F937  30 0B     BMI $F944                       A:00 X:AA Y:71 P:27 SP:F
F939  90 09     BCC $F944                       A:00 X:AA Y:71 P:27 SP:F
F93B  D0 07     BNE $F944                       A:00 X:AA Y:71 P:27 SP:F
F93D  70 05     BVS $F944                       A:00 X:AA Y:71 P:27 SP:F
F93F  C9 00     CMP #$00                        A:00 X:AA Y:71 P:27 SP:F
F941  D0 01     BNE $F944                       A:00 X:AA Y:71 P:27 SP:F
F943  60        RTS                             A:00 X:AA Y:71 P:27 SP:F
CBB9  C8        INY                             A:00 X:AA Y:71 P:27 SP:F
CBBA  20 47 F9  JSR $F947                       A:00 X:AA Y:72 P:25 SP:F
F947  B8        CLV                             A:00 X:AA Y:72 P:25 SP:F
F948  38        SEC                             A:00 X:AA Y:72 P:25 SP:F
F949  A9 40     LDA #$40                        A:00 X:AA Y:72 P:25 SP:F
F94B  60        RTS                             A:40 X:AA Y:72 P:25 SP:F
CBBD  E9 3F     SBC #$3F                        A:40 X:AA Y:72 P:25 SP:F
CBBF  20 4C F9  JSR $F94C                       A:01 X:AA Y:72 P:25 SP:F
F94C  F0 0B     BEQ $F959                       A:01 X:AA Y:72 P:25 SP:F
F94E  30 09     BMI $F959                       A:01 X:AA Y:72 P:25 SP:F
F950  90 07     BCC $F959                       A:01 X:AA Y:72 P:25 SP:F
F952  70 05     BVS $F959                       A:01 X:AA Y:72 P:25 SP:F
F954  C9 01     CMP #$01                        A:01 X:AA Y:72 P:25 SP:F
F956  D0 01     BNE $F959                       A:01 X:AA Y:72 P:27 SP:F
F958  60        RTS                             A:01 X:AA Y:72 P:27 SP:F
CBC2  C8        INY                             A:01 X:AA Y:72 P:27 SP:F
CBC3  20 5C F9  JSR $F95C                       A:01 X:AA Y:73 P:25 SP:F
F95C  A9 40     LDA #$40                        A:01 X:AA Y:73 P:25 SP:F
F95E  38        SEC                             A:40 X:AA Y:73 P:25 SP:F
F95F  24 01     BIT $01 = FF                    A:40 X:AA Y:73 P:25 SP:F
F961  60        RTS                             A:40 X:AA Y:73 P:E5 SP:F
CBC6  E9 41     SBC #$41                        A:40 X:AA Y:73 P:E5 SP:F
CBC8  20 62 F9  JSR $F962                       A:FF X:AA Y:73 P:A4 SP:F
F962  B0 0B     BCS $F96F                       A:FF X:AA Y:73 P:A4 SP:F
F964  F0 09     BEQ $F96F                       A:FF X:AA Y:73 P:A4 SP:F
F966  10 07     BPL $F96F                       A:FF X:AA Y:73 P:A4 SP:F
F968  70 05     BVS $F96F                       A:FF X:AA Y:73 P:A4 SP:F
F96A  C9 FF     CMP #$FF                        A:FF X:AA Y:73 P:A4 SP:F
F96C  D0 01     BNE $F96F                       A:FF X:AA Y:73 P:27 SP:F
F96E  60        RTS                             A:FF X:AA Y:73 P:27 SP:F
CBCB  C8        INY                             A:FF X:AA Y:73 P:27 SP:F
CBCC  20 72 F9  JSR $F972                       A:FF X:AA Y:74 P:25 SP:F
F972  18        CLC                             A:FF X:AA Y:74 P:25 SP:F
F973  A9 80     LDA #$80                        A:FF X:AA Y:74 P:24 SP:F
F975  60        RTS                             A:80 X:AA Y:74 P:A4 SP:F
CBCF  E9 00     SBC #$00                        A:80 X:AA Y:74 P:A4 SP:F
CBD1  20 76 F9  JSR $F976                       A:7F X:AA Y:74 P:65 SP:F
F976  90 05     BCC $F97D                       A:7F X:AA Y:74 P:65 SP:F
F978  C9 7F     CMP #$7F                        A:7F X:AA Y:74 P:65 SP:F
F97A  D0 01     BNE $F97D                       A:7F X:AA Y:74 P:67 SP:F
F97C  60        RTS                             A:7F X:AA Y:74 P:67 SP:F
CBD4  C8        INY                             A:7F X:AA Y:74 P:67 SP:F
CBD5  20 80 F9  JSR $F980                       A:7F X:AA Y:75 P:65 SP:F
F980  38        SEC                             A:7F X:AA Y:75 P:65 SP:F
F981  A9 81     LDA #$81                        A:7F X:AA Y:75 P:65 SP:F
F983  60        RTS                             A:81 X:AA Y:75 P:E5 SP:F
CBD8  E9 7F     SBC #$7F                        A:81 X:AA Y:75 P:E5 SP:F
CBDA  20 84 F9  JSR $F984                       A:02 X:AA Y:75 P:65 SP:F
F984  50 07     BVC $F98D                       A:02 X:AA Y:75 P:65 SP:F
F986  90 05     BCC $F98D                       A:02 X:AA Y:75 P:65 SP:F
F988  C9 02     CMP #$02                        A:02 X:AA Y:75 P:65 SP:F
F98A  D0 01     BNE $F98D                       A:02 X:AA Y:75 P:67 SP:F
F98C  60        RTS                             A:02 X:AA Y:75 P:67 SP:F
CBDD  60        RTS                             A:02 X:AA Y:75 P:67 SP:F
C606  20 DE CB  JSR $CBDE                       A:02 X:AA Y:75 P:67 SP:F
CBDE  EA        NOP                             A:02 X:AA Y:75 P:67 SP:F
CBDF  A9 FF     LDA #$FF                        A:02 X:AA Y:75 P:67 SP:F
CBE1  85 01     STA $01 = FF                    A:FF X:AA Y:75 P:E5 SP:F
CBE3  A9 44     LDA #$44                        A:FF X:AA Y:75 P:E5 SP:F
CBE5  A2 55     LDX #$55                        A:44 X:AA Y:75 P:65 SP:F
CBE7  A0 66     LDY #$66                        A:44 X:55 Y:75 P:65 SP:F
CBE9  E8        INX                             A:44 X:55 Y:66 P:65 SP:F
CBEA  88        DEY                             A:44 X:56 Y:66 P:65 SP:F
CBEB  E0 56     CPX #$56                        A:44 X:56 Y:65 P:65 SP:F
CBED  D0 21     BNE $CC10                       A:44 X:56 Y:65 P:67 SP:F
CBEF  C0 65     CPY #$65                        A:44 X:56 Y:65 P:67 SP:F
CBF1  D0 1D     BNE $CC10                       A:44 X:56 Y:65 P:67 SP:F
CBF3  E8        INX                             A:44 X:56 Y:65 P:67 SP:F
CBF4  E8        INX                             A:44 X:57 Y:65 P:65 SP:F
CBF5  88        DEY                             A:44 X:58 Y:65 P:65 SP:F
CBF6  88        DEY                             A:44 X:58 Y:64 P:65 SP:F
CBF7  E0 58     CPX #$58                        A:44 X:58 Y:63 P:65 SP:F
CBF9  D0 15     BNE $CC10                       A:44 X:58 Y:63 P:67 SP:F
CBFB  C0 63     CPY #$63                        A:44 X:58 Y:63 P:67 SP:F
CBFD  D0 11     BNE $CC10                       A:44 X:58 Y:63 P:67 SP:F
CBFF  CA        DEX                             A:44 X:58 Y:63 P:67 SP:F
CC00  C8        INY                             A:44 X:57 Y:63 P:65 SP:F
CC01  E0 57     CPX #$57                        A:44 X:57 Y:64 P:65 SP:F
CC03  D0 0B     BNE $CC10                       A:44 X:57 Y:64 P:67 SP:F
CC05  C0 64     CPY #$64                        A:44 X:57 Y:64 P:67 SP:F
CC07  D0 07     BNE $CC10                       A:44 X:57 Y:64 P:67 SP:F
CC09  C9 44     CMP #$44                        A:44 X:57 Y:64 P:67 SP:F
CC0B  D0 03     BNE $CC10                       A:44 X:57 Y:64 P:67 SP:F
CC0D  4C 14 CC  JMP $CC14                       A:44 X:57 Y:64 P:67 SP:F
CC14  EA        NOP                             A:44 X:57 Y:64 P:67 SP:F
CC15  38        SEC                             A:44 X:57 Y:64 P:67 SP:F
CC16  A2 69     LDX #$69                        A:44 X:57 Y:64 P:67 SP:F
CC18  A9 96     LDA #$96                        A:44 X:69 Y:64 P:65 SP:F
CC1A  24 01     BIT $01 = FF                    A:96 X:69 Y:64 P:E5 SP:F
CC1C  A0 FF     LDY #$FF                        A:96 X:69 Y:64 P:E5 SP:F
CC1E  C8        INY                             A:96 X:69 Y:FF P:E5 SP:F
CC1F  D0 3D     BNE $CC5E                       A:96 X:69 Y:00 P:67 SP:F
CC21  30 3B     BMI $CC5E                       A:96 X:69 Y:00 P:67 SP:F
CC23  90 39     BCC $CC5E                       A:96 X:69 Y:00 P:67 SP:F
CC25  50 37     BVC $CC5E                       A:96 X:69 Y:00 P:67 SP:F
CC27  C0 00     CPY #$00                        A:96 X:69 Y:00 P:67 SP:F
CC29  D0 33     BNE $CC5E                       A:96 X:69 Y:00 P:67 SP:F
CC2B  C8        INY                             A:96 X:69 Y:00 P:67 SP:F
CC2C  F0 30     BEQ $CC5E                       A:96 X:69 Y:01 P:65 SP:F
CC2E  30 2E     BMI $CC5E                       A:96 X:69 Y:01 P:65 SP:F
CC30  90 2C     BCC $CC5E                       A:96 X:69 Y:01 P:65 SP:F
CC32  50 2A     BVC $CC5E                       A:96 X:69 Y:01 P:65 SP:F
CC34  18        CLC                             A:96 X:69 Y:01 P:65 SP:F
CC35  B8        CLV                             A:96 X:69 Y:01 P:64 SP:F
CC36  A0 00     LDY #$00                        A:96 X:69 Y:01 P:24 SP:F
CC38  88        DEY                             A:96 X:69 Y:00 P:26 SP:F
CC39  F0 23     BEQ $CC5E                       A:96 X:69 Y:FF P:A4 SP:F
CC3B  10 21     BPL $CC5E                       A:96 X:69 Y:FF P:A4 SP:F
CC3D  B0 1F     BCS $CC5E                       A:96 X:69 Y:FF P:A4 SP:F
CC3F  70 1D     BVS $CC5E                       A:96 X:69 Y:FF P:A4 SP:F
CC41  C0 FF     CPY #$FF                        A:96 X:69 Y:FF P:A4 SP:F
CC43  D0 19     BNE $CC5E                       A:96 X:69 Y:FF P:27 SP:F
CC45  18        CLC                             A:96 X:69 Y:FF P:27 SP:F
CC46  88        DEY                             A:96 X:69 Y:FF P:26 SP:F
CC47  F0 15     BEQ $CC5E                       A:96 X:69 Y:FE P:A4 SP:F
CC49  10 13     BPL $CC5E                       A:96 X:69 Y:FE P:A4 SP:F
CC4B  B0 11     BCS $CC5E                       A:96 X:69 Y:FE P:A4 SP:F
CC4D  70 0F     BVS $CC5E                       A:96 X:69 Y:FE P:A4 SP:F
CC4F  C0 FE     CPY #$FE                        A:96 X:69 Y:FE P:A4 SP:F
CC51  D0 0B     BNE $CC5E                       A:96 X:69 Y:FE P:27 SP:F
CC53  C9 96     CMP #$96                        A:96 X:69 Y:FE P:27 SP:F
CC55  D0 07     BNE $CC5E                       A:96 X:69 Y:FE P:27 SP:F
CC57  E0 69     CPX #$69                        A:96 X:69 Y:FE P:27 SP:F
CC59  D0 03     BNE $CC5E                       A:96 X:69 Y:FE P:27 SP:F
CC5B  4C 62 CC  JMP $CC62                       A:96 X:69 Y:FE P:27 SP:F
CC62  EA        NOP                             A:96 X:69 Y:FE P:27 SP:F
CC63  38        SEC                             A:96 X:69 Y:FE P:27 SP:F
CC64  A0 69     LDY #$69                        A:96 X:69 Y:FE P:27 SP:F
CC66  A9 96     LDA #$96                        A:96 X:69 Y:69 P:25 SP:F
CC68  24 01     BIT $01 = FF                    A:96 X:69 Y:69 P:A5 SP:F
CC6A  A2 FF     LDX #$FF                        A:96 X:69 Y:69 P:E5 SP:F
CC6C  E8        INX                             A:96 X:FF Y:69 P:E5 SP:F
CC6D  D0 3D     BNE $CCAC                       A:96 X:00 Y:69 P:67 SP:F
CC6F  30 3B     BMI $CCAC                       A:96 X:00 Y:69 P:67 SP:F
CC71  90 39     BCC $CCAC                       A:96 X:00 Y:69 P:67 SP:F
CC73  50 37     BVC $CCAC                       A:96 X:00 Y:69 P:67 SP:F
CC75  E0 00     CPX #$00                        A:96 X:00 Y:69 P:67 SP:F
CC77  D0 33     BNE $CCAC                       A:96 X:00 Y:69 P:67 SP:F
CC79  E8        INX                             A:96 X:00 Y:69 P:67 SP:F
CC7A  F0 30     BEQ $CCAC                       A:96 X:01 Y:69 P:65 SP:F
CC7C  30 2E     BMI $CCAC                       A:96 X:01 Y:69 P:65 SP:F
CC7E  90 2C     BCC $CCAC                       A:96 X:01 Y:69 P:65 SP:F
CC80  50 2A     BVC $CCAC                       A:96 X:01 Y:69 P:65 SP:F
CC82  18        CLC                             A:96 X:01 Y:69 P:65 SP:F
CC83  B8        CLV                             A:96 X:01 Y:69 P:64 SP:F
CC84  A2 00     LDX #$00                        A:96 X:01 Y:69 P:24 SP:F
CC86  CA        DEX                             A:96 X:00 Y:69 P:26 SP:F
CC87  F0 23     BEQ $CCAC                       A:96 X:FF Y:69 P:A4 SP:F
CC89  10 21     BPL $CCAC                       A:96 X:FF Y:69 P:A4 SP:F
CC8B  B0 1F     BCS $CCAC                       A:96 X:FF Y:69 P:A4 SP:F
CC8D  70 1D     BVS $CCAC                       A:96 X:FF Y:69 P:A4 SP:F
CC8F  E0 FF     CPX #$FF                        A:96 X:FF Y:69 P:A4 SP:F
CC91  D0 19     BNE $CCAC                       A:96 X:FF Y:69 P:27 SP:F
CC93  18        CLC                             A:96 X:FF Y:69 P:27 SP:F
CC94  CA        DEX                             A:96 X:FF Y:69 P:26 SP:F
CC95  F0 15     BEQ $CCAC                       A:96 X:FE Y:69 P:A4 SP:F
CC97  10 13     BPL $CCAC                       A:96 X:FE Y:69 P:A4 SP:F
CC99  B0 11     BCS $CCAC                       A:96 X:FE Y:69 P:A4 SP:F
CC9B  70 0F     BVS $CCAC                       A:96 X:FE Y:69 P:A4 SP:F
CC9D  E0 FE     CPX #$FE                        A:96 X:FE Y:69 P:A4 SP:F
CC9F  D0 0B     BNE $CCAC                       A:96 X:FE Y:69 P:27 SP:F
CCA1  C9 96     CMP #$96                        A:96 X:FE Y:69 P:27 SP:F
CCA3  D0 07     BNE $CCAC                       A:96 X:FE Y:69 P:27 SP:F
CCA5  C0 69     CPY #$69                        A:96 X:FE Y:69 P:27 SP:F
CCA7  D0 03     BNE $CCAC                       A:96 X:FE Y:69 P:27 SP:F
CCA9  4C B0 CC  JMP $CCB0                       A:96 X:FE Y:69 P:27 SP:F
CCB0  EA        NOP                             A:96 X:FE Y:69 P:27 SP:F
CCB1  A9 85     LDA #$85                        A:96 X:FE Y:69 P:27 SP:F
CCB3  A2 34     LDX #$34                        A:85 X:FE Y:69 P:A5 SP:F
CCB5  A0 99     LDY #$99                        A:85 X:34 Y:69 P:25 SP:F
CCB7  18        CLC                             A:85 X:34 Y:99 P:A5 SP:F
CCB8  24 01     BIT $01 = FF                    A:85 X:34 Y:99 P:A4 SP:F
CCBA  A8        TAY                             A:85 X:34 Y:99 P:E4 SP:F
CCBB  F0 2E     BEQ $CCEB                       A:85 X:34 Y:85 P:E4 SP:F
CCBD  B0 2C     BCS $CCEB                       A:85 X:34 Y:85 P:E4 SP:F
CCBF  50 2A     BVC $CCEB                       A:85 X:34 Y:85 P:E4 SP:F
CCC1  10 28     BPL $CCEB                       A:85 X:34 Y:85 P:E4 SP:F
CCC3  C9 85     CMP #$85                        A:85 X:34 Y:85 P:E4 SP:F
CCC5  D0 24     BNE $CCEB                       A:85 X:34 Y:85 P:67 SP:F
CCC7  E0 34     CPX #$34                        A:85 X:34 Y:85 P:67 SP:F
CCC9  D0 20     BNE $CCEB                       A:85 X:34 Y:85 P:67 SP:F
CCCB  C0 85     CPY #$85                        A:85 X:34 Y:85 P:67 SP:F
CCCD  D0 1C     BNE $CCEB                       A:85 X:34 Y:85 P:67 SP:F
CCCF  A9 00     LDA #$00                        A:85 X:34 Y:85 P:67 SP:F
CCD1  38        SEC                             A:00 X:34 Y:85 P:67 SP:F
CCD2  B8        CLV                             A:00 X:34 Y:85 P:67 SP:F
CCD3  A8        TAY                             A:00 X:34 Y:85 P:27 SP:F
CCD4  D0 15     BNE $CCEB                       A:00 X:34 Y:00 P:27 SP:F
CCD6  90 13     BCC $CCEB                       A:00 X:34 Y:00 P:27 SP:F
CCD8  70 11     BVS $CCEB                       A:00 X:34 Y:00 P:27 SP:F
CCDA  30 0F     BMI $CCEB                       A:00 X:34 Y:00 P:27 SP:F
CCDC  C9 00     CMP #$00                        A:00 X:34 Y:00 P:27 SP:F
CCDE  D0 0B     BNE $CCEB                       A:00 X:34 Y:00 P:27 SP:F
CCE0  E0 34     CPX #$34                        A:00 X:34 Y:00 P:27 SP:F
CCE2  D0 07     BNE $CCEB                       A:00 X:34 Y:00 P:27 SP:F
CCE4  C0 00     CPY #$00                        A:00 X:34 Y:00 P:27 SP:F
CCE6  D0 03     BNE $CCEB                       A:00 X:34 Y:00 P:27 SP:F
CCE8  4C EF CC  JMP $CCEF                       A:00 X:34 Y:00 P:27 SP:F
CCEF  EA        NOP                             A:00 X:34 Y:00 P:27 SP:F
CCF0  A9 85     LDA #$85                        A:00 X:34 Y:00 P:27 SP:F
CCF2  A2 34     LDX #$34                        A:85 X:34 Y:00 P:A5 SP:F
CCF4  A0 99     LDY #$99                        A:85 X:34 Y:00 P:25 SP:F
CCF6  18        CLC                             A:85 X:34 Y:99 P:A5 SP:F
CCF7  24 01     BIT $01 = FF                    A:85 X:34 Y:99 P:A4 SP:F
CCF9  AA        TAX                             A:85 X:34 Y:99 P:E4 SP:F
CCFA  F0 2E     BEQ $CD2A                       A:85 X:85 Y:99 P:E4 SP:F
CCFC  B0 2C     BCS $CD2A                       A:85 X:85 Y:99 P:E4 SP:F
CCFE  50 2A     BVC $CD2A                       A:85 X:85 Y:99 P:E4 SP:F
CD00  10 28     BPL $CD2A                       A:85 X:85 Y:99 P:E4 SP:F
CD02  C9 85     CMP #$85                        A:85 X:85 Y:99 P:E4 SP:F
CD04  D0 24     BNE $CD2A                       A:85 X:85 Y:99 P:67 SP:F
CD06  E0 85     CPX #$85                        A:85 X:85 Y:99 P:67 SP:F
CD08  D0 20     BNE $CD2A                       A:85 X:85 Y:99 P:67 SP:F
CD0A  C0 99     CPY #$99                        A:85 X:85 Y:99 P:67 SP:F
CD0C  D0 1C     BNE $CD2A                       A:85 X:85 Y:99 P:67 SP:F
CD0E  A9 00     LDA #$00                        A:85 X:85 Y:99 P:67 SP:F
CD10  38        SEC                             A:00 X:85 Y:99 P:67 SP:F
CD11  B8        CLV                             A:00 X:85 Y:99 P:67 SP:F
CD12  AA        TAX                             A:00 X:85 Y:99 P:27 SP:F
CD13  D0 15     BNE $CD2A                       A:00 X:00 Y:99 P:27 SP:F
CD15  90 13     BCC $CD2A                       A:00 X:00 Y:99 P:27 SP:F
CD17  70 11     BVS $CD2A                       A:00 X:00 Y:99 P:27 SP:F
CD19  30 0F     BMI $CD2A                       A:00 X:00 Y:99 P:27 SP:F
CD1B  C9 00     CMP #$00                        A:00 X:00 Y:99 P:27 SP:F
CD1D  D0 0B     BNE $CD2A                       A:00 X:00 Y:99 P:27 SP:F
CD1F  E0 00     CPX #$00                        A:00 X:00 Y:99 P:27 SP:F
CD21  D0 07     BNE $CD2A                       A:00 X:00 Y:99 P:27 SP:F
CD23  C0 99     CPY #$99                        A:00 X:00 Y:99 P:27 SP:F
CD25  D0 03     BNE $CD2A                       A:00 X:00 Y:99 P:27 SP:F
CD27  4C 2E CD  JMP $CD2E                       A:00 X:00 Y:99 P:27 SP:F
CD2E  EA        NOP                             A:00 X:00 Y:99 P:27 SP:F
CD2F  A9 85     LDA #$85                        A:00 X:00 Y:99 P:27 SP:F
CD31  A2 34     LDX #$34                        A:85 X:00 Y:99 P:A5 SP:F
CD33  A0 99     LDY #$99                        A:85 X:34 Y:99 P:25 SP:F
CD35  18        CLC                             A:85 X:34 Y:99 P:A5 SP:F
CD36  24 01     BIT $01 = FF                    A:85 X:34 Y:99 P:A4 SP:F
CD38  98        TYA                             A:85 X:34 Y:99 P:E4 SP:F
CD39  F0 2E     BEQ $CD69                       A:99 X:34 Y:99 P:E4 SP:F
CD3B  B0 2C     BCS $CD69                       A:99 X:34 Y:99 P:E4 SP:F
CD3D  50 2A     BVC $CD69                       A:99 X:34 Y:99 P:E4 SP:F
CD3F  10 28     BPL $CD69                       A:99 X:34 Y:99 P:E4 SP:F
CD41  C9 99     CMP #$99                        A:99 X:34 Y:99 P:E4 SP:F
CD43  D0 24     BNE $CD69                       A:99 X:34 Y:99 P:67 SP:F
CD45  E0 34     CPX #$34                        A:99 X:34 Y:99 P:67 SP:F
CD47  D0 20     BNE $CD69                       A:99 X:34 Y:99 P:67 SP:F
CD49  C0 99     CPY #$99                        A:99 X:34 Y:99 P:67 SP:F
CD4B  D0 1C     BNE $CD69                       A:99 X:34 Y:99 P:67 SP:F
CD4D  A0 00     LDY #$00                        A:99 X:34 Y:99 P:67 SP:F
CD4F  38        SEC                             A:99 X:34 Y:00 P:67 SP:F
CD50  B8        CLV                             A:99 X:34 Y:00 P:67 SP:F
CD51  98        TYA                             A:99 X:34 Y:00 P:27 SP:F
CD52  D0 15     BNE $CD69                       A:00 X:34 Y:00 P:27 SP:F
CD54  90 13     BCC $CD69                       A:00 X:34 Y:00 P:27 SP:F
CD56  70 11     BVS $CD69                       A:00 X:34 Y:00 P:27 SP:F
CD58  30 0F     BMI $CD69                       A:00 X:34 Y:00 P:27 SP:F
CD5A  C9 00     CMP #$00                        A:00 X:34 Y:00 P:27 SP:F
CD5C  D0 0B     BNE $CD69                       A:00 X:34 Y:00 P:27 SP:F
CD5E  E0 34     CPX #$34                        A:00 X:34 Y:00 P:27 SP:F
CD60  D0 07     BNE $CD69                       A:00 X:34 Y:00 P:27 SP:F
CD62  C0 00     CPY #$00                        A:00 X:34 Y:00 P:27 SP:F
CD64  D0 03     BNE $CD69                       A:00 X:34 Y:00 P:27 SP:F
CD66  4C 6D CD  JMP $CD6D                       A:00 X:34 Y:00 P:27 SP:F
CD6D  EA        NOP                             A:00 X:34 Y:00 P:27 SP:F
CD6E  A9 85     LDA #$85                        A:00 X:34 Y:00 P:27 SP:F
CD70  A2 34     LDX #$34                        A:85 X:34 Y:00 P:A5 SP:F
CD72  A0 99     LDY #$99                        A:85 X:34 Y:00 P:25 SP:F
CD74  18        CLC                             A:85 X:34 Y:99 P:A5 SP:F
CD75  24 01     BIT $01 = FF                    A:85 X:34 Y:99 P:A4 SP:F
CD77  8A        TXA                             A:85 X:34 Y:99 P:E4 SP:F
CD78  F0 2E     BEQ $CDA8                       A:34 X:34 Y:99 P:64 SP:F
CD7A  B0 2C     BCS $CDA8                       A:34 X:34 Y:99 P:64 SP:F
CD7C  50 2A     BVC $CDA8                       A:34 X:34 Y:99 P:64 SP:F
CD7E  30 28     BMI $CDA8                       A:34 X:34 Y:99 P:64 SP:F
CD80  C9 34     CMP #$34                        A:34 X:34 Y:99 P:64 SP:F
CD82  D0 24     BNE $CDA8                       A:34 X:34 Y:99 P:67 SP:F
CD84  E0 34     CPX #$34                        A:34 X:34 Y:99 P:67 SP:F
CD86  D0 20     BNE $CDA8                       A:34 X:34 Y:99 P:67 SP:F
CD88  C0 99     CPY #$99                        A:34 X:34 Y:99 P:67 SP:F
CD8A  D0 1C     BNE $CDA8                       A:34 X:34 Y:99 P:67 SP:F
CD8C  A2 00     LDX #$00                        A:34 X:34 Y:99 P:67 SP:F
CD8E  38        SEC                             A:34 X:00 Y:99 P:67 SP:F
CD8F  B8        CLV                             A:34 X:00 Y:99 P:67 SP:F
CD90  8A        TXA                             A:34 X:00 Y:99 P:27 SP:F
CD91  D0 15     BNE $CDA8                       A:00 X:00 Y:99 P:27 SP:F
CD93  90 13     BCC $CDA8                       A:00 X:00 Y:99 P:27 SP:F
CD95  70 11     BVS $CDA8                       A:00 X:00 Y:99 P:27 SP:F
CD97  30 0F     BMI $CDA8                       A:00 X:00 Y:99 P:27 SP:F
CD99  C9 00     CMP #$00                        A:00 X:00 Y:99 P:27 SP:F
CD9B  D0 0B     BNE $CDA8                       A:00 X:00 Y:99 P:27 SP:F
CD9D  E0 00     CPX #$00                        A:00 X:00 Y:99 P:27 SP:F
CD9F  D0 07     BNE $CDA8                       A:00 X:00 Y:99 P:27 SP:F
CDA1  C0 99     CPY #$99                        A:00 X:00 Y:99 P:27 SP:F
CDA3  D0 03     BNE $CDA8                       A:00 X:00 Y:99 P:27 SP:F
CDA5  4C AC CD  JMP $CDAC                       A:00 X:00 Y:99 P:27 SP:F
CDAC  EA        NOP                             A:00 X:00 Y:99 P:27 SP:F
CDAD  BA        TSX                             A:00 X:00 Y:99 P:27 SP:F
CDAE  8E FF 07  STX $07FF = 00                  A:00 X:FB Y:99 P:A5 SP:F
CDB1  A0 33     LDY #$33                        A:00 X:FB Y:99 P:A5 SP:F
CDB3  A2 69     LDX #$69                        A:00 X:FB Y:33 P:25 SP:F
CDB5  A9 84     LDA #$84                        A:00 X:69 Y:33 P:25 SP:F
CDB7  18        CLC                             A:84 X:69 Y:33 P:A5 SP:F
CDB8  24 01     BIT $01 = FF                    A:84 X:69 Y:33 P:A4 SP:F
CDBA  9A        TXS                             A:84 X:69 Y:33 P:E4 SP:F
CDBB  F0 32     BEQ $CDEF                       A:84 X:69 Y:33 P:E4 SP:6
CDBD  10 30     BPL $CDEF                       A:84 X:69 Y:33 P:E4 SP:6
CDBF  B0 2E     BCS $CDEF                       A:84 X:69 Y:33 P:E4 SP:6
CDC1  50 2C     BVC $CDEF                       A:84 X:69 Y:33 P:E4 SP:6
CDC3  C9 84     CMP #$84                        A:84 X:69 Y:33 P:E4 SP:6
CDC5  D0 28     BNE $CDEF                       A:84 X:69 Y:33 P:67 SP:6
CDC7  E0 69     CPX #$69                        A:84 X:69 Y:33 P:67 SP:6
CDC9  D0 24     BNE $CDEF                       A:84 X:69 Y:33 P:67 SP:6
CDCB  C0 33     CPY #$33                        A:84 X:69 Y:33 P:67 SP:6
CDCD  D0 20     BNE $CDEF                       A:84 X:69 Y:33 P:67 SP:6
CDCF  A0 01     LDY #$01                        A:84 X:69 Y:33 P:67 SP:6
CDD1  A9 04     LDA #$04                        A:84 X:69 Y:01 P:65 SP:6
CDD3  38        SEC                             A:04 X:69 Y:01 P:65 SP:6
CDD4  B8        CLV                             A:04 X:69 Y:01 P:65 SP:6
CDD5  A2 00     LDX #$00                        A:04 X:69 Y:01 P:25 SP:6
CDD7  BA        TSX                             A:04 X:00 Y:01 P:27 SP:6
CDD8  F0 15     BEQ $CDEF                       A:04 X:69 Y:01 P:25 SP:6
CDDA  30 13     BMI $CDEF                       A:04 X:69 Y:01 P:25 SP:6
CDDC  90 11     BCC $CDEF                       A:04 X:69 Y:01 P:25 SP:6
CDDE  70 0F     BVS $CDEF                       A:04 X:69 Y:01 P:25 SP:6
CDE0  E0 69     CPX #$69                        A:04 X:69 Y:01 P:25 SP:6
CDE2  D0 0B     BNE $CDEF                       A:04 X:69 Y:01 P:27 SP:6
CDE4  C9 04     CMP #$04                        A:04 X:69 Y:01 P:27 SP:6
CDE6  D0 07     BNE $CDEF                       A:04 X:69 Y:01 P:27 SP:6
CDE8  C0 01     CPY #$01                        A:04 X:69 Y:01 P:27 SP:6
CDEA  D0 03     BNE $CDEF                       A:04 X:69 Y:01 P:27 SP:6
CDEC  4C F3 CD  JMP $CDF3                       A:04 X:69 Y:01 P:27 SP:6
CDF3  AE FF 07  LDX $07FF = FB                  A:04 X:69 Y:01 P:27 SP:6
CDF6  9A        TXS                             A:04 X:FB Y:01 P:A5 SP:6
CDF7  60        RTS                             A:04 X:FB Y:01 P:A5 SP:F
C609  20 F8 CD  JSR $CDF8                       A:04 X:FB Y:01 P:A5 SP:F
CDF8  A9 FF     LDA #$FF                        A:04 X:FB Y:01 P:A5 SP:F
CDFA  85 01     STA $01 = FF                    A:FF X:FB Y:01 P:A5 SP:F
CDFC  BA        TSX                             A:FF X:FB Y:01 P:A5 SP:F
CDFD  8E FF 07  STX $07FF = FB                  A:FF X:FB Y:01 P:A5 SP:F
CE00  EA        NOP                             A:FF X:FB Y:01 P:A5 SP:F
CE01  A2 80     LDX #$80                        A:FF X:FB Y:01 P:A5 SP:F
CE03  9A        TXS                             A:FF X:80 Y:01 P:A5 SP:F
CE04  A9 33     LDA #$33                        A:FF X:80 Y:01 P:A5 SP:8
CE06  48        PHA                             A:33 X:80 Y:01 P:25 SP:8
CE07  A9 69     LDA #$69                        A:33 X:80 Y:01 P:25 SP:7
CE09  48        PHA                             A:69 X:80 Y:01 P:25 SP:7
CE0A  BA        TSX                             A:69 X:80 Y:01 P:25 SP:7
CE0B  E0 7E     CPX #$7E                        A:69 X:7E Y:01 P:25 SP:7
CE0D  D0 20     BNE $CE2F                       A:69 X:7E Y:01 P:27 SP:7
CE0F  68        PLA                             A:69 X:7E Y:01 P:27 SP:7
CE10  C9 69     CMP #$69                        A:69 X:7E Y:01 P:25 SP:7
CE12  D0 1B     BNE $CE2F                       A:69 X:7E Y:01 P:27 SP:7
CE14  68        PLA                             A:69 X:7E Y:01 P:27 SP:7
CE15  C9 33     CMP #$33                        A:33 X:7E Y:01 P:25 SP:8
CE17  D0 16     BNE $CE2F                       A:33 X:7E Y:01 P:27 SP:8
CE19  BA        TSX                             A:33 X:7E Y:01 P:27 SP:8
CE1A  E0 80     CPX #$80                        A:33 X:80 Y:01 P:A5 SP:8
CE1C  D0 11     BNE $CE2F                       A:33 X:80 Y:01 P:27 SP:8
CE1E  AD 80 01  LDA $0180 = 33                  A:33 X:80 Y:01 P:27 SP:8
CE21  C9 33     CMP #$33                        A:33 X:80 Y:01 P:25 SP:8
CE23  D0 0A     BNE $CE2F                       A:33 X:80 Y:01 P:27 SP:8
CE25  AD 7F 01  LDA $017F = 69                  A:33 X:80 Y:01 P:27 SP:8
CE28  C9 69     CMP #$69                        A:69 X:80 Y:01 P:25 SP:8
CE2A  D0 03     BNE $CE2F                       A:69 X:80 Y:01 P:27 SP:8
CE2C  4C 33 CE  JMP $CE33                       A:69 X:80 Y:01 P:27 SP:8
CE33  EA        NOP                             A:69 X:80 Y:01 P:27 SP:8
CE34  A2 80     LDX #$80                        A:69 X:80 Y:01 P:27 SP:8
CE36  9A        TXS                             A:69 X:80 Y:01 P:A5 SP:8
CE37  20 3D CE  JSR $CE3D                       A:69 X:80 Y:01 P:A5 SP:8
CE3D  BA        TSX                             A:69 X:80 Y:01 P:A5 SP:7
CE3E  E0 7E     CPX #$7E                        A:69 X:7E Y:01 P:25 SP:7
CE40  D0 19     BNE $CE5B                       A:69 X:7E Y:01 P:27 SP:7
CE42  68        PLA                             A:69 X:7E Y:01 P:27 SP:7
CE43  68        PLA                             A:39 X:7E Y:01 P:25 SP:7
CE44  BA        TSX                             A:CE X:7E Y:01 P:A5 SP:8
CE45  E0 80     CPX #$80                        A:CE X:80 Y:01 P:A5 SP:8
CE47  D0 12     BNE $CE5B                       A:CE X:80 Y:01 P:27 SP:8
CE49  A9 00     LDA #$00                        A:CE X:80 Y:01 P:27 SP:8
CE4B  20 4E CE  JSR $CE4E                       A:00 X:80 Y:01 P:27 SP:8
CE4E  68        PLA                             A:00 X:80 Y:01 P:27 SP:7
CE4F  C9 4D     CMP #$4D                        A:4D X:80 Y:01 P:25 SP:7
CE51  D0 08     BNE $CE5B                       A:4D X:80 Y:01 P:27 SP:7
CE53  68        PLA                             A:4D X:80 Y:01 P:27 SP:7
CE54  C9 CE     CMP #$CE                        A:CE X:80 Y:01 P:A5 SP:8
CE56  D0 03     BNE $CE5B                       A:CE X:80 Y:01 P:27 SP:8
CE58  4C 5F CE  JMP $CE5F                       A:CE X:80 Y:01 P:27 SP:8
CE5F  EA        NOP                             A:CE X:80 Y:01 P:27 SP:8
CE60  A9 CE     LDA #$CE                        A:CE X:80 Y:01 P:27 SP:8
CE62  48        PHA                             A:CE X:80 Y:01 P:A5 SP:8
CE63  A9 66     LDA #$66                        A:CE X:80 Y:01 P:A5 SP:7
CE65  48        PHA                             A:66 X:80 Y:01 P:25 SP:7
CE66  60        RTS                             A:66 X:80 Y:01 P:25 SP:7
CE67  A2 77     LDX #$77                        A:66 X:80 Y:01 P:25 SP:8
CE69  A0 69     LDY #$69                        A:66 X:77 Y:01 P:25 SP:8
CE6B  18        CLC                             A:66 X:77 Y:69 P:25 SP:8
CE6C  24 01     BIT $01 = FF                    A:66 X:77 Y:69 P:24 SP:8
CE6E  A9 83     LDA #$83                        A:66 X:77 Y:69 P:E4 SP:8
CE70  20 66 CE  JSR $CE66                       A:83 X:77 Y:69 P:E4 SP:8
CE66  60        RTS                             A:83 X:77 Y:69 P:E4 SP:7
CE73  F0 24     BEQ $CE99                       A:83 X:77 Y:69 P:E4 SP:8
CE75  10 22     BPL $CE99                       A:83 X:77 Y:69 P:E4 SP:8
CE77  B0 20     BCS $CE99                       A:83 X:77 Y:69 P:E4 SP:8
CE79  50 1E     BVC $CE99                       A:83 X:77 Y:69 P:E4 SP:8
CE7B  C9 83     CMP #$83                        A:83 X:77 Y:69 P:E4 SP:8
CE7D  D0 1A     BNE $CE99                       A:83 X:77 Y:69 P:67 SP:8
CE7F  C0 69     CPY #$69                        A:83 X:77 Y:69 P:67 SP:8
CE81  D0 16     BNE $CE99                       A:83 X:77 Y:69 P:67 SP:8
CE83  E0 77     CPX #$77                        A:83 X:77 Y:69 P:67 SP:8
CE85  D0 12     BNE $CE99                       A:83 X:77 Y:69 P:67 SP:8
CE87  38        SEC                             A:83 X:77 Y:69 P:67 SP:8
CE88  B8        CLV                             A:83 X:77 Y:69 P:67 SP:8
CE89  A9 00     LDA #$00                        A:83 X:77 Y:69 P:27 SP:8
CE8B  20 66 CE  JSR $CE66                       A:00 X:77 Y:69 P:27 SP:8
CE66  60        RTS                             A:00 X:77 Y:69 P:27 SP:7
CE8E  D0 09     BNE $CE99                       A:00 X:77 Y:69 P:27 SP:8
CE90  30 07     BMI $CE99                       A:00 X:77 Y:69 P:27 SP:8
CE92  90 05     BCC $CE99                       A:00 X:77 Y:69 P:27 SP:8
CE94  70 03     BVS $CE99                       A:00 X:77 Y:69 P:27 SP:8
CE96  4C 9D CE  JMP $CE9D                       A:00 X:77 Y:69 P:27 SP:8
CE9D  EA        NOP                             A:00 X:77 Y:69 P:27 SP:8
CE9E  A9 CE     LDA #$CE                        A:00 X:77 Y:69 P:27 SP:8
CEA0  48        PHA                             A:CE X:77 Y:69 P:A5 SP:8
CEA1  A9 AE     LDA #$AE                        A:CE X:77 Y:69 P:A5 SP:7
CEA3  48        PHA                             A:AE X:77 Y:69 P:A5 SP:7
CEA4  A9 65     LDA #$65                        A:AE X:77 Y:69 P:A5 SP:7
CEA6  48        PHA                             A:65 X:77 Y:69 P:25 SP:7
CEA7  A9 55     LDA #$55                        A:65 X:77 Y:69 P:25 SP:7
CEA9  A0 88     LDY #$88                        A:55 X:77 Y:69 P:25 SP:7
CEAB  A2 99     LDX #$99                        A:55 X:77 Y:88 P:A5 SP:7
CEAD  40        RTI                             A:55 X:99 Y:88 P:A5 SP:7
CEAE  30 35     BMI $CEE5                       A:55 X:99 Y:88 P:65 SP:8
CEB0  50 33     BVC $CEE5                       A:55 X:99 Y:88 P:65 SP:8
CEB2  F0 31     BEQ $CEE5                       A:55 X:99 Y:88 P:65 SP:8
CEB4  90 2F     BCC $CEE5                       A:55 X:99 Y:88 P:65 SP:8
CEB6  C9 55     CMP #$55                        A:55 X:99 Y:88 P:65 SP:8
CEB8  D0 2B     BNE $CEE5                       A:55 X:99 Y:88 P:67 SP:8
CEBA  C0 88     CPY #$88                        A:55 X:99 Y:88 P:67 SP:8
CEBC  D0 27     BNE $CEE5                       A:55 X:99 Y:88 P:67 SP:8
CEBE  E0 99     CPX #$99                        A:55 X:99 Y:88 P:67 SP:8
CEC0  D0 23     BNE $CEE5                       A:55 X:99 Y:88 P:67 SP:8
CEC2  A9 CE     LDA #$CE                        A:55 X:99 Y:88 P:67 SP:8
CEC4  48        PHA                             A:CE X:99 Y:88 P:E5 SP:8
CEC5  A9 CE     LDA #$CE                        A:CE X:99 Y:88 P:E5 SP:7
CEC7  48        PHA                             A:CE X:99 Y:88 P:E5 SP:7
CEC8  A9 87     LDA #$87                        A:CE X:99 Y:88 P:E5 SP:7
CECA  48        PHA                             A:87 X:99 Y:88 P:E5 SP:7
CECB  A9 55     LDA #$55                        A:87 X:99 Y:88 P:E5 SP:7
CECD  40        RTI                             A:55 X:99 Y:88 P:65 SP:7
CECE  10 15     BPL $CEE5                       A:55 X:99 Y:88 P:A7 SP:8
CED0  70 13     BVS $CEE5                       A:55 X:99 Y:88 P:A7 SP:8
CED2  D0 11     BNE $CEE5                       A:55 X:99 Y:88 P:A7 SP:8
CED4  90 0F     BCC $CEE5                       A:55 X:99 Y:88 P:A7 SP:8
CED6  C9 55     CMP #$55                        A:55 X:99 Y:88 P:A7 SP:8
CED8  D0 0B     BNE $CEE5                       A:55 X:99 Y:88 P:27 SP:8
CEDA  C0 88     CPY #$88                        A:55 X:99 Y:88 P:27 SP:8
CEDC  D0 07     BNE $CEE5                       A:55 X:99 Y:88 P:27 SP:8
CEDE  E0 99     CPX #$99                        A:55 X:99 Y:88 P:27 SP:8
CEE0  D0 03     BNE $CEE5                       A:55 X:99 Y:88 P:27 SP:8
CEE2  4C E9 CE  JMP $CEE9                       A:55 X:99 Y:88 P:27 SP:8
CEE9  AE FF 07  LDX $07FF = FB                  A:55 X:99 Y:88 P:27 SP:8
CEEC  9A        TXS                             A:55 X:FB Y:88 P:A5 SP:8
CEED  60        RTS                             A:55 X:FB Y:88 P:A5 SP:F
C60C  20 EE CE  JSR $CEEE                       A:55 X:FB Y:88 P:A5 SP:F
CEEE  A2 55     LDX #$55                        A:55 X:FB Y:88 P:A5 SP:F
CEF0  A0 69     LDY #$69                        A:55 X:55 Y:88 P:25 SP:F
CEF2  A9 FF     LDA #$FF                        A:55 X:55 Y:69 P:25 SP:F
CEF4  85 01     STA $01 = FF                    A:FF X:55 Y:69 P:A5 SP:F
CEF6  EA        NOP                             A:FF X:55 Y:69 P:A5 SP:F
CEF7  24 01     BIT $01 = FF                    A:FF X:55 Y:69 P:A5 SP:F
CEF9  38        SEC                             A:FF X:55 Y:69 P:E5 SP:F
CEFA  A9 01     LDA #$01                        A:FF X:55 Y:69 P:E5 SP:F
CEFC  4A        LSR A                           A:01 X:55 Y:69 P:65 SP:F
CEFD  90 1D     BCC $CF1C                       A:00 X:55 Y:69 P:67 SP:F
CEFF  D0 1B     BNE $CF1C                       A:00 X:55 Y:69 P:67 SP:F
CF01  30 19     BMI $CF1C                       A:00 X:55 Y:69 P:67 SP:F
CF03  50 17     BVC $CF1C                       A:00 X:55 Y:69 P:67 SP:F
CF05  C9 00     CMP #$00                        A:00 X:55 Y:69 P:67 SP:F
CF07  D0 13     BNE $CF1C                       A:00 X:55 Y:69 P:67 SP:F
CF09  B8        CLV                             A:00 X:55 Y:69 P:67 SP:F
CF0A  A9 AA     LDA #$AA                        A:00 X:55 Y:69 P:27 SP:F
CF0C  4A        LSR A                           A:AA X:55 Y:69 P:A5 SP:F
CF0D  B0 0D     BCS $CF1C                       A:55 X:55 Y:69 P:24 SP:F
CF0F  F0 0B     BEQ $CF1C                       A:55 X:55 Y:69 P:24 SP:F
CF11  30 09     BMI $CF1C                       A:55 X:55 Y:69 P:24 SP:F
CF13  70 07     BVS $CF1C                       A:55 X:55 Y:69 P:24 SP:F
CF15  C9 55     CMP #$55                        A:55 X:55 Y:69 P:24 SP:F
CF17  D0 03     BNE $CF1C                       A:55 X:55 Y:69 P:27 SP:F
CF19  4C 20 CF  JMP $CF20                       A:55 X:55 Y:69 P:27 SP:F
CF20  EA        NOP                             A:55 X:55 Y:69 P:27 SP:F
CF21  24 01     BIT $01 = FF                    A:55 X:55 Y:69 P:27 SP:F
CF23  38        SEC                             A:55 X:55 Y:69 P:E5 SP:F
CF24  A9 80     LDA #$80                        A:55 X:55 Y:69 P:E5 SP:F
CF26  0A        ASL A                           A:80 X:55 Y:69 P:E5 SP:F
CF27  90 1E     BCC $CF47                       A:00 X:55 Y:69 P:67 SP:F
CF29  D0 1C     BNE $CF47                       A:00 X:55 Y:69 P:67 SP:F
CF2B  30 1A     BMI $CF47                       A:00 X:55 Y:69 P:67 SP:F
CF2D  50 18     BVC $CF47                       A:00 X:55 Y:69 P:67 SP:F
CF2F  C9 00     CMP #$00                        A:00 X:55 Y:69 P:67 SP:F
CF31  D0 14     BNE $CF47                       A:00 X:55 Y:69 P:67 SP:F
CF33  B8        CLV                             A:00 X:55 Y:69 P:67 SP:F
CF34  38        SEC                             A:00 X:55 Y:69 P:27 SP:F
CF35  A9 55     LDA #$55                        A:00 X:55 Y:69 P:27 SP:F
CF37  0A        ASL A                           A:55 X:55 Y:69 P:25 SP:F
CF38  B0 0D     BCS $CF47                       A:AA X:55 Y:69 P:A4 SP:F
CF3A  F0 0B     BEQ $CF47                       A:AA X:55 Y:69 P:A4 SP:F
CF3C  10 09     BPL $CF47                       A:AA X:55 Y:69 P:A4 SP:F
CF3E  70 07     BVS $CF47                       A:AA X:55 Y:69 P:A4 SP:F
CF40  C9 AA     CMP #$AA                        A:AA X:55 Y:69 P:A4 SP:F
CF42  D0 03     BNE $CF47                       A:AA X:55 Y:69 P:27 SP:F
CF44  4C 4B CF  JMP $CF4B                       A:AA X:55 Y:69 P:27 SP:F
CF4B  EA        NOP                             A:AA X:55 Y:69 P:27 SP:F
CF4C  24 01     BIT $01 = FF                    A:AA X:55 Y:69 P:27 SP:F
CF4E  38        SEC                             A:AA X:55 Y:69 P:E5 SP:F
CF4F  A9 01     LDA #$01                        A:AA X:55 Y:69 P:E5 SP:F
CF51  6A        ROR A                           A:01 X:55 Y:69 P:65 SP:F
CF52  90 1E     BCC $CF72                       A:80 X:55 Y:69 P:E5 SP:F
CF54  F0 1C     BEQ $CF72                       A:80 X:55 Y:69 P:E5 SP:F
CF56  10 1A     BPL $CF72                       A:80 X:55 Y:69 P:E5 SP:F
CF58  50 18     BVC $CF72                       A:80 X:55 Y:69 P:E5 SP:F
CF5A  C9 80     CMP #$80                        A:80 X:55 Y:69 P:E5 SP:F
CF5C  D0 14     BNE $CF72                       A:80 X:55 Y:69 P:67 SP:F
CF5E  B8        CLV                             A:80 X:55 Y:69 P:67 SP:F
CF5F  18        CLC                             A:80 X:55 Y:69 P:27 SP:F
CF60  A9 55     LDA #$55                        A:80 X:55 Y:69 P:26 SP:F
CF62  6A        ROR A                           A:55 X:55 Y:69 P:24 SP:F
CF63  90 0D     BCC $CF72                       A:2A X:55 Y:69 P:25 SP:F
CF65  F0 0B     BEQ $CF72                       A:2A X:55 Y:69 P:25 SP:F
CF67  30 09     BMI $CF72                       A:2A X:55 Y:69 P:25 SP:F
CF69  70 07     BVS $CF72                       A:2A X:55 Y:69 P:25 SP:F
CF6B  C9 2A     CMP #$2A                        A:2A X:55 Y:69 P:25 SP:F
CF6D  D0 03     BNE $CF72                       A:2A X:55 Y:69 P:27 SP:F
CF6F  4C 76 CF  JMP $CF76                       A:2A X:55 Y:69 P:27 SP:F
CF76  EA        NOP                             A:2A X:55 Y:69 P:27 SP:F
CF77  24 01     BIT $01 = FF                    A:2A X:55 Y:69 P:27 SP:F
CF79  38        SEC                             A:2A X:55 Y:69 P:E5 SP:F
CF7A  A9 80     LDA #$80                        A:2A X:55 Y:69 P:E5 SP:F
CF7C  2A        ROL A                           A:80 X:55 Y:69 P:E5 SP:F
CF7D  90 1E     BCC $CF9D                       A:01 X:55 Y:69 P:65 SP:F
CF7F  F0 1C     BEQ $CF9D                       A:01 X:55 Y:69 P:65 SP:F
CF81  30 1A     BMI $CF9D                       A:01 X:55 Y:69 P:65 SP:F
CF83  50 18     BVC $CF9D                       A:01 X:55 Y:69 P:65 SP:F
CF85  C9 01     CMP #$01                        A:01 X:55 Y:69 P:65 SP:F
CF87  D0 14     BNE $CF9D                       A:01 X:55 Y:69 P:67 SP:F
CF89  B8        CLV                             A:01 X:55 Y:69 P:67 SP:F
CF8A  18        CLC                             A:01 X:55 Y:69 P:27 SP:F
CF8B  A9 55     LDA #$55                        A:01 X:55 Y:69 P:26 SP:F
CF8D  2A        ROL A                           A:55 X:55 Y:69 P:24 SP:F
CF8E  B0 0D     BCS $CF9D                       A:AA X:55 Y:69 P:A4 SP:F
CF90  F0 0B     BEQ $CF9D                       A:AA X:55 Y:69 P:A4 SP:F
CF92  10 09     BPL $CF9D                       A:AA X:55 Y:69 P:A4 SP:F
CF94  70 07     BVS $CF9D                       A:AA X:55 Y:69 P:A4 SP:F
CF96  C9 AA     CMP #$AA                        A:AA X:55 Y:69 P:A4 SP:F
CF98  D0 03     BNE $CF9D                       A:AA X:55 Y:69 P:27 SP:F
CF9A  4C A1 CF  JMP $CFA1                       A:AA X:55 Y:69 P:27 SP:F
CFA1  60        RTS                             A:AA X:55 Y:69 P:27 SP:F
C60F  20 A2 CF  JSR $CFA2                       A:AA X:55 Y:69 P:27 SP:F
CFA2  A5 00     LDA $00 = 00                    A:AA X:55 Y:69 P:27 SP:F
CFA4  8D FF 07  STA $07FF = FB                  A:00 X:55 Y:69 P:27 SP:F
CFA7  A9 00     LDA #$00                        A:00 X:55 Y:69 P:27 SP:F
CFA9  85 80     STA $80 = 00                    A:00 X:55 Y:69 P:27 SP:F
CFAB  A9 02     LDA #$02                        A:00 X:55 Y:69 P:27 SP:F
CFAD  85 81     STA $81 = 00                    A:02 X:55 Y:69 P:25 SP:F
CFAF  A9 FF     LDA #$FF                        A:02 X:55 Y:69 P:25 SP:F
CFB1  85 01     STA $01 = FF                    A:FF X:55 Y:69 P:A5 SP:F
CFB3  A9 00     LDA #$00                        A:FF X:55 Y:69 P:A5 SP:F
CFB5  85 82     STA $82 = 00                    A:00 X:55 Y:69 P:27 SP:F
CFB7  A9 03     LDA #$03                        A:00 X:55 Y:69 P:27 SP:F
CFB9  85 83     STA $83 = 00                    A:03 X:55 Y:69 P:25 SP:F
CFBB  85 84     STA $84 = 00                    A:03 X:55 Y:69 P:25 SP:F
CFBD  A9 00     LDA #$00                        A:03 X:55 Y:69 P:25 SP:F
CFBF  85 FF     STA $FF = 00                    A:00 X:55 Y:69 P:27 SP:F
CFC1  A9 04     LDA #$04                        A:00 X:55 Y:69 P:27 SP:F
CFC3  85 00     STA $00 = 00                    A:04 X:55 Y:69 P:25 SP:F
CFC5  A9 5A     LDA #$5A                        A:04 X:55 Y:69 P:25 SP:F
CFC7  8D 00 02  STA $0200 = 00                  A:5A X:55 Y:69 P:25 SP:F
CFCA  A9 5B     LDA #$5B                        A:5A X:55 Y:69 P:25 SP:F
CFCC  8D 00 03  STA $0300 = 00                  A:5B X:55 Y:69 P:25 SP:F
CFCF  A9 5C     LDA #$5C                        A:5B X:55 Y:69 P:25 SP:F
CFD1  8D 03 03  STA $0303 = 00                  A:5C X:55 Y:69 P:25 SP:F
CFD4  A9 5D     LDA #$5D                        A:5C X:55 Y:69 P:25 SP:F
CFD6  8D 00 04  STA $0400 = 00                  A:5D X:55 Y:69 P:25 SP:F
CFD9  A2 00     LDX #$00                        A:5D X:55 Y:69 P:25 SP:F
CFDB  A1 80     LDA ($80,X) @ 80 = 0200 = 5A    A:5D X:00 Y:69 P:27 SP:F
CFDD  C9 5A     CMP #$5A                        A:5A X:00 Y:69 P:25 SP:F
CFDF  D0 1F     BNE $D000                       A:5A X:00 Y:69 P:27 SP:F
CFE1  E8        INX                             A:5A X:00 Y:69 P:27 SP:F
CFE2  E8        INX                             A:5A X:01 Y:69 P:25 SP:F
CFE3  A1 80     LDA ($80,X) @ 82 = 0300 = 5B    A:5A X:02 Y:69 P:25 SP:F
CFE5  C9 5B     CMP #$5B                        A:5B X:02 Y:69 P:25 SP:F
CFE7  D0 17     BNE $D000                       A:5B X:02 Y:69 P:27 SP:F
CFE9  E8        INX                             A:5B X:02 Y:69 P:27 SP:F
CFEA  A1 80     LDA ($80,X) @ 83 = 0303 = 5C    A:5B X:03 Y:69 P:25 SP:F
CFEC  C9 5C     CMP #$5C                        A:5C X:03 Y:69 P:25 SP:F
CFEE  D0 10     BNE $D000                       A:5C X:03 Y:69 P:27 SP:F
CFF0  A2 00     LDX #$00                        A:5C X:03 Y:69 P:27 SP:F
CFF2  A1 FF     LDA ($FF,X) @ FF = 0400 = 5D    A:5C X:00 Y:69 P:27 SP:F
CFF4  C9 5D     CMP #$5D                        A:5D X:00 Y:69 P:25 SP:F
CFF6  D0 08     BNE $D000                       A:5D X:00 Y:69 P:27 SP:F
CFF8  A2 81     LDX #$81                        A:5D X:00 Y:69 P:27 SP:F
CFFA  A1 FF     LDA ($FF,X) @ 80 = 0200 = 5A    A:5D X:81 Y:69 P:A5 SP:F
CFFC  C9 5A     CMP #$5A                        A:5A X:81 Y:69 P:25 SP:F
CFFE  F0 05     BEQ $D005                       A:5A X:81 Y:69 P:27 SP:F
D005  A9 AA     LDA #$AA                        A:5A X:81 Y:69 P:27 SP:F
D007  A2 00     LDX #$00                        A:AA X:81 Y:69 P:A5 SP:F
D009  81 80     STA ($80,X) @ 80 = 0200 = 5A    A:AA X:00 Y:69 P:27 SP:F
D00B  E8        INX                             A:AA X:00 Y:69 P:27 SP:F
D00C  E8        INX                             A:AA X:01 Y:69 P:25 SP:F
D00D  A9 AB     LDA #$AB                        A:AA X:02 Y:69 P:25 SP:F
D00F  81 80     STA ($80,X) @ 82 = 0300 = 5B    A:AB X:02 Y:69 P:A5 SP:F
D011  E8        INX                             A:AB X:02 Y:69 P:A5 SP:F
D012  A9 AC     LDA #$AC                        A:AB X:03 Y:69 P:25 SP:F
D014  81 80     STA ($80,X) @ 83 = 0303 = 5C    A:AC X:03 Y:69 P:A5 SP:F
D016  A2 00     LDX #$00                        A:AC X:03 Y:69 P:A5 SP:F
D018  A9 AD     LDA #$AD                        A:AC X:00 Y:69 P:27 SP:F
D01A  81 FF     STA ($FF,X) @ FF = 0400 = 5D    A:AD X:00 Y:69 P:A5 SP:F
D01C  AD 00 02  LDA $0200 = AA                  A:AD X:00 Y:69 P:A5 SP:F
D01F  C9 AA     CMP #$AA                        A:AA X:00 Y:69 P:A5 SP:F
D021  D0 15     BNE $D038                       A:AA X:00 Y:69 P:27 SP:F
D023  AD 00 03  LDA $0300 = AB                  A:AA X:00 Y:69 P:27 SP:F
D026  C9 AB     CMP #$AB                        A:AB X:00 Y:69 P:A5 SP:F
D028  D0 0E     BNE $D038                       A:AB X:00 Y:69 P:27 SP:F
D02A  AD 03 03  LDA $0303 = AC                  A:AB X:00 Y:69 P:27 SP:F
D02D  C9 AC     CMP #$AC                        A:AC X:00 Y:69 P:A5 SP:F
D02F  D0 07     BNE $D038                       A:AC X:00 Y:69 P:27 SP:F
D031  AD 00 04  LDA $0400 = AD                  A:AC X:00 Y:69 P:27 SP:F
D034  C9 AD     CMP #$AD                        A:AD X:00 Y:69 P:A5 SP:F
D036  F0 05     BEQ $D03D                       A:AD X:00 Y:69 P:27 SP:F
D03D  AD FF 07  LDA $07FF = 00                  A:AD X:00 Y:69 P:27 SP:F
D040  85 00     STA $00 = 04                    A:00 X:00 Y:69 P:27 SP:F
D042  A9 00     LDA #$00                        A:00 X:00 Y:69 P:27 SP:F
D044  8D 00 03  STA $0300 = AB                  A:00 X:00 Y:69 P:27 SP:F
D047  A9 AA     LDA #$AA                        A:00 X:00 Y:69 P:27 SP:F
D049  8D 00 02  STA $0200 = AA                  A:AA X:00 Y:69 P:A5 SP:F
D04C  A2 00     LDX #$00                        A:AA X:00 Y:69 P:A5 SP:F
D04E  A0 5A     LDY #$5A                        A:AA X:00 Y:69 P:27 SP:F
D050  20 B6 F7  JSR $F7B6                       A:AA X:00 Y:5A P:25 SP:F
F7B6  18        CLC                             A:AA X:00 Y:5A P:25 SP:F
F7B7  A9 FF     LDA #$FF                        A:AA X:00 Y:5A P:24 SP:F
F7B9  85 01     STA $01 = FF                    A:FF X:00 Y:5A P:A4 SP:F
F7BB  24 01     BIT $01 = FF                    A:FF X:00 Y:5A P:A4 SP:F
F7BD  A9 55     LDA #$55                        A:FF X:00 Y:5A P:E4 SP:F
F7BF  60        RTS                             A:55 X:00 Y:5A P:64 SP:F
D053  01 80     ORA ($80,X) @ 80 = 0200 = AA    A:55 X:00 Y:5A P:64 SP:F
D055  20 C0 F7  JSR $F7C0                       A:FF X:00 Y:5A P:E4 SP:F
F7C0  B0 09     BCS $F7CB                       A:FF X:00 Y:5A P:E4 SP:F
F7C2  10 07     BPL $F7CB                       A:FF X:00 Y:5A P:E4 SP:F
F7C4  C9 FF     CMP #$FF                        A:FF X:00 Y:5A P:E4 SP:F
F7C6  D0 03     BNE $F7CB                       A:FF X:00 Y:5A P:67 SP:F
F7C8  50 01     BVC $F7CB                       A:FF X:00 Y:5A P:67 SP:F
F7CA  60        RTS                             A:FF X:00 Y:5A P:67 SP:F
D058  C8        INY                             A:FF X:00 Y:5A P:67 SP:F
D059  20 CE F7  JSR $F7CE                       A:FF X:00 Y:5B P:65 SP:F
F7CE  38        SEC                             A:FF X:00 Y:5B P:65 SP:F
F7CF  B8        CLV                             A:FF X:00 Y:5B P:65 SP:F
F7D0  A9 00     LDA #$00                        A:FF X:00 Y:5B P:25 SP:F
F7D2  60        RTS                             A:00 X:00 Y:5B P:27 SP:F
D05C  01 82     ORA ($82,X) @ 82 = 0300 = 00    A:00 X:00 Y:5B P:27 SP:F
D05E  20 D3 F7  JSR $F7D3                       A:00 X:00 Y:5B P:27 SP:F
F7D3  D0 07     BNE $F7DC                       A:00 X:00 Y:5B P:27 SP:F
F7D5  70 05     BVS $F7DC                       A:00 X:00 Y:5B P:27 SP:F
F7D7  90 03     BCC $F7DC                       A:00 X:00 Y:5B P:27 SP:F
F7D9  30 01     BMI $F7DC                       A:00 X:00 Y:5B P:27 SP:F
F7DB  60        RTS                             A:00 X:00 Y:5B P:27 SP:F
D061  C8        INY                             A:00 X:00 Y:5B P:27 SP:F
D062  20 DF F7  JSR $F7DF                       A:00 X:00 Y:5C P:25 SP:F
F7DF  18        CLC                             A:00 X:00 Y:5C P:25 SP:F
F7E0  24 01     BIT $01 = FF                    A:00 X:00 Y:5C P:24 SP:F
F7E2  A9 55     LDA #$55                        A:00 X:00 Y:5C P:E6 SP:F
F7E4  60        RTS                             A:55 X:00 Y:5C P:64 SP:F
D065  21 80     AND ($80,X) @ 80 = 0200 = AA    A:55 X:00 Y:5C P:64 SP:F
D067  20 E5 F7  JSR $F7E5                       A:00 X:00 Y:5C P:66 SP:F
F7E5  D0 07     BNE $F7EE                       A:00 X:00 Y:5C P:66 SP:F
F7E7  50 05     BVC $F7EE                       A:00 X:00 Y:5C P:66 SP:F
F7E9  B0 03     BCS $F7EE                       A:00 X:00 Y:5C P:66 SP:F
F7EB  30 01     BMI $F7EE                       A:00 X:00 Y:5C P:66 SP:F
F7ED  60        RTS                             A:00 X:00 Y:5C P:66 SP:F
D06A  C8        INY                             A:00 X:00 Y:5C P:66 SP:F
D06B  A9 EF     LDA #$EF                        A:00 X:00 Y:5D P:64 SP:F
D06D  8D 00 03  STA $0300 = 00                  A:EF X:00 Y:5D P:E4 SP:F
D070  20 F1 F7  JSR $F7F1                       A:EF X:00 Y:5D P:E4 SP:F
F7F1  38        SEC                             A:EF X:00 Y:5D P:E4 SP:F
F7F2  B8        CLV                             A:EF X:00 Y:5D P:E5 SP:F
F7F3  A9 F8     LDA #$F8                        A:EF X:00 Y:5D P:A5 SP:F
F7F5  60        RTS                             A:F8 X:00 Y:5D P:A5 SP:F
D073  21 82     AND ($82,X) @ 82 = 0300 = EF    A:F8 X:00 Y:5D P:A5 SP:F
D075  20 F6 F7  JSR $F7F6                       A:E8 X:00 Y:5D P:A5 SP:F
F7F6  90 09     BCC $F801                       A:E8 X:00 Y:5D P:A5 SP:F
F7F8  10 07     BPL $F801                       A:E8 X:00 Y:5D P:A5 SP:F
F7FA  C9 E8     CMP #$E8                        A:E8 X:00 Y:5D P:A5 SP:F
F7FC  D0 03     BNE $F801                       A:E8 X:00 Y:5D P:27 SP:F
F7FE  70 01     BVS $F801                       A:E8 X:00 Y:5D P:27 SP:F
F800  60        RTS                             A:E8 X:00 Y:5D P:27 SP:F
D078  C8        INY                             A:E8 X:00 Y:5D P:27 SP:F
D079  20 04 F8  JSR $F804                       A:E8 X:00 Y:5E P:25 SP:F
F804  18        CLC                             A:E8 X:00 Y:5E P:25 SP:F
F805  24 01     BIT $01 = FF                    A:E8 X:00 Y:5E P:24 SP:F
F807  A9 5F     LDA #$5F                        A:E8 X:00 Y:5E P:E4 SP:F
F809  60        RTS                             A:5F X:00 Y:5E P:64 SP:F
D07C  41 80     EOR ($80,X) @ 80 = 0200 = AA    A:5F X:00 Y:5E P:64 SP:F
D07E  20 0A F8  JSR $F80A                       A:F5 X:00 Y:5E P:E4 SP:F
F80A  B0 09     BCS $F815                       A:F5 X:00 Y:5E P:E4 SP:F
F80C  10 07     BPL $F815                       A:F5 X:00 Y:5E P:E4 SP:F
F80E  C9 F5     CMP #$F5                        A:F5 X:00 Y:5E P:E4 SP:F
F810  D0 03     BNE $F815                       A:F5 X:00 Y:5E P:67 SP:F
F812  50 01     BVC $F815                       A:F5 X:00 Y:5E P:67 SP:F
F814  60        RTS                             A:F5 X:00 Y:5E P:67 SP:F
D081  C8        INY                             A:F5 X:00 Y:5E P:67 SP:F
D082  A9 70     LDA #$70                        A:F5 X:00 Y:5F P:65 SP:F
D084  8D 00 03  STA $0300 = EF                  A:70 X:00 Y:5F P:65 SP:F
D087  20 18 F8  JSR $F818                       A:70 X:00 Y:5F P:65 SP:F
F818  38        SEC                             A:70 X:00 Y:5F P:65 SP:F
F819  B8        CLV                             A:70 X:00 Y:5F P:65 SP:F
F81A  A9 70     LDA #$70                        A:70 X:00 Y:5F P:25 SP:F
F81C  60        RTS                             A:70 X:00 Y:5F P:25 SP:F
D08A  41 82     EOR ($82,X) @ 82 = 0300 = 70    A:70 X:00 Y:5F P:25 SP:F
D08C  20 1D F8  JSR $F81D                       A:00 X:00 Y:5F P:27 SP:F
F81D  D0 07     BNE $F826                       A:00 X:00 Y:5F P:27 SP:F
F81F  70 05     BVS $F826                       A:00 X:00 Y:5F P:27 SP:F
F821  90 03     BCC $F826                       A:00 X:00 Y:5F P:27 SP:F
F823  30 01     BMI $F826                       A:00 X:00 Y:5F P:27 SP:F
F825  60        RTS                             A:00 X:00 Y:5F P:27 SP:F
D08F  C8        INY                             A:00 X:00 Y:5F P:27 SP:F
D090  A9 69     LDA #$69                        A:00 X:00 Y:60 P:25 SP:F
D092  8D 00 02  STA $0200 = AA                  A:69 X:00 Y:60 P:25 SP:F
D095  20 29 F8  JSR $F829                       A:69 X:00 Y:60 P:25 SP:F
F829  18        CLC                             A:69 X:00 Y:60 P:25 SP:F
F82A  24 01     BIT $01 = FF                    A:69 X:00 Y:60 P:24 SP:F
F82C  A9 00     LDA #$00                        A:69 X:00 Y:60 P:E4 SP:F
F82E  60        RTS                             A:00 X:00 Y:60 P:66 SP:F
D098  61 80     ADC ($80,X) @ 80 = 0200 = 69    A:00 X:00 Y:60 P:66 SP:F
D09A  20 2F F8  JSR $F82F                       A:69 X:00 Y:60 P:24 SP:F
F82F  30 09     BMI $F83A                       A:69 X:00 Y:60 P:24 SP:F
F831  B0 07     BCS $F83A                       A:69 X:00 Y:60 P:24 SP:F
F833  C9 69     CMP #$69                        A:69 X:00 Y:60 P:24 SP:F
F835  D0 03     BNE $F83A                       A:69 X:00 Y:60 P:27 SP:F
F837  70 01     BVS $F83A                       A:69 X:00 Y:60 P:27 SP:F
F839  60        RTS                             A:69 X:00 Y:60 P:27 SP:F
D09D  C8        INY                             A:69 X:00 Y:60 P:27 SP:F
D09E  20 3D F8  JSR $F83D                       A:69 X:00 Y:61 P:25 SP:F
F83D  38        SEC                             A:69 X:00 Y:61 P:25 SP:F
F83E  24 01     BIT $01 = FF                    A:69 X:00 Y:61 P:25 SP:F
F840  A9 00     LDA #$00                        A:69 X:00 Y:61 P:E5 SP:F
F842  60        RTS                             A:00 X:00 Y:61 P:67 SP:F
D0A1  61 80     ADC ($80,X) @ 80 = 0200 = 69    A:00 X:00 Y:61 P:67 SP:F
D0A3  20 43 F8  JSR $F843                       A:6A X:00 Y:61 P:24 SP:F
F843  30 09     BMI $F84E                       A:6A X:00 Y:61 P:24 SP:F
F845  B0 07     BCS $F84E                       A:6A X:00 Y:61 P:24 SP:F
F847  C9 6A     CMP #$6A                        A:6A X:00 Y:61 P:24 SP:F
F849  D0 03     BNE $F84E                       A:6A X:00 Y:61 P:27 SP:F
F84B  70 01     BVS $F84E                       A:6A X:00 Y:61 P:27 SP:F
F84D  60        RTS                             A:6A X:00 Y:61 P:27 SP:F
D0A6  C8        INY                             A:6A X:00 Y:61 P:27 SP:F
D0A7  A9 7F     LDA #$7F                        A:6A X:00 Y:62 P:25 SP:F
D0A9  8D 00 02  STA $0200 = 69                  A:7F X:00 Y:62 P:25 SP:F
D0AC  20 51 F8  JSR $F851                       A:7F X:00 Y:62 P:25 SP:F
F851  38        SEC                             A:7F X:00 Y:62 P:25 SP:F
F852  B8        CLV                             A:7F X:00 Y:62 P:25 SP:F
F853  A9 7F     LDA #$7F                        A:7F X:00 Y:62 P:25 SP:F
F855  60        RTS                             A:7F X:00 Y:62 P:25 SP:F
D0AF  61 80     ADC ($80,X) @ 80 = 0200 = 7F    A:7F X:00 Y:62 P:25 SP:F
D0B1  20 56 F8  JSR $F856                       A:FF X:00 Y:62 P:E4 SP:F
F856  10 09     BPL $F861                       A:FF X:00 Y:62 P:E4 SP:F
F858  B0 07     BCS $F861                       A:FF X:00 Y:62 P:E4 SP:F
F85A  C9 FF     CMP #$FF                        A:FF X:00 Y:62 P:E4 SP:F
F85C  D0 03     BNE $F861                       A:FF X:00 Y:62 P:67 SP:F
F85E  50 01     BVC $F861                       A:FF X:00 Y:62 P:67 SP:F
F860  60        RTS                             A:FF X:00 Y:62 P:67 SP:F
D0B4  C8        INY                             A:FF X:00 Y:62 P:67 SP:F
D0B5  A9 80     LDA #$80                        A:FF X:00 Y:63 P:65 SP:F
D0B7  8D 00 02  STA $0200 = 7F                  A:80 X:00 Y:63 P:E5 SP:F
D0BA  20 64 F8  JSR $F864                       A:80 X:00 Y:63 P:E5 SP:F
F864  18        CLC                             A:80 X:00 Y:63 P:E5 SP:F
F865  24 01     BIT $01 = FF                    A:80 X:00 Y:63 P:E4 SP:F
F867  A9 7F     LDA #$7F                        A:80 X:00 Y:63 P:E4 SP:F
F869  60        RTS                             A:7F X:00 Y:63 P:64 SP:F
D0BD  61 80     ADC ($80,X) @ 80 = 0200 = 80    A:7F X:00 Y:63 P:64 SP:F
D0BF  20 6A F8  JSR $F86A                       A:FF X:00 Y:63 P:A4 SP:F
F86A  10 09     BPL $F875                       A:FF X:00 Y:63 P:A4 SP:F
F86C  B0 07     BCS $F875                       A:FF X:00 Y:63 P:A4 SP:F
F86E  C9 FF     CMP #$FF                        A:FF X:00 Y:63 P:A4 SP:F
F870  D0 03     BNE $F875                       A:FF X:00 Y:63 P:27 SP:F
F872  70 01     BVS $F875                       A:FF X:00 Y:63 P:27 SP:F
F874  60        RTS                             A:FF X:00 Y:63 P:27 SP:F
D0C2  C8        INY                             A:FF X:00 Y:63 P:27 SP:F
D0C3  20 78 F8  JSR $F878                       A:FF X:00 Y:64 P:25 SP:F
F878  38        SEC                             A:FF X:00 Y:64 P:25 SP:F
F879  B8        CLV                             A:FF X:00 Y:64 P:25 SP:F
F87A  A9 7F     LDA #$7F                        A:FF X:00 Y:64 P:25 SP:F
F87C  60        RTS                             A:7F X:00 Y:64 P:25 SP:F
D0C6  61 80     ADC ($80,X) @ 80 = 0200 = 80    A:7F X:00 Y:64 P:25 SP:F
D0C8  20 7D F8  JSR $F87D                       A:00 X:00 Y:64 P:27 SP:F
F87D  D0 07     BNE $F886                       A:00 X:00 Y:64 P:27 SP:F
F87F  30 05     BMI $F886                       A:00 X:00 Y:64 P:27 SP:F
F881  70 03     BVS $F886                       A:00 X:00 Y:64 P:27 SP:F
F883  90 01     BCC $F886                       A:00 X:00 Y:64 P:27 SP:F
F885  60        RTS                             A:00 X:00 Y:64 P:27 SP:F
D0CB  C8        INY                             A:00 X:00 Y:64 P:27 SP:F
D0CC  A9 40     LDA #$40                        A:00 X:00 Y:65 P:25 SP:F
D0CE  8D 00 02  STA $0200 = 80                  A:40 X:00 Y:65 P:25 SP:F
D0D1  20 89 F8  JSR $F889                       A:40 X:00 Y:65 P:25 SP:F
F889  24 01     BIT $01 = FF                    A:40 X:00 Y:65 P:25 SP:F
F88B  A9 40     LDA #$40                        A:40 X:00 Y:65 P:E5 SP:F
F88D  60        RTS                             A:40 X:00 Y:65 P:65 SP:F
D0D4  C1 80     CMP ($80,X) @ 80 = 0200 = 40    A:40 X:00 Y:65 P:65 SP:F
D0D6  20 8E F8  JSR $F88E                       A:40 X:00 Y:65 P:67 SP:F
F88E  30 07     BMI $F897                       A:40 X:00 Y:65 P:67 SP:F
F890  90 05     BCC $F897                       A:40 X:00 Y:65 P:67 SP:F
F892  D0 03     BNE $F897                       A:40 X:00 Y:65 P:67 SP:F
F894  50 01     BVC $F897                       A:40 X:00 Y:65 P:67 SP:F
F896  60        RTS                             A:40 X:00 Y:65 P:67 SP:F
D0D9  C8        INY                             A:40 X:00 Y:65 P:67 SP:F
D0DA  48        PHA                             A:40 X:00 Y:66 P:65 SP:F
D0DB  A9 3F     LDA #$3F                        A:40 X:00 Y:66 P:65 SP:F
D0DD  8D 00 02  STA $0200 = 40                  A:3F X:00 Y:66 P:65 SP:F
D0E0  68        PLA                             A:3F X:00 Y:66 P:65 SP:F
D0E1  20 9A F8  JSR $F89A                       A:40 X:00 Y:66 P:65 SP:F
F89A  B8        CLV                             A:40 X:00 Y:66 P:65 SP:F
F89B  60        RTS                             A:40 X:00 Y:66 P:25 SP:F
D0E4  C1 80     CMP ($80,X) @ 80 = 0200 = 3F    A:40 X:00 Y:66 P:25 SP:F
D0E6  20 9C F8  JSR $F89C                       A:40 X:00 Y:66 P:25 SP:F
F89C  F0 07     BEQ $F8A5                       A:40 X:00 Y:66 P:25 SP:F
F89E  30 05     BMI $F8A5                       A:40 X:00 Y:66 P:25 SP:F
F8A0  90 03     BCC $F8A5                       A:40 X:00 Y:66 P:25 SP:F
F8A2  70 01     BVS $F8A5                       A:40 X:00 Y:66 P:25 SP:F
F8A4  60        RTS                             A:40 X:00 Y:66 P:25 SP:F
D0E9  C8        INY                             A:40 X:00 Y:66 P:25 SP:F
D0EA  48        PHA                             A:40 X:00 Y:67 P:25 SP:F
D0EB  A9 41     LDA #$41                        A:40 X:00 Y:67 P:25 SP:F
D0ED  8D 00 02  STA $0200 = 3F                  A:41 X:00 Y:67 P:25 SP:F
D0F0  68        PLA                             A:41 X:00 Y:67 P:25 SP:F
D0F1  C1 80     CMP ($80,X) @ 80 = 0200 = 41    A:40 X:00 Y:67 P:25 SP:F
D0F3  20 A8 F8  JSR $F8A8                       A:40 X:00 Y:67 P:A4 SP:F
F8A8  F0 05     BEQ $F8AF                       A:40 X:00 Y:67 P:A4 SP:F
F8AA  10 03     BPL $F8AF                       A:40 X:00 Y:67 P:A4 SP:F
F8AC  10 01     BPL $F8AF                       A:40 X:00 Y:67 P:A4 SP:F
F8AE  60        RTS                             A:40 X:00 Y:67 P:A4 SP:F
D0F6  C8        INY                             A:40 X:00 Y:67 P:A4 SP:F
D0F7  48        PHA                             A:40 X:00 Y:68 P:24 SP:F
D0F8  A9 00     LDA #$00                        A:40 X:00 Y:68 P:24 SP:F
D0FA  8D 00 02  STA $0200 = 41                  A:00 X:00 Y:68 P:26 SP:F
D0FD  68        PLA                             A:00 X:00 Y:68 P:26 SP:F
D0FE  20 B2 F8  JSR $F8B2                       A:40 X:00 Y:68 P:24 SP:F
F8B2  A9 80     LDA #$80                        A:40 X:00 Y:68 P:24 SP:F
F8B4  60        RTS                             A:80 X:00 Y:68 P:A4 SP:F
D101  C1 80     CMP ($80,X) @ 80 = 0200 = 00    A:80 X:00 Y:68 P:A4 SP:F
D103  20 B5 F8  JSR $F8B5                       A:80 X:00 Y:68 P:A5 SP:F
F8B5  F0 05     BEQ $F8BC                       A:80 X:00 Y:68 P:A5 SP:F
F8B7  10 03     BPL $F8BC                       A:80 X:00 Y:68 P:A5 SP:F
F8B9  90 01     BCC $F8BC                       A:80 X:00 Y:68 P:A5 SP:F
F8BB  60        RTS                             A:80 X:00 Y:68 P:A5 SP:F
D106  C8        INY                             A:80 X:00 Y:68 P:A5 SP:F
D107  48        PHA                             A:80 X:00 Y:69 P:25 SP:F
D108  A9 80     LDA #$80                        A:80 X:00 Y:69 P:25 SP:F
D10A  8D 00 02  STA $0200 = 00                  A:80 X:00 Y:69 P:A5 SP:F
D10D  68        PLA                             A:80 X:00 Y:69 P:A5 SP:F
D10E  C1 80     CMP ($80,X) @ 80 = 0200 = 80    A:80 X:00 Y:69 P:A5 SP:F
D110  20 BF F8  JSR $F8BF                       A:80 X:00 Y:69 P:27 SP:F
F8BF  D0 05     BNE $F8C6                       A:80 X:00 Y:69 P:27 SP:F
F8C1  30 03     BMI $F8C6                       A:80 X:00 Y:69 P:27 SP:F
F8C3  90 01     BCC $F8C6                       A:80 X:00 Y:69 P:27 SP:F
F8C5  60        RTS                             A:80 X:00 Y:69 P:27 SP:F
D113  C8        INY                             A:80 X:00 Y:69 P:27 SP:F
D114  48        PHA                             A:80 X:00 Y:6A P:25 SP:F
D115  A9 81     LDA #$81                        A:80 X:00 Y:6A P:25 SP:F
D117  8D 00 02  STA $0200 = 80                  A:81 X:00 Y:6A P:A5 SP:F
D11A  68        PLA                             A:81 X:00 Y:6A P:A5 SP:F
D11B  C1 80     CMP ($80,X) @ 80 = 0200 = 81    A:80 X:00 Y:6A P:A5 SP:F
D11D  20 C9 F8  JSR $F8C9                       A:80 X:00 Y:6A P:A4 SP:F
F8C9  B0 05     BCS $F8D0                       A:80 X:00 Y:6A P:A4 SP:F
F8CB  F0 03     BEQ $F8D0                       A:80 X:00 Y:6A P:A4 SP:F
F8CD  10 01     BPL $F8D0                       A:80 X:00 Y:6A P:A4 SP:F
F8CF  60        RTS                             A:80 X:00 Y:6A P:A4 SP:F
D120  C8        INY                             A:80 X:00 Y:6A P:A4 SP:F
D121  48        PHA                             A:80 X:00 Y:6B P:24 SP:F
D122  A9 7F     LDA #$7F                        A:80 X:00 Y:6B P:24 SP:F
D124  8D 00 02  STA $0200 = 81                  A:7F X:00 Y:6B P:24 SP:F
D127  68        PLA                             A:7F X:00 Y:6B P:24 SP:F
D128  C1 80     CMP ($80,X) @ 80 = 0200 = 7F    A:80 X:00 Y:6B P:A4 SP:F
D12A  20 D3 F8  JSR $F8D3                       A:80 X:00 Y:6B P:25 SP:F
F8D3  90 05     BCC $F8DA                       A:80 X:00 Y:6B P:25 SP:F
F8D5  F0 03     BEQ $F8DA                       A:80 X:00 Y:6B P:25 SP:F
F8D7  30 01     BMI $F8DA                       A:80 X:00 Y:6B P:25 SP:F
F8D9  60        RTS                             A:80 X:00 Y:6B P:25 SP:F
D12D  C8        INY                             A:80 X:00 Y:6B P:25 SP:F
D12E  A9 40     LDA #$40                        A:80 X:00 Y:6C P:25 SP:F
D130  8D 00 02  STA $0200 = 7F                  A:40 X:00 Y:6C P:25 SP:F
D133  20 31 F9  JSR $F931                       A:40 X:00 Y:6C P:25 SP:F
F931  24 01     BIT $01 = FF                    A:40 X:00 Y:6C P:25 SP:F
F933  A9 40     LDA #$40                        A:40 X:00 Y:6C P:E5 SP:F
F935  38        SEC                             A:40 X:00 Y:6C P:65 SP:F
F936  60        RTS                             A:40 X:00 Y:6C P:65 SP:F
D136  E1 80     SBC ($80,X) @ 80 = 0200 = 40    A:40 X:00 Y:6C P:65 SP:F
D138  20 37 F9  JSR $F937                       A:00 X:00 Y:6C P:27 SP:F
F937  30 0B     BMI $F944                       A:00 X:00 Y:6C P:27 SP:F
F939  90 09     BCC $F944                       A:00 X:00 Y:6C P:27 SP:F
F93B  D0 07     BNE $F944                       A:00 X:00 Y:6C P:27 SP:F
F93D  70 05     BVS $F944                       A:00 X:00 Y:6C P:27 SP:F
F93F  C9 00     CMP #$00                        A:00 X:00 Y:6C P:27 SP:F
F941  D0 01     BNE $F944                       A:00 X:00 Y:6C P:27 SP:F
F943  60        RTS                             A:00 X:00 Y:6C P:27 SP:F
D13B  C8        INY                             A:00 X:00 Y:6C P:27 SP:F
D13C  A9 3F     LDA #$3F                        A:00 X:00 Y:6D P:25 SP:F
D13E  8D 00 02  STA $0200 = 40                  A:3F X:00 Y:6D P:25 SP:F
D141  20 47 F9  JSR $F947                       A:3F X:00 Y:6D P:25 SP:F
F947  B8        CLV                             A:3F X:00 Y:6D P:25 SP:F
F948  38        SEC                             A:3F X:00 Y:6D P:25 SP:F
F949  A9 40     LDA #$40                        A:3F X:00 Y:6D P:25 SP:F
F94B  60        RTS                             A:40 X:00 Y:6D P:25 SP:F
D144  E1 80     SBC ($80,X) @ 80 = 0200 = 3F    A:40 X:00 Y:6D P:25 SP:F
D146  20 4C F9  JSR $F94C                       A:01 X:00 Y:6D P:25 SP:F
F94C  F0 0B     BEQ $F959                       A:01 X:00 Y:6D P:25 SP:F
F94E  30 09     BMI $F959                       A:01 X:00 Y:6D P:25 SP:F
F950  90 07     BCC $F959                       A:01 X:00 Y:6D P:25 SP:F
F952  70 05     BVS $F959                       A:01 X:00 Y:6D P:25 SP:F
F954  C9 01     CMP #$01                        A:01 X:00 Y:6D P:25 SP:F
F956  D0 01     BNE $F959                       A:01 X:00 Y:6D P:27 SP:F
F958  60        RTS                             A:01 X:00 Y:6D P:27 SP:F
D149  C8        INY                             A:01 X:00 Y:6D P:27 SP:F
D14A  A9 41     LDA #$41                        A:01 X:00 Y:6E P:25 SP:F
D14C  8D 00 02  STA $0200 = 3F                  A:41 X:00 Y:6E P:25 SP:F
D14F  20 5C F9  JSR $F95C                       A:41 X:00 Y:6E P:25 SP:F
F95C  A9 40     LDA #$40                        A:41 X:00 Y:6E P:25 SP:F
F95E  38        SEC                             A:40 X:00 Y:6E P:25 SP:F
F95F  24 01     BIT $01 = FF                    A:40 X:00 Y:6E P:25 SP:F
F961  60        RTS                             A:40 X:00 Y:6E P:E5 SP:F
D152  E1 80     SBC ($80,X) @ 80 = 0200 = 41    A:40 X:00 Y:6E P:E5 SP:F
D154  20 62 F9  JSR $F962                       A:FF X:00 Y:6E P:A4 SP:F
F962  B0 0B     BCS $F96F                       A:FF X:00 Y:6E P:A4 SP:F
F964  F0 09     BEQ $F96F                       A:FF X:00 Y:6E P:A4 SP:F
F966  10 07     BPL $F96F                       A:FF X:00 Y:6E P:A4 SP:F
F968  70 05     BVS $F96F                       A:FF X:00 Y:6E P:A4 SP:F
F96A  C9 FF     CMP #$FF                        A:FF X:00 Y:6E P:A4 SP:F
F96C  D0 01     BNE $F96F                       A:FF X:00 Y:6E P:27 SP:F
F96E  60        RTS                             A:FF X:00 Y:6E P:27 SP:F
D157  C8        INY                             A:FF X:00 Y:6E P:27 SP:F
D158  A9 00     LDA #$00                        A:FF X:00 Y:6F P:25 SP:F
D15A  8D 00 02  STA $0200 = 41                  A:00 X:00 Y:6F P:27 SP:F
D15D  20 72 F9  JSR $F972                       A:00 X:00 Y:6F P:27 SP:F
F972  18        CLC                             A:00 X:00 Y:6F P:27 SP:F
F973  A9 80     LDA #$80                        A:00 X:00 Y:6F P:26 SP:F
F975  60        RTS                             A:80 X:00 Y:6F P:A4 SP:F
D160  E1 80     SBC ($80,X) @ 80 = 0200 = 00    A:80 X:00 Y:6F P:A4 SP:F
D162  20 76 F9  JSR $F976                       A:7F X:00 Y:6F P:65 SP:F
F976  90 05     BCC $F97D                       A:7F X:00 Y:6F P:65 SP:F
F978  C9 7F     CMP #$7F                        A:7F X:00 Y:6F P:65 SP:F
F97A  D0 01     BNE $F97D                       A:7F X:00 Y:6F P:67 SP:F
F97C  60        RTS                             A:7F X:00 Y:6F P:67 SP:F
D165  C8        INY                             A:7F X:00 Y:6F P:67 SP:F
D166  A9 7F     LDA #$7F                        A:7F X:00 Y:70 P:65 SP:F
D168  8D 00 02  STA $0200 = 00                  A:7F X:00 Y:70 P:65 SP:F
D16B  20 80 F9  JSR $F980                       A:7F X:00 Y:70 P:65 SP:F
F980  38        SEC                             A:7F X:00 Y:70 P:65 SP:F
F981  A9 81     LDA #$81                        A:7F X:00 Y:70 P:65 SP:F
F983  60        RTS                             A:81 X:00 Y:70 P:E5 SP:F
D16E  E1 80     SBC ($80,X) @ 80 = 0200 = 7F    A:81 X:00 Y:70 P:E5 SP:F
D170  20 84 F9  JSR $F984                       A:02 X:00 Y:70 P:65 SP:F
F984  50 07     BVC $F98D                       A:02 X:00 Y:70 P:65 SP:F
F986  90 05     BCC $F98D                       A:02 X:00 Y:70 P:65 SP:F
F988  C9 02     CMP #$02                        A:02 X:00 Y:70 P:65 SP:F
F98A  D0 01     BNE $F98D                       A:02 X:00 Y:70 P:67 SP:F
F98C  60        RTS                             A:02 X:00 Y:70 P:67 SP:F
D173  60        RTS                             A:02 X:00 Y:70 P:67 SP:F
C612  20 74 D1  JSR $D174                       A:02 X:00 Y:70 P:67 SP:F
D174  A9 55     LDA #$55                        A:02 X:00 Y:70 P:67 SP:F
D176  85 78     STA $78 = 00                    A:55 X:00 Y:70 P:65 SP:F
D178  A9 FF     LDA #$FF                        A:55 X:00 Y:70 P:65 SP:F
D17A  85 01     STA $01 = FF                    A:FF X:00 Y:70 P:E5 SP:F
D17C  24 01     BIT $01 = FF                    A:FF X:00 Y:70 P:E5 SP:F
D17E  A0 11     LDY #$11                        A:FF X:00 Y:70 P:E5 SP:F
D180  A2 23     LDX #$23                        A:FF X:00 Y:11 P:65 SP:F
D182  A9 00     LDA #$00                        A:FF X:23 Y:11 P:65 SP:F
D184  A5 78     LDA $78 = 55                    A:00 X:23 Y:11 P:67 SP:F
D186  F0 10     BEQ $D198                       A:55 X:23 Y:11 P:65 SP:F
D188  30 0E     BMI $D198                       A:55 X:23 Y:11 P:65 SP:F
D18A  C9 55     CMP #$55                        A:55 X:23 Y:11 P:65 SP:F
D18C  D0 0A     BNE $D198                       A:55 X:23 Y:11 P:67 SP:F
D18E  C0 11     CPY #$11                        A:55 X:23 Y:11 P:67 SP:F
D190  D0 06     BNE $D198                       A:55 X:23 Y:11 P:67 SP:F
D192  E0 23     CPX #$23                        A:55 X:23 Y:11 P:67 SP:F
D194  50 02     BVC $D198                       A:55 X:23 Y:11 P:67 SP:F
D196  F0 04     BEQ $D19C                       A:55 X:23 Y:11 P:67 SP:F
D19C  A9 46     LDA #$46                        A:55 X:23 Y:11 P:67 SP:F
D19E  24 01     BIT $01 = FF                    A:46 X:23 Y:11 P:65 SP:F
D1A0  85 78     STA $78 = 55                    A:46 X:23 Y:11 P:E5 SP:F
D1A2  F0 0A     BEQ $D1AE                       A:46 X:23 Y:11 P:E5 SP:F
D1A4  10 08     BPL $D1AE                       A:46 X:23 Y:11 P:E5 SP:F
D1A6  50 06     BVC $D1AE                       A:46 X:23 Y:11 P:E5 SP:F
D1A8  A5 78     LDA $78 = 46                    A:46 X:23 Y:11 P:E5 SP:F
D1AA  C9 46     CMP #$46                        A:46 X:23 Y:11 P:65 SP:F
D1AC  F0 04     BEQ $D1B2                       A:46 X:23 Y:11 P:67 SP:F
D1B2  A9 55     LDA #$55                        A:46 X:23 Y:11 P:67 SP:F
D1B4  85 78     STA $78 = 46                    A:55 X:23 Y:11 P:65 SP:F
D1B6  24 01     BIT $01 = FF                    A:55 X:23 Y:11 P:65 SP:F
D1B8  A9 11     LDA #$11                        A:55 X:23 Y:11 P:E5 SP:F
D1BA  A2 23     LDX #$23                        A:11 X:23 Y:11 P:65 SP:F
D1BC  A0 00     LDY #$00                        A:11 X:23 Y:11 P:65 SP:F
D1BE  A4 78     LDY $78 = 55                    A:11 X:23 Y:00 P:67 SP:F
D1C0  F0 10     BEQ $D1D2                       A:11 X:23 Y:55 P:65 SP:F
D1C2  30 0E     BMI $D1D2                       A:11 X:23 Y:55 P:65 SP:F
D1C4  C0 55     CPY #$55                        A:11 X:23 Y:55 P:65 SP:F
D1C6  D0 0A     BNE $D1D2                       A:11 X:23 Y:55 P:67 SP:F
D1C8  C9 11     CMP #$11                        A:11 X:23 Y:55 P:67 SP:F
D1CA  D0 06     BNE $D1D2                       A:11 X:23 Y:55 P:67 SP:F
D1CC  E0 23     CPX #$23                        A:11 X:23 Y:55 P:67 SP:F
D1CE  50 02     BVC $D1D2                       A:11 X:23 Y:55 P:67 SP:F
D1D0  F0 04     BEQ $D1D6                       A:11 X:23 Y:55 P:67 SP:F
D1D6  A0 46     LDY #$46                        A:11 X:23 Y:55 P:67 SP:F
D1D8  24 01     BIT $01 = FF                    A:11 X:23 Y:46 P:65 SP:F
D1DA  84 78     STY $78 = 55                    A:11 X:23 Y:46 P:E5 SP:F
D1DC  F0 0A     BEQ $D1E8                       A:11 X:23 Y:46 P:E5 SP:F
D1DE  10 08     BPL $D1E8                       A:11 X:23 Y:46 P:E5 SP:F
D1E0  50 06     BVC $D1E8                       A:11 X:23 Y:46 P:E5 SP:F
D1E2  A4 78     LDY $78 = 46                    A:11 X:23 Y:46 P:E5 SP:F
D1E4  C0 46     CPY #$46                        A:11 X:23 Y:46 P:65 SP:F
D1E6  F0 04     BEQ $D1EC                       A:11 X:23 Y:46 P:67 SP:F
D1EC  24 01     BIT $01 = FF                    A:11 X:23 Y:46 P:67 SP:F
D1EE  A9 55     LDA #$55                        A:11 X:23 Y:46 P:E5 SP:F
D1F0  85 78     STA $78 = 46                    A:55 X:23 Y:46 P:65 SP:F
D1F2  A0 11     LDY #$11                        A:55 X:23 Y:46 P:65 SP:F
D1F4  A9 23     LDA #$23                        A:55 X:23 Y:11 P:65 SP:F
D1F6  A2 00     LDX #$00                        A:23 X:23 Y:11 P:65 SP:F
D1F8  A6 78     LDX $78 = 55                    A:23 X:00 Y:11 P:67 SP:F
D1FA  F0 10     BEQ $D20C                       A:23 X:55 Y:11 P:65 SP:F
D1FC  30 0E     BMI $D20C                       A:23 X:55 Y:11 P:65 SP:F
D1FE  E0 55     CPX #$55                        A:23 X:55 Y:11 P:65 SP:F
D200  D0 0A     BNE $D20C                       A:23 X:55 Y:11 P:67 SP:F
D202  C0 11     CPY #$11                        A:23 X:55 Y:11 P:67 SP:F
D204  D0 06     BNE $D20C                       A:23 X:55 Y:11 P:67 SP:F
D206  C9 23     CMP #$23                        A:23 X:55 Y:11 P:67 SP:F
D208  50 02     BVC $D20C                       A:23 X:55 Y:11 P:67 SP:F
D20A  F0 04     BEQ $D210                       A:23 X:55 Y:11 P:67 SP:F
D210  A2 46     LDX #$46                        A:23 X:55 Y:11 P:67 SP:F
D212  24 01     BIT $01 = FF                    A:23 X:46 Y:11 P:65 SP:F
D214  86 78     STX $78 = 55                    A:23 X:46 Y:11 P:E5 SP:F
D216  F0 0A     BEQ $D222                       A:23 X:46 Y:11 P:E5 SP:F
D218  10 08     BPL $D222                       A:23 X:46 Y:11 P:E5 SP:F
D21A  50 06     BVC $D222                       A:23 X:46 Y:11 P:E5 SP:F
D21C  A6 78     LDX $78 = 46                    A:23 X:46 Y:11 P:E5 SP:F
D21E  E0 46     CPX #$46                        A:23 X:46 Y:11 P:65 SP:F
D220  F0 04     BEQ $D226                       A:23 X:46 Y:11 P:67 SP:F
D226  A9 C0     LDA #$C0                        A:23 X:46 Y:11 P:67 SP:F
D228  85 78     STA $78 = 46                    A:C0 X:46 Y:11 P:E5 SP:F
D22A  A2 33     LDX #$33                        A:C0 X:46 Y:11 P:E5 SP:F
D22C  A0 88     LDY #$88                        A:C0 X:33 Y:11 P:65 SP:F
D22E  A9 05     LDA #$05                        A:C0 X:33 Y:88 P:E5 SP:F
D230  24 78     BIT $78 = C0                    A:05 X:33 Y:88 P:65 SP:F
D232  10 10     BPL $D244                       A:05 X:33 Y:88 P:E7 SP:F
D234  50 0E     BVC $D244                       A:05 X:33 Y:88 P:E7 SP:F
D236  D0 0C     BNE $D244                       A:05 X:33 Y:88 P:E7 SP:F
D238  C9 05     CMP #$05                        A:05 X:33 Y:88 P:E7 SP:F
D23A  D0 08     BNE $D244                       A:05 X:33 Y:88 P:67 SP:F
D23C  E0 33     CPX #$33                        A:05 X:33 Y:88 P:67 SP:F
D23E  D0 04     BNE $D244                       A:05 X:33 Y:88 P:67 SP:F
D240  C0 88     CPY #$88                        A:05 X:33 Y:88 P:67 SP:F
D242  F0 04     BEQ $D248                       A:05 X:33 Y:88 P:67 SP:F
D248  A9 03     LDA #$03                        A:05 X:33 Y:88 P:67 SP:F
D24A  85 78     STA $78 = C0                    A:03 X:33 Y:88 P:65 SP:F
D24C  A9 01     LDA #$01                        A:03 X:33 Y:88 P:65 SP:F
D24E  24 78     BIT $78 = 03                    A:01 X:33 Y:88 P:65 SP:F
D250  30 08     BMI $D25A                       A:01 X:33 Y:88 P:25 SP:F
D252  70 06     BVS $D25A                       A:01 X:33 Y:88 P:25 SP:F
D254  F0 04     BEQ $D25A                       A:01 X:33 Y:88 P:25 SP:F
D256  C9 01     CMP #$01                        A:01 X:33 Y:88 P:25 SP:F
D258  F0 04     BEQ $D25E                       A:01 X:33 Y:88 P:27 SP:F
D25E  A0 7E     LDY #$7E                        A:01 X:33 Y:88 P:27 SP:F
D260  A9 AA     LDA #$AA                        A:01 X:33 Y:7E P:25 SP:F
D262  85 78     STA $78 = 03                    A:AA X:33 Y:7E P:A5 SP:F
D264  20 B6 F7  JSR $F7B6                       A:AA X:33 Y:7E P:A5 SP:F
F7B6  18        CLC                             A:AA X:33 Y:7E P:A5 SP:F
F7B7  A9 FF     LDA #$FF                        A:AA X:33 Y:7E P:A4 SP:F
F7B9  85 01     STA $01 = FF                    A:FF X:33 Y:7E P:A4 SP:F
F7BB  24 01     BIT $01 = FF                    A:FF X:33 Y:7E P:A4 SP:F
F7BD  A9 55     LDA #$55                        A:FF X:33 Y:7E P:E4 SP:F
F7BF  60        RTS                             A:55 X:33 Y:7E P:64 SP:F
D267  05 78     ORA $78 = AA                    A:55 X:33 Y:7E P:64 SP:F
D269  20 C0 F7  JSR $F7C0                       A:FF X:33 Y:7E P:E4 SP:F
F7C0  B0 09     BCS $F7CB                       A:FF X:33 Y:7E P:E4 SP:F
F7C2  10 07     BPL $F7CB                       A:FF X:33 Y:7E P:E4 SP:F
F7C4  C9 FF     CMP #$FF                        A:FF X:33 Y:7E P:E4 SP:F
F7C6  D0 03     BNE $F7CB                       A:FF X:33 Y:7E P:67 SP:F
F7C8  50 01     BVC $F7CB                       A:FF X:33 Y:7E P:67 SP:F
F7CA  60        RTS                             A:FF X:33 Y:7E P:67 SP:F
D26C  C8        INY                             A:FF X:33 Y:7E P:67 SP:F
D26D  A9 00     LDA #$00                        A:FF X:33 Y:7F P:65 SP:F
D26F  85 78     STA $78 = AA                    A:00 X:33 Y:7F P:67 SP:F
D271  20 CE F7  JSR $F7CE                       A:00 X:33 Y:7F P:67 SP:F
F7CE  38        SEC                             A:00 X:33 Y:7F P:67 SP:F
F7CF  B8        CLV                             A:00 X:33 Y:7F P:67 SP:F
F7D0  A9 00     LDA #$00                        A:00 X:33 Y:7F P:27 SP:F
F7D2  60        RTS                             A:00 X:33 Y:7F P:27 SP:F
D274  05 78     ORA $78 = 00                    A:00 X:33 Y:7F P:27 SP:F
D276  20 D3 F7  JSR $F7D3                       A:00 X:33 Y:7F P:27 SP:F
F7D3  D0 07     BNE $F7DC                       A:00 X:33 Y:7F P:27 SP:F
F7D5  70 05     BVS $F7DC                       A:00 X:33 Y:7F P:27 SP:F
F7D7  90 03     BCC $F7DC                       A:00 X:33 Y:7F P:27 SP:F
F7D9  30 01     BMI $F7DC                       A:00 X:33 Y:7F P:27 SP:F
F7DB  60        RTS                             A:00 X:33 Y:7F P:27 SP:F
D279  C8        INY                             A:00 X:33 Y:7F P:27 SP:F
D27A  A9 AA     LDA #$AA                        A:00 X:33 Y:80 P:A5 SP:F
D27C  85 78     STA $78 = 00                    A:AA X:33 Y:80 P:A5 SP:F
D27E  20 DF F7  JSR $F7DF                       A:AA X:33 Y:80 P:A5 SP:F
F7DF  18        CLC                             A:AA X:33 Y:80 P:A5 SP:F
F7E0  24 01     BIT $01 = FF                    A:AA X:33 Y:80 P:A4 SP:F
F7E2  A9 55     LDA #$55                        A:AA X:33 Y:80 P:E4 SP:F
F7E4  60        RTS                             A:55 X:33 Y:80 P:64 SP:F
D281  25 78     AND $78 = AA                    A:55 X:33 Y:80 P:64 SP:F
D283  20 E5 F7  JSR $F7E5                       A:00 X:33 Y:80 P:66 SP:F
F7E5  D0 07     BNE $F7EE                       A:00 X:33 Y:80 P:66 SP:F
F7E7  50 05     BVC $F7EE                       A:00 X:33 Y:80 P:66 SP:F
F7E9  B0 03     BCS $F7EE                       A:00 X:33 Y:80 P:66 SP:F
F7EB  30 01     BMI $F7EE                       A:00 X:33 Y:80 P:66 SP:F
F7ED  60        RTS                             A:00 X:33 Y:80 P:66 SP:F
D286  C8        INY                             A:00 X:33 Y:80 P:66 SP:F
D287  A9 EF     LDA #$EF                        A:00 X:33 Y:81 P:E4 SP:F
D289  85 78     STA $78 = AA                    A:EF X:33 Y:81 P:E4 SP:F
D28B  20 F1 F7  JSR $F7F1                       A:EF X:33 Y:81 P:E4 SP:F
F7F1  38        SEC                             A:EF X:33 Y:81 P:E4 SP:F
F7F2  B8        CLV                             A:EF X:33 Y:81 P:E5 SP:F
F7F3  A9 F8     LDA #$F8                        A:EF X:33 Y:81 P:A5 SP:F
F7F5  60        RTS                             A:F8 X:33 Y:81 P:A5 SP:F
D28E  25 78     AND $78 = EF                    A:F8 X:33 Y:81 P:A5 SP:F
D290  20 F6 F7  JSR $F7F6                       A:E8 X:33 Y:81 P:A5 SP:F
F7F6  90 09     BCC $F801                       A:E8 X:33 Y:81 P:A5 SP:F
F7F8  10 07     BPL $F801                       A:E8 X:33 Y:81 P:A5 SP:F
F7FA  C9 E8     CMP #$E8                        A:E8 X:33 Y:81 P:A5 SP:F
F7FC  D0 03     BNE $F801                       A:E8 X:33 Y:81 P:27 SP:F
F7FE  70 01     BVS $F801                       A:E8 X:33 Y:81 P:27 SP:F
F800  60        RTS                             A:E8 X:33 Y:81 P:27 SP:F
D293  C8        INY                             A:E8 X:33 Y:81 P:27 SP:F
D294  A9 AA     LDA #$AA                        A:E8 X:33 Y:82 P:A5 SP:F
D296  85 78     STA $78 = EF                    A:AA X:33 Y:82 P:A5 SP:F
D298  20 04 F8  JSR $F804                       A:AA X:33 Y:82 P:A5 SP:F
F804  18        CLC                             A:AA X:33 Y:82 P:A5 SP:F
F805  24 01     BIT $01 = FF                    A:AA X:33 Y:82 P:A4 SP:F
F807  A9 5F     LDA #$5F                        A:AA X:33 Y:82 P:E4 SP:F
F809  60        RTS                             A:5F X:33 Y:82 P:64 SP:F
D29B  45 78     EOR $78 = AA                    A:5F X:33 Y:82 P:64 SP:F
D29D  20 0A F8  JSR $F80A                       A:F5 X:33 Y:82 P:E4 SP:F
F80A  B0 09     BCS $F815                       A:F5 X:33 Y:82 P:E4 SP:F
F80C  10 07     BPL $F815                       A:F5 X:33 Y:82 P:E4 SP:F
F80E  C9 F5     CMP #$F5                        A:F5 X:33 Y:82 P:E4 SP:F
F810  D0 03     BNE $F815                       A:F5 X:33 Y:82 P:67 SP:F
F812  50 01     BVC $F815                       A:F5 X:33 Y:82 P:67 SP:F
F814  60        RTS                             A:F5 X:33 Y:82 P:67 SP:F
D2A0  C8        INY                             A:F5 X:33 Y:82 P:67 SP:F
D2A1  A9 70     LDA #$70                        A:F5 X:33 Y:83 P:E5 SP:F
D2A3  85 78     STA $78 = AA                    A:70 X:33 Y:83 P:65 SP:F
D2A5  20 18 F8  JSR $F818                       A:70 X:33 Y:83 P:65 SP:F
F818  38        SEC                             A:70 X:33 Y:83 P:65 SP:F
F819  B8        CLV                             A:70 X:33 Y:83 P:65 SP:F
F81A  A9 70     LDA #$70                        A:70 X:33 Y:83 P:25 SP:F
F81C  60        RTS                             A:70 X:33 Y:83 P:25 SP:F
D2A8  45 78     EOR $78 = 70                    A:70 X:33 Y:83 P:25 SP:F
D2AA  20 1D F8  JSR $F81D                       A:00 X:33 Y:83 P:27 SP:F
F81D  D0 07     BNE $F826                       A:00 X:33 Y:83 P:27 SP:F
F81F  70 05     BVS $F826                       A:00 X:33 Y:83 P:27 SP:F
F821  90 03     BCC $F826                       A:00 X:33 Y:83 P:27 SP:F
F823  30 01     BMI $F826                       A:00 X:33 Y:83 P:27 SP:F
F825  60        RTS                             A:00 X:33 Y:83 P:27 SP:F
D2AD  C8        INY                             A:00 X:33 Y:83 P:27 SP:F
D2AE  A9 69     LDA #$69                        A:00 X:33 Y:84 P:A5 SP:F
D2B0  85 78     STA $78 = 70                    A:69 X:33 Y:84 P:25 SP:F
D2B2  20 29 F8  JSR $F829                       A:69 X:33 Y:84 P:25 SP:F
F829  18        CLC                             A:69 X:33 Y:84 P:25 SP:F
F82A  24 01     BIT $01 = FF                    A:69 X:33 Y:84 P:24 SP:F
F82C  A9 00     LDA #$00                        A:69 X:33 Y:84 P:E4 SP:F
F82E  60        RTS                             A:00 X:33 Y:84 P:66 SP:F
D2B5  65 78     ADC $78 = 69                    A:00 X:33 Y:84 P:66 SP:F
D2B7  20 2F F8  JSR $F82F                       A:69 X:33 Y:84 P:24 SP:F
F82F  30 09     BMI $F83A                       A:69 X:33 Y:84 P:24 SP:F
F831  B0 07     BCS $F83A                       A:69 X:33 Y:84 P:24 SP:F
F833  C9 69     CMP #$69                        A:69 X:33 Y:84 P:24 SP:F
F835  D0 03     BNE $F83A                       A:69 X:33 Y:84 P:27 SP:F
F837  70 01     BVS $F83A                       A:69 X:33 Y:84 P:27 SP:F
F839  60        RTS                             A:69 X:33 Y:84 P:27 SP:F
D2BA  C8        INY                             A:69 X:33 Y:84 P:27 SP:F
D2BB  20 3D F8  JSR $F83D                       A:69 X:33 Y:85 P:A5 SP:F
F83D  38        SEC                             A:69 X:33 Y:85 P:A5 SP:F
F83E  24 01     BIT $01 = FF                    A:69 X:33 Y:85 P:A5 SP:F
F840  A9 00     LDA #$00                        A:69 X:33 Y:85 P:E5 SP:F
F842  60        RTS                             A:00 X:33 Y:85 P:67 SP:F
D2BE  65 78     ADC $78 = 69                    A:00 X:33 Y:85 P:67 SP:F
D2C0  20 43 F8  JSR $F843                       A:6A X:33 Y:85 P:24 SP:F
F843  30 09     BMI $F84E                       A:6A X:33 Y:85 P:24 SP:F
F845  B0 07     BCS $F84E                       A:6A X:33 Y:85 P:24 SP:F
F847  C9 6A     CMP #$6A                        A:6A X:33 Y:85 P:24 SP:F
F849  D0 03     BNE $F84E                       A:6A X:33 Y:85 P:27 SP:F
F84B  70 01     BVS $F84E                       A:6A X:33 Y:85 P:27 SP:F
F84D  60        RTS                             A:6A X:33 Y:85 P:27 SP:F
D2C3  C8        INY                             A:6A X:33 Y:85 P:27 SP:F
D2C4  A9 7F     LDA #$7F                        A:6A X:33 Y:86 P:A5 SP:F
D2C6  85 78     STA $78 = 69                    A:7F X:33 Y:86 P:25 SP:F
D2C8  20 51 F8  JSR $F851                       A:7F X:33 Y:86 P:25 SP:F
F851  38        SEC                             A:7F X:33 Y:86 P:25 SP:F
F852  B8        CLV                             A:7F X:33 Y:86 P:25 SP:F
F853  A9 7F     LDA #$7F                        A:7F X:33 Y:86 P:25 SP:F
F855  60        RTS                             A:7F X:33 Y:86 P:25 SP:F
D2CB  65 78     ADC $78 = 7F                    A:7F X:33 Y:86 P:25 SP:F
D2CD  20 56 F8  JSR $F856                       A:FF X:33 Y:86 P:E4 SP:F
F856  10 09     BPL $F861                       A:FF X:33 Y:86 P:E4 SP:F
F858  B0 07     BCS $F861                       A:FF X:33 Y:86 P:E4 SP:F
F85A  C9 FF     CMP #$FF                        A:FF X:33 Y:86 P:E4 SP:F
F85C  D0 03     BNE $F861                       A:FF X:33 Y:86 P:67 SP:F
F85E  50 01     BVC $F861                       A:FF X:33 Y:86 P:67 SP:F
F860  60        RTS                             A:FF X:33 Y:86 P:67 SP:F
D2D0  C8        INY                             A:FF X:33 Y:86 P:67 SP:F
D2D1  A9 80     LDA #$80                        A:FF X:33 Y:87 P:E5 SP:F
D2D3  85 78     STA $78 = 7F                    A:80 X:33 Y:87 P:E5 SP:F
D2D5  20 64 F8  JSR $F864                       A:80 X:33 Y:87 P:E5 SP:F
F864  18        CLC                             A:80 X:33 Y:87 P:E5 SP:F
F865  24 01     BIT $01 = FF                    A:80 X:33 Y:87 P:E4 SP:F
F867  A9 7F     LDA #$7F                        A:80 X:33 Y:87 P:E4 SP:F
F869  60        RTS                             A:7F X:33 Y:87 P:64 SP:F
D2D8  65 78     ADC $78 = 80                    A:7F X:33 Y:87 P:64 SP:F
D2DA  20 6A F8  JSR $F86A                       A:FF X:33 Y:87 P:A4 SP:F
F86A  10 09     BPL $F875                       A:FF X:33 Y:87 P:A4 SP:F
F86C  B0 07     BCS $F875                       A:FF X:33 Y:87 P:A4 SP:F
F86E  C9 FF     CMP #$FF                        A:FF X:33 Y:87 P:A4 SP:F
F870  D0 03     BNE $F875                       A:FF X:33 Y:87 P:27 SP:F
F872  70 01     BVS $F875                       A:FF X:33 Y:87 P:27 SP:F
F874  60        RTS                             A:FF X:33 Y:87 P:27 SP:F
D2DD  C8        INY                             A:FF X:33 Y:87 P:27 SP:F
D2DE  20 78 F8  JSR $F878                       A:FF X:33 Y:88 P:A5 SP:F
F878  38        SEC                             A:FF X:33 Y:88 P:A5 SP:F
F879  B8        CLV                             A:FF X:33 Y:88 P:A5 SP:F
F87A  A9 7F     LDA #$7F                        A:FF X:33 Y:88 P:A5 SP:F
F87C  60        RTS                             A:7F X:33 Y:88 P:25 SP:F
D2E1  65 78     ADC $78 = 80                    A:7F X:33 Y:88 P:25 SP:F
D2E3  20 7D F8  JSR $F87D                       A:00 X:33 Y:88 P:27 SP:F
F87D  D0 07     BNE $F886                       A:00 X:33 Y:88 P:27 SP:F
F87F  30 05     BMI $F886                       A:00 X:33 Y:88 P:27 SP:F
F881  70 03     BVS $F886                       A:00 X:33 Y:88 P:27 SP:F
F883  90 01     BCC $F886                       A:00 X:33 Y:88 P:27 SP:F
F885  60        RTS                             A:00 X:33 Y:88 P:27 SP:F
D2E6  C8        INY                             A:00 X:33 Y:88 P:27 SP:F
D2E7  A9 40     LDA #$40                        A:00 X:33 Y:89 P:A5 SP:F
D2E9  85 78     STA $78 = 80                    A:40 X:33 Y:89 P:25 SP:F
D2EB  20 89 F8  JSR $F889                       A:40 X:33 Y:89 P:25 SP:F
F889  24 01     BIT $01 = FF                    A:40 X:33 Y:89 P:25 SP:F
F88B  A9 40     LDA #$40                        A:40 X:33 Y:89 P:E5 SP:F
F88D  60        RTS                             A:40 X:33 Y:89 P:65 SP:F
D2EE  C5 78     CMP $78 = 40                    A:40 X:33 Y:89 P:65 SP:F
D2F0  20 8E F8  JSR $F88E                       A:40 X:33 Y:89 P:67 SP:F
F88E  30 07     BMI $F897                       A:40 X:33 Y:89 P:67 SP:F
F890  90 05     BCC $F897                       A:40 X:33 Y:89 P:67 SP:F
F892  D0 03     BNE $F897                       A:40 X:33 Y:89 P:67 SP:F
F894  50 01     BVC $F897                       A:40 X:33 Y:89 P:67 SP:F
F896  60        RTS                             A:40 X:33 Y:89 P:67 SP:F
D2F3  C8        INY                             A:40 X:33 Y:89 P:67 SP:F
D2F4  48        PHA                             A:40 X:33 Y:8A P:E5 SP:F
D2F5  A9 3F     LDA #$3F                        A:40 X:33 Y:8A P:E5 SP:F
D2F7  85 78     STA $78 = 40                    A:3F X:33 Y:8A P:65 SP:F
D2F9  68        PLA                             A:3F X:33 Y:8A P:65 SP:F
D2FA  20 9A F8  JSR $F89A                       A:40 X:33 Y:8A P:65 SP:F
F89A  B8        CLV                             A:40 X:33 Y:8A P:65 SP:F
F89B  60        RTS                             A:40 X:33 Y:8A P:25 SP:F
D2FD  C5 78     CMP $78 = 3F                    A:40 X:33 Y:8A P:25 SP:F
D2FF  20 9C F8  JSR $F89C                       A:40 X:33 Y:8A P:25 SP:F
F89C  F0 07     BEQ $F8A5                       A:40 X:33 Y:8A P:25 SP:F
F89E  30 05     BMI $F8A5                       A:40 X:33 Y:8A P:25 SP:F
F8A0  90 03     BCC $F8A5                       A:40 X:33 Y:8A P:25 SP:F
F8A2  70 01     BVS $F8A5                       A:40 X:33 Y:8A P:25 SP:F
F8A4  60        RTS                             A:40 X:33 Y:8A P:25 SP:F
D302  C8        INY                             A:40 X:33 Y:8A P:25 SP:F
D303  48        PHA                             A:40 X:33 Y:8B P:A5 SP:F
D304  A9 41     LDA #$41                        A:40 X:33 Y:8B P:A5 SP:F
D306  85 78     STA $78 = 3F                    A:41 X:33 Y:8B P:25 SP:F
D308  68        PLA                             A:41 X:33 Y:8B P:25 SP:F
D309  C5 78     CMP $78 = 41                    A:40 X:33 Y:8B P:25 SP:F
D30B  20 A8 F8  JSR $F8A8                       A:40 X:33 Y:8B P:A4 SP:F
F8A8  F0 05     BEQ $F8AF                       A:40 X:33 Y:8B P:A4 SP:F
F8AA  10 03     BPL $F8AF                       A:40 X:33 Y:8B P:A4 SP:F
F8AC  10 01     BPL $F8AF                       A:40 X:33 Y:8B P:A4 SP:F
F8AE  60        RTS                             A:40 X:33 Y:8B P:A4 SP:F
D30E  C8        INY                             A:40 X:33 Y:8B P:A4 SP:F
D30F  48        PHA                             A:40 X:33 Y:8C P:A4 SP:F
D310  A9 00     LDA #$00                        A:40 X:33 Y:8C P:A4 SP:F
D312  85 78     STA $78 = 41                    A:00 X:33 Y:8C P:26 SP:F
D314  68        PLA                             A:00 X:33 Y:8C P:26 SP:F
D315  20 B2 F8  JSR $F8B2                       A:40 X:33 Y:8C P:24 SP:F
F8B2  A9 80     LDA #$80                        A:40 X:33 Y:8C P:24 SP:F
F8B4  60        RTS                             A:80 X:33 Y:8C P:A4 SP:F
D318  C5 78     CMP $78 = 00                    A:80 X:33 Y:8C P:A4 SP:F
D31A  20 B5 F8  JSR $F8B5                       A:80 X:33 Y:8C P:A5 SP:F
F8B5  F0 05     BEQ $F8BC                       A:80 X:33 Y:8C P:A5 SP:F
F8B7  10 03     BPL $F8BC                       A:80 X:33 Y:8C P:A5 SP:F
F8B9  90 01     BCC $F8BC                       A:80 X:33 Y:8C P:A5 SP:F
F8BB  60        RTS                             A:80 X:33 Y:8C P:A5 SP:F
D31D  C8        INY                             A:80 X:33 Y:8C P:A5 SP:F
D31E  48        PHA                             A:80 X:33 Y:8D P:A5 SP:F
D31F  A9 80     LDA #$80                        A:80 X:33 Y:8D P:A5 SP:F
D321  85 78     STA $78 = 00                    A:80 X:33 Y:8D P:A5 SP:F
D323  68        PLA                             A:80 X:33 Y:8D P:A5 SP:F
D324  C5 78     CMP $78 = 80                    A:80 X:33 Y:8D P:A5 SP:F
D326  20 BF F8  JSR $F8BF                       A:80 X:33 Y:8D P:27 SP:F
F8BF  D0 05     BNE $F8C6                       A:80 X:33 Y:8D P:27 SP:F
F8C1  30 03     BMI $F8C6                       A:80 X:33 Y:8D P:27 SP:F
F8C3  90 01     BCC $F8C6                       A:80 X:33 Y:8D P:27 SP:F
F8C5  60        RTS                             A:80 X:33 Y:8D P:27 SP:F
D329  C8        INY                             A:80 X:33 Y:8D P:27 SP:F
D32A  48        PHA                             A:80 X:33 Y:8E P:A5 SP:F
D32B  A9 81     LDA #$81                        A:80 X:33 Y:8E P:A5 SP:F
D32D  85 78     STA $78 = 80                    A:81 X:33 Y:8E P:A5 SP:F
D32F  68        PLA                             A:81 X:33 Y:8E P:A5 SP:F
D330  C5 78     CMP $78 = 81                    A:80 X:33 Y:8E P:A5 SP:F
D332  20 C9 F8  JSR $F8C9                       A:80 X:33 Y:8E P:A4 SP:F
F8C9  B0 05     BCS $F8D0                       A:80 X:33 Y:8E P:A4 SP:F
F8CB  F0 03     BEQ $F8D0                       A:80 X:33 Y:8E P:A4 SP:F
F8CD  10 01     BPL $F8D0                       A:80 X:33 Y:8E P:A4 SP:F
F8CF  60        RTS                             A:80 X:33 Y:8E P:A4 SP:F
D335  C8        INY                             A:80 X:33 Y:8E P:A4 SP:F
D336  48        PHA                             A:80 X:33 Y:8F P:A4 SP:F
D337  A9 7F     LDA #$7F                        A:80 X:33 Y:8F P:A4 SP:F
D339  85 78     STA $78 = 81                    A:7F X:33 Y:8F P:24 SP:F
D33B  68        PLA                             A:7F X:33 Y:8F P:24 SP:F
D33C  C5 78     CMP $78 = 7F                    A:80 X:33 Y:8F P:A4 SP:F
D33E  20 D3 F8  JSR $F8D3                       A:80 X:33 Y:8F P:25 SP:F
F8D3  90 05     BCC $F8DA                       A:80 X:33 Y:8F P:25 SP:F
F8D5  F0 03     BEQ $F8DA                       A:80 X:33 Y:8F P:25 SP:F
F8D7  30 01     BMI $F8DA                       A:80 X:33 Y:8F P:25 SP:F
F8D9  60        RTS                             A:80 X:33 Y:8F P:25 SP:F
D341  C8        INY                             A:80 X:33 Y:8F P:25 SP:F
D342  A9 40     LDA #$40                        A:80 X:33 Y:90 P:A5 SP:F
D344  85 78     STA $78 = 7F                    A:40 X:33 Y:90 P:25 SP:F
D346  20 31 F9  JSR $F931                       A:40 X:33 Y:90 P:25 SP:F
F931  24 01     BIT $01 = FF                    A:40 X:33 Y:90 P:25 SP:F
F933  A9 40     LDA #$40                        A:40 X:33 Y:90 P:E5 SP:F
F935  38        SEC                             A:40 X:33 Y:90 P:65 SP:F
F936  60        RTS                             A:40 X:33 Y:90 P:65 SP:F
D349  E5 78     SBC $78 = 40                    A:40 X:33 Y:90 P:65 SP:F
D34B  20 37 F9  JSR $F937                       A:00 X:33 Y:90 P:27 SP:F
F937  30 0B     BMI $F944                       A:00 X:33 Y:90 P:27 SP:F
F939  90 09     BCC $F944                       A:00 X:33 Y:90 P:27 SP:F
F93B  D0 07     BNE $F944                       A:00 X:33 Y:90 P:27 SP:F
F93D  70 05     BVS $F944                       A:00 X:33 Y:90 P:27 SP:F
F93F  C9 00     CMP #$00                        A:00 X:33 Y:90 P:27 SP:F
F941  D0 01     BNE $F944                       A:00 X:33 Y:90 P:27 SP:F
F943  60        RTS                             A:00 X:33 Y:90 P:27 SP:F
D34E  C8        INY                             A:00 X:33 Y:90 P:27 SP:F
D34F  A9 3F     LDA #$3F                        A:00 X:33 Y:91 P:A5 SP:F
D351  85 78     STA $78 = 40                    A:3F X:33 Y:91 P:25 SP:F
D353  20 47 F9  JSR $F947                       A:3F X:33 Y:91 P:25 SP:F
F947  B8        CLV                             A:3F X:33 Y:91 P:25 SP:F
F948  38        SEC                             A:3F X:33 Y:91 P:25 SP:F
F949  A9 40     LDA #$40                        A:3F X:33 Y:91 P:25 SP:F
F94B  60        RTS                             A:40 X:33 Y:91 P:25 SP:F
D356  E5 78     SBC $78 = 3F                    A:40 X:33 Y:91 P:25 SP:F
D358  20 4C F9  JSR $F94C                       A:01 X:33 Y:91 P:25 SP:F
F94C  F0 0B     BEQ $F959                       A:01 X:33 Y:91 P:25 SP:F
F94E  30 09     BMI $F959                       A:01 X:33 Y:91 P:25 SP:F
F950  90 07     BCC $F959                       A:01 X:33 Y:91 P:25 SP:F
F952  70 05     BVS $F959                       A:01 X:33 Y:91 P:25 SP:F
F954  C9 01     CMP #$01                        A:01 X:33 Y:91 P:25 SP:F
F956  D0 01     BNE $F959                       A:01 X:33 Y:91 P:27 SP:F
F958  60        RTS                             A:01 X:33 Y:91 P:27 SP:F
D35B  C8        INY                             A:01 X:33 Y:91 P:27 SP:F
D35C  A9 41     LDA #$41                        A:01 X:33 Y:92 P:A5 SP:F
D35E  85 78     STA $78 = 3F                    A:41 X:33 Y:92 P:25 SP:F
D360  20 5C F9  JSR $F95C                       A:41 X:33 Y:92 P:25 SP:F
F95C  A9 40     LDA #$40                        A:41 X:33 Y:92 P:25 SP:F
F95E  38        SEC                             A:40 X:33 Y:92 P:25 SP:F
F95F  24 01     BIT $01 = FF                    A:40 X:33 Y:92 P:25 SP:F
F961  60        RTS                             A:40 X:33 Y:92 P:E5 SP:F
D363  E5 78     SBC $78 = 41                    A:40 X:33 Y:92 P:E5 SP:F
D365  20 62 F9  JSR $F962                       A:FF X:33 Y:92 P:A4 SP:F
F962  B0 0B     BCS $F96F                       A:FF X:33 Y:92 P:A4 SP:F
F964  F0 09     BEQ $F96F                       A:FF X:33 Y:92 P:A4 SP:F
F966  10 07     BPL $F96F                       A:FF X:33 Y:92 P:A4 SP:F
F968  70 05     BVS $F96F                       A:FF X:33 Y:92 P:A4 SP:F
F96A  C9 FF     CMP #$FF                        A:FF X:33 Y:92 P:A4 SP:F
F96C  D0 01     BNE $F96F                       A:FF X:33 Y:92 P:27 SP:F
F96E  60        RTS                             A:FF X:33 Y:92 P:27 SP:F
D368  C8        INY                             A:FF X:33 Y:92 P:27 SP:F
D369  A9 00     LDA #$00                        A:FF X:33 Y:93 P:A5 SP:F
D36B  85 78     STA $78 = 41                    A:00 X:33 Y:93 P:27 SP:F
D36D  20 72 F9  JSR $F972                       A:00 X:33 Y:93 P:27 SP:F
F972  18        CLC                             A:00 X:33 Y:93 P:27 SP:F
F973  A9 80     LDA #$80                        A:00 X:33 Y:93 P:26 SP:F
F975  60        RTS                             A:80 X:33 Y:93 P:A4 SP:F
D370  E5 78     SBC $78 = 00                    A:80 X:33 Y:93 P:A4 SP:F
D372  20 76 F9  JSR $F976                       A:7F X:33 Y:93 P:65 SP:F
F976  90 05     BCC $F97D                       A:7F X:33 Y:93 P:65 SP:F
F978  C9 7F     CMP #$7F                        A:7F X:33 Y:93 P:65 SP:F
F97A  D0 01     BNE $F97D                       A:7F X:33 Y:93 P:67 SP:F
F97C  60        RTS                             A:7F X:33 Y:93 P:67 SP:F
D375  C8        INY                             A:7F X:33 Y:93 P:67 SP:F
D376  A9 7F     LDA #$7F                        A:7F X:33 Y:94 P:E5 SP:F
D378  85 78     STA $78 = 00                    A:7F X:33 Y:94 P:65 SP:F
D37A  20 80 F9  JSR $F980                       A:7F X:33 Y:94 P:65 SP:F
F980  38        SEC                             A:7F X:33 Y:94 P:65 SP:F
F981  A9 81     LDA #$81                        A:7F X:33 Y:94 P:65 SP:F
F983  60        RTS                             A:81 X:33 Y:94 P:E5 SP:F
D37D  E5 78     SBC $78 = 7F                    A:81 X:33 Y:94 P:E5 SP:F
D37F  20 84 F9  JSR $F984                       A:02 X:33 Y:94 P:65 SP:F
F984  50 07     BVC $F98D                       A:02 X:33 Y:94 P:65 SP:F
F986  90 05     BCC $F98D                       A:02 X:33 Y:94 P:65 SP:F
F988  C9 02     CMP #$02                        A:02 X:33 Y:94 P:65 SP:F
F98A  D0 01     BNE $F98D                       A:02 X:33 Y:94 P:67 SP:F
F98C  60        RTS                             A:02 X:33 Y:94 P:67 SP:F
D382  C8        INY                             A:02 X:33 Y:94 P:67 SP:F
D383  A9 40     LDA #$40                        A:02 X:33 Y:95 P:E5 SP:F
D385  85 78     STA $78 = 7F                    A:40 X:33 Y:95 P:65 SP:F
D387  20 89 F8  JSR $F889                       A:40 X:33 Y:95 P:65 SP:F
F889  24 01     BIT $01 = FF                    A:40 X:33 Y:95 P:65 SP:F
F88B  A9 40     LDA #$40                        A:40 X:33 Y:95 P:E5 SP:F
F88D  60        RTS                             A:40 X:33 Y:95 P:65 SP:F
D38A  AA        TAX                             A:40 X:33 Y:95 P:65 SP:F
D38B  E4 78     CPX $78 = 40                    A:40 X:40 Y:95 P:65 SP:F
D38D  20 8E F8  JSR $F88E                       A:40 X:40 Y:95 P:67 SP:F
F88E  30 07     BMI $F897                       A:40 X:40 Y:95 P:67 SP:F
F890  90 05     BCC $F897                       A:40 X:40 Y:95 P:67 SP:F
F892  D0 03     BNE $F897                       A:40 X:40 Y:95 P:67 SP:F
F894  50 01     BVC $F897                       A:40 X:40 Y:95 P:67 SP:F
F896  60        RTS                             A:40 X:40 Y:95 P:67 SP:F
D390  C8        INY                             A:40 X:40 Y:95 P:67 SP:F
D391  A9 3F     LDA #$3F                        A:40 X:40 Y:96 P:E5 SP:F
D393  85 78     STA $78 = 40                    A:3F X:40 Y:96 P:65 SP:F
D395  20 9A F8  JSR $F89A                       A:3F X:40 Y:96 P:65 SP:F
F89A  B8        CLV                             A:3F X:40 Y:96 P:65 SP:F
F89B  60        RTS                             A:3F X:40 Y:96 P:25 SP:F
D398  E4 78     CPX $78 = 3F                    A:3F X:40 Y:96 P:25 SP:F
D39A  20 9C F8  JSR $F89C                       A:3F X:40 Y:96 P:25 SP:F
F89C  F0 07     BEQ $F8A5                       A:3F X:40 Y:96 P:25 SP:F
F89E  30 05     BMI $F8A5                       A:3F X:40 Y:96 P:25 SP:F
F8A0  90 03     BCC $F8A5                       A:3F X:40 Y:96 P:25 SP:F
F8A2  70 01     BVS $F8A5                       A:3F X:40 Y:96 P:25 SP:F
F8A4  60        RTS                             A:3F X:40 Y:96 P:25 SP:F
D39D  C8        INY                             A:3F X:40 Y:96 P:25 SP:F
D39E  A9 41     LDA #$41                        A:3F X:40 Y:97 P:A5 SP:F
D3A0  85 78     STA $78 = 3F                    A:41 X:40 Y:97 P:25 SP:F
D3A2  E4 78     CPX $78 = 41                    A:41 X:40 Y:97 P:25 SP:F
D3A4  20 A8 F8  JSR $F8A8                       A:41 X:40 Y:97 P:A4 SP:F
F8A8  F0 05     BEQ $F8AF                       A:41 X:40 Y:97 P:A4 SP:F
F8AA  10 03     BPL $F8AF                       A:41 X:40 Y:97 P:A4 SP:F
F8AC  10 01     BPL $F8AF                       A:41 X:40 Y:97 P:A4 SP:F
F8AE  60        RTS                             A:41 X:40 Y:97 P:A4 SP:F
D3A7  C8        INY                             A:41 X:40 Y:97 P:A4 SP:F
D3A8  A9 00     LDA #$00                        A:41 X:40 Y:98 P:A4 SP:F
D3AA  85 78     STA $78 = 41                    A:00 X:40 Y:98 P:26 SP:F
D3AC  20 B2 F8  JSR $F8B2                       A:00 X:40 Y:98 P:26 SP:F
F8B2  A9 80     LDA #$80                        A:00 X:40 Y:98 P:26 SP:F
F8B4  60        RTS                             A:80 X:40 Y:98 P:A4 SP:F
D3AF  AA        TAX                             A:80 X:40 Y:98 P:A4 SP:F
D3B0  E4 78     CPX $78 = 00                    A:80 X:80 Y:98 P:A4 SP:F
D3B2  20 B5 F8  JSR $F8B5                       A:80 X:80 Y:98 P:A5 SP:F
F8B5  F0 05     BEQ $F8BC                       A:80 X:80 Y:98 P:A5 SP:F
F8B7  10 03     BPL $F8BC                       A:80 X:80 Y:98 P:A5 SP:F
F8B9  90 01     BCC $F8BC                       A:80 X:80 Y:98 P:A5 SP:F
F8BB  60        RTS                             A:80 X:80 Y:98 P:A5 SP:F
D3B5  C8        INY                             A:80 X:80 Y:98 P:A5 SP:F
D3B6  A9 80     LDA #$80                        A:80 X:80 Y:99 P:A5 SP:F
D3B8  85 78     STA $78 = 00                    A:80 X:80 Y:99 P:A5 SP:F
D3BA  E4 78     CPX $78 = 80                    A:80 X:80 Y:99 P:A5 SP:F
D3BC  20 BF F8  JSR $F8BF                       A:80 X:80 Y:99 P:27 SP:F
F8BF  D0 05     BNE $F8C6                       A:80 X:80 Y:99 P:27 SP:F
F8C1  30 03     BMI $F8C6                       A:80 X:80 Y:99 P:27 SP:F
F8C3  90 01     BCC $F8C6                       A:80 X:80 Y:99 P:27 SP:F
F8C5  60        RTS                             A:80 X:80 Y:99 P:27 SP:F
D3BF  C8        INY                             A:80 X:80 Y:99 P:27 SP:F
D3C0  A9 81     LDA #$81                        A:80 X:80 Y:9A P:A5 SP:F
D3C2  85 78     STA $78 = 80                    A:81 X:80 Y:9A P:A5 SP:F
D3C4  E4 78     CPX $78 = 81                    A:81 X:80 Y:9A P:A5 SP:F
D3C6  20 C9 F8  JSR $F8C9                       A:81 X:80 Y:9A P:A4 SP:F
F8C9  B0 05     BCS $F8D0                       A:81 X:80 Y:9A P:A4 SP:F
F8CB  F0 03     BEQ $F8D0                       A:81 X:80 Y:9A P:A4 SP:F
F8CD  10 01     BPL $F8D0                       A:81 X:80 Y:9A P:A4 SP:F
F8CF  60        RTS                             A:81 X:80 Y:9A P:A4 SP:F
D3C9  C8        INY                             A:81 X:80 Y:9A P:A4 SP:F
D3CA  A9 7F     LDA #$7F                        A:81 X:80 Y:9B P:A4 SP:F
D3CC  85 78     STA $78 = 81                    A:7F X:80 Y:9B P:24 SP:F
D3CE  E4 78     CPX $78 = 7F                    A:7F X:80 Y:9B P:24 SP:F
D3D0  20 D3 F8  JSR $F8D3                       A:7F X:80 Y:9B P:25 SP:F
F8D3  90 05     BCC $F8DA                       A:7F X:80 Y:9B P:25 SP:F
F8D5  F0 03     BEQ $F8DA                       A:7F X:80 Y:9B P:25 SP:F
F8D7  30 01     BMI $F8DA                       A:7F X:80 Y:9B P:25 SP:F
F8D9  60        RTS                             A:7F X:80 Y:9B P:25 SP:F
D3D3  C8        INY                             A:7F X:80 Y:9B P:25 SP:F
D3D4  98        TYA                             A:7F X:80 Y:9C P:A5 SP:F
D3D5  AA        TAX                             A:9C X:80 Y:9C P:A5 SP:F
D3D6  A9 40     LDA #$40                        A:9C X:9C Y:9C P:A5 SP:F
D3D8  85 78     STA $78 = 7F                    A:40 X:9C Y:9C P:25 SP:F
D3DA  20 DD F8  JSR $F8DD                       A:40 X:9C Y:9C P:25 SP:F
F8DD  24 01     BIT $01 = FF                    A:40 X:9C Y:9C P:25 SP:F
F8DF  A0 40     LDY #$40                        A:40 X:9C Y:9C P:E5 SP:F
F8E1  60        RTS                             A:40 X:9C Y:40 P:65 SP:F
D3DD  C4 78     CPY $78 = 40                    A:40 X:9C Y:40 P:65 SP:F
D3DF  20 E2 F8  JSR $F8E2                       A:40 X:9C Y:40 P:67 SP:F
F8E2  30 07     BMI $F8EB                       A:40 X:9C Y:40 P:67 SP:F
F8E4  90 05     BCC $F8EB                       A:40 X:9C Y:40 P:67 SP:F
F8E6  D0 03     BNE $F8EB                       A:40 X:9C Y:40 P:67 SP:F
F8E8  50 01     BVC $F8EB                       A:40 X:9C Y:40 P:67 SP:F
F8EA  60        RTS                             A:40 X:9C Y:40 P:67 SP:F
D3E2  E8        INX                             A:40 X:9C Y:40 P:67 SP:F
D3E3  A9 3F     LDA #$3F                        A:40 X:9D Y:40 P:E5 SP:F
D3E5  85 78     STA $78 = 40                    A:3F X:9D Y:40 P:65 SP:F
D3E7  20 EE F8  JSR $F8EE                       A:3F X:9D Y:40 P:65 SP:F
F8EE  B8        CLV                             A:3F X:9D Y:40 P:65 SP:F
F8EF  60        RTS                             A:3F X:9D Y:40 P:25 SP:F
D3EA  C4 78     CPY $78 = 3F                    A:3F X:9D Y:40 P:25 SP:F
D3EC  20 F0 F8  JSR $F8F0                       A:3F X:9D Y:40 P:25 SP:F
F8F0  F0 07     BEQ $F8F9                       A:3F X:9D Y:40 P:25 SP:F
F8F2  30 05     BMI $F8F9                       A:3F X:9D Y:40 P:25 SP:F
F8F4  90 03     BCC $F8F9                       A:3F X:9D Y:40 P:25 SP:F
F8F6  70 01     BVS $F8F9                       A:3F X:9D Y:40 P:25 SP:F
F8F8  60        RTS                             A:3F X:9D Y:40 P:25 SP:F
D3EF  E8        INX                             A:3F X:9D Y:40 P:25 SP:F
D3F0  A9 41     LDA #$41                        A:3F X:9E Y:40 P:A5 SP:F
D3F2  85 78     STA $78 = 3F                    A:41 X:9E Y:40 P:25 SP:F
D3F4  C4 78     CPY $78 = 41                    A:41 X:9E Y:40 P:25 SP:F
D3F6  20 FC F8  JSR $F8FC                       A:41 X:9E Y:40 P:A4 SP:F
F8FC  F0 05     BEQ $F903                       A:41 X:9E Y:40 P:A4 SP:F
F8FE  10 03     BPL $F903                       A:41 X:9E Y:40 P:A4 SP:F
F900  10 01     BPL $F903                       A:41 X:9E Y:40 P:A4 SP:F
F902  60        RTS                             A:41 X:9E Y:40 P:A4 SP:F
D3F9  E8        INX                             A:41 X:9E Y:40 P:A4 SP:F
D3FA  A9 00     LDA #$00                        A:41 X:9F Y:40 P:A4 SP:F
D3FC  85 78     STA $78 = 41                    A:00 X:9F Y:40 P:26 SP:F
D3FE  20 06 F9  JSR $F906                       A:00 X:9F Y:40 P:26 SP:F
F906  A0 80     LDY #$80                        A:00 X:9F Y:40 P:26 SP:F
F908  60        RTS                             A:00 X:9F Y:80 P:A4 SP:F
D401  C4 78     CPY $78 = 00                    A:00 X:9F Y:80 P:A4 SP:F
D403  20 09 F9  JSR $F909                       A:00 X:9F Y:80 P:A5 SP:F
F909  F0 05     BEQ $F910                       A:00 X:9F Y:80 P:A5 SP:F
F90B  10 03     BPL $F910                       A:00 X:9F Y:80 P:A5 SP:F
F90D  90 01     BCC $F910                       A:00 X:9F Y:80 P:A5 SP:F
F90F  60        RTS                             A:00 X:9F Y:80 P:A5 SP:F
D406  E8        INX                             A:00 X:9F Y:80 P:A5 SP:F
D407  A9 80     LDA #$80                        A:00 X:A0 Y:80 P:A5 SP:F
D409  85 78     STA $78 = 00                    A:80 X:A0 Y:80 P:A5 SP:F
D40B  C4 78     CPY $78 = 80                    A:80 X:A0 Y:80 P:A5 SP:F
D40D  20 13 F9  JSR $F913                       A:80 X:A0 Y:80 P:27 SP:F
F913  D0 05     BNE $F91A                       A:80 X:A0 Y:80 P:27 SP:F
F915  30 03     BMI $F91A                       A:80 X:A0 Y:80 P:27 SP:F
F917  90 01     BCC $F91A                       A:80 X:A0 Y:80 P:27 SP:F
F919  60        RTS                             A:80 X:A0 Y:80 P:27 SP:F
D410  E8        INX                             A:80 X:A0 Y:80 P:27 SP:F
D411  A9 81     LDA #$81                        A:80 X:A1 Y:80 P:A5 SP:F
D413  85 78     STA $78 = 80                    A:81 X:A1 Y:80 P:A5 SP:F
D415  C4 78     CPY $78 = 81                    A:81 X:A1 Y:80 P:A5 SP:F
D417  20 1D F9  JSR $F91D                       A:81 X:A1 Y:80 P:A4 SP:F
F91D  B0 05     BCS $F924                       A:81 X:A1 Y:80 P:A4 SP:F
F91F  F0 03     BEQ $F924                       A:81 X:A1 Y:80 P:A4 SP:F
F921  10 01     BPL $F924                       A:81 X:A1 Y:80 P:A4 SP:F
F923  60        RTS                             A:81 X:A1 Y:80 P:A4 SP:F
D41A  E8        INX                             A:81 X:A1 Y:80 P:A4 SP:F
D41B  A9 7F     LDA #$7F                        A:81 X:A2 Y:80 P:A4 SP:F
D41D  85 78     STA $78 = 81                    A:7F X:A2 Y:80 P:24 SP:F
D41F  C4 78     CPY $78 = 7F                    A:7F X:A2 Y:80 P:24 SP:F
D421  20 27 F9  JSR $F927                       A:7F X:A2 Y:80 P:25 SP:F
F927  90 05     BCC $F92E                       A:7F X:A2 Y:80 P:25 SP:F
F929  F0 03     BEQ $F92E                       A:7F X:A2 Y:80 P:25 SP:F
F92B  30 01     BMI $F92E                       A:7F X:A2 Y:80 P:25 SP:F
F92D  60        RTS                             A:7F X:A2 Y:80 P:25 SP:F
D424  E8        INX                             A:7F X:A2 Y:80 P:25 SP:F
D425  8A        TXA                             A:7F X:A3 Y:80 P:A5 SP:F
D426  A8        TAY                             A:A3 X:A3 Y:80 P:A5 SP:F
D427  20 90 F9  JSR $F990                       A:A3 X:A3 Y:A3 P:A5 SP:F
F990  A2 55     LDX #$55                        A:A3 X:A3 Y:A3 P:A5 SP:F
F992  A9 FF     LDA #$FF                        A:A3 X:55 Y:A3 P:25 SP:F
F994  85 01     STA $01 = FF                    A:FF X:55 Y:A3 P:A5 SP:F
F996  EA        NOP                             A:FF X:55 Y:A3 P:A5 SP:F
F997  24 01     BIT $01 = FF                    A:FF X:55 Y:A3 P:A5 SP:F
F999  38        SEC                             A:FF X:55 Y:A3 P:E5 SP:F
F99A  A9 01     LDA #$01                        A:FF X:55 Y:A3 P:E5 SP:F
F99C  60        RTS                             A:01 X:55 Y:A3 P:65 SP:F
D42A  85 78     STA $78 = 7F                    A:01 X:55 Y:A3 P:65 SP:F
D42C  46 78     LSR $78 = 01                    A:01 X:55 Y:A3 P:65 SP:F
D42E  A5 78     LDA $78 = 00                    A:01 X:55 Y:A3 P:67 SP:F
D430  20 9D F9  JSR $F99D                       A:00 X:55 Y:A3 P:67 SP:F
F99D  90 1B     BCC $F9BA                       A:00 X:55 Y:A3 P:67 SP:F
F99F  D0 19     BNE $F9BA                       A:00 X:55 Y:A3 P:67 SP:F
F9A1  30 17     BMI $F9BA                       A:00 X:55 Y:A3 P:67 SP:F
F9A3  50 15     BVC $F9BA                       A:00 X:55 Y:A3 P:67 SP:F
F9A5  C9 00     CMP #$00                        A:00 X:55 Y:A3 P:67 SP:F
F9A7  D0 11     BNE $F9BA                       A:00 X:55 Y:A3 P:67 SP:F
F9A9  B8        CLV                             A:00 X:55 Y:A3 P:67 SP:F
F9AA  A9 AA     LDA #$AA                        A:00 X:55 Y:A3 P:27 SP:F
F9AC  60        RTS                             A:AA X:55 Y:A3 P:A5 SP:F
D433  C8        INY                             A:AA X:55 Y:A3 P:A5 SP:F
D434  85 78     STA $78 = 00                    A:AA X:55 Y:A4 P:A5 SP:F
D436  46 78     LSR $78 = AA                    A:AA X:55 Y:A4 P:A5 SP:F
D438  A5 78     LDA $78 = 55                    A:AA X:55 Y:A4 P:24 SP:F
D43A  20 AD F9  JSR $F9AD                       A:55 X:55 Y:A4 P:24 SP:F
F9AD  B0 0B     BCS $F9BA                       A:55 X:55 Y:A4 P:24 SP:F
F9AF  F0 09     BEQ $F9BA                       A:55 X:55 Y:A4 P:24 SP:F
F9B1  30 07     BMI $F9BA                       A:55 X:55 Y:A4 P:24 SP:F
F9B3  70 05     BVS $F9BA                       A:55 X:55 Y:A4 P:24 SP:F
F9B5  C9 55     CMP #$55                        A:55 X:55 Y:A4 P:24 SP:F
F9B7  D0 01     BNE $F9BA                       A:55 X:55 Y:A4 P:27 SP:F
F9B9  60        RTS                             A:55 X:55 Y:A4 P:27 SP:F
D43D  C8        INY                             A:55 X:55 Y:A4 P:27 SP:F
D43E  20 BD F9  JSR $F9BD                       A:55 X:55 Y:A5 P:A5 SP:F
F9BD  24 01     BIT $01 = FF                    A:55 X:55 Y:A5 P:A5 SP:F
F9BF  38        SEC                             A:55 X:55 Y:A5 P:E5 SP:F
F9C0  A9 80     LDA #$80                        A:55 X:55 Y:A5 P:E5 SP:F
F9C2  60        RTS                             A:80 X:55 Y:A5 P:E5 SP:F
D441  85 78     STA $78 = 55                    A:80 X:55 Y:A5 P:E5 SP:F
D443  06 78     ASL $78 = 80                    A:80 X:55 Y:A5 P:E5 SP:F
D445  A5 78     LDA $78 = 00                    A:80 X:55 Y:A5 P:67 SP:F
D447  20 C3 F9  JSR $F9C3                       A:00 X:55 Y:A5 P:67 SP:F
F9C3  90 1C     BCC $F9E1                       A:00 X:55 Y:A5 P:67 SP:F
F9C5  D0 1A     BNE $F9E1                       A:00 X:55 Y:A5 P:67 SP:F
F9C7  30 18     BMI $F9E1                       A:00 X:55 Y:A5 P:67 SP:F
F9C9  50 16     BVC $F9E1                       A:00 X:55 Y:A5 P:67 SP:F
F9CB  C9 00     CMP #$00                        A:00 X:55 Y:A5 P:67 SP:F
F9CD  D0 12     BNE $F9E1                       A:00 X:55 Y:A5 P:67 SP:F
F9CF  B8        CLV                             A:00 X:55 Y:A5 P:67 SP:F
F9D0  A9 55     LDA #$55                        A:00 X:55 Y:A5 P:27 SP:F
F9D2  38        SEC                             A:55 X:55 Y:A5 P:25 SP:F
F9D3  60        RTS                             A:55 X:55 Y:A5 P:25 SP:F
D44A  C8        INY                             A:55 X:55 Y:A5 P:25 SP:F
D44B  85 78     STA $78 = 00                    A:55 X:55 Y:A6 P:A5 SP:F
D44D  06 78     ASL $78 = 55                    A:55 X:55 Y:A6 P:A5 SP:F
D44F  A5 78     LDA $78 = AA                    A:55 X:55 Y:A6 P:A4 SP:F
D451  20 D4 F9  JSR $F9D4                       A:AA X:55 Y:A6 P:A4 SP:F
F9D4  B0 0B     BCS $F9E1                       A:AA X:55 Y:A6 P:A4 SP:F
F9D6  F0 09     BEQ $F9E1                       A:AA X:55 Y:A6 P:A4 SP:F
F9D8  10 07     BPL $F9E1                       A:AA X:55 Y:A6 P:A4 SP:F
F9DA  70 05     BVS $F9E1                       A:AA X:55 Y:A6 P:A4 SP:F
F9DC  C9 AA     CMP #$AA                        A:AA X:55 Y:A6 P:A4 SP:F
F9DE  D0 01     BNE $F9E1                       A:AA X:55 Y:A6 P:27 SP:F
F9E0  60        RTS                             A:AA X:55 Y:A6 P:27 SP:F
D454  C8        INY                             A:AA X:55 Y:A6 P:27 SP:F
D455  20 E4 F9  JSR $F9E4                       A:AA X:55 Y:A7 P:A5 SP:F
F9E4  24 01     BIT $01 = FF                    A:AA X:55 Y:A7 P:A5 SP:F
F9E6  38        SEC                             A:AA X:55 Y:A7 P:E5 SP:F
F9E7  A9 01     LDA #$01                        A:AA X:55 Y:A7 P:E5 SP:F
F9E9  60        RTS                             A:01 X:55 Y:A7 P:65 SP:F
D458  85 78     STA $78 = AA                    A:01 X:55 Y:A7 P:65 SP:F
D45A  66 78     ROR $78 = 01                    A:01 X:55 Y:A7 P:65 SP:F
D45C  A5 78     LDA $78 = 80                    A:01 X:55 Y:A7 P:E5 SP:F
D45E  20 EA F9  JSR $F9EA                       A:80 X:55 Y:A7 P:E5 SP:F
F9EA  90 1C     BCC $FA08                       A:80 X:55 Y:A7 P:E5 SP:F
F9EC  F0 1A     BEQ $FA08                       A:80 X:55 Y:A7 P:E5 SP:F
F9EE  10 18     BPL $FA08                       A:80 X:55 Y:A7 P:E5 SP:F
F9F0  50 16     BVC $FA08                       A:80 X:55 Y:A7 P:E5 SP:F
F9F2  C9 80     CMP #$80                        A:80 X:55 Y:A7 P:E5 SP:F
F9F4  D0 12     BNE $FA08                       A:80 X:55 Y:A7 P:67 SP:F
F9F6  B8        CLV                             A:80 X:55 Y:A7 P:67 SP:F
F9F7  18        CLC                             A:80 X:55 Y:A7 P:27 SP:F
F9F8  A9 55     LDA #$55                        A:80 X:55 Y:A7 P:26 SP:F
F9FA  60        RTS                             A:55 X:55 Y:A7 P:24 SP:F
D461  C8        INY                             A:55 X:55 Y:A7 P:24 SP:F
D462  85 78     STA $78 = 80                    A:55 X:55 Y:A8 P:A4 SP:F
D464  66 78     ROR $78 = 55                    A:55 X:55 Y:A8 P:A4 SP:F
D466  A5 78     LDA $78 = 2A                    A:55 X:55 Y:A8 P:25 SP:F
D468  20 FB F9  JSR $F9FB                       A:2A X:55 Y:A8 P:25 SP:F
F9FB  90 0B     BCC $FA08                       A:2A X:55 Y:A8 P:25 SP:F
F9FD  F0 09     BEQ $FA08                       A:2A X:55 Y:A8 P:25 SP:F
F9FF  30 07     BMI $FA08                       A:2A X:55 Y:A8 P:25 SP:F
FA01  70 05     BVS $FA08                       A:2A X:55 Y:A8 P:25 SP:F
FA03  C9 2A     CMP #$2A                        A:2A X:55 Y:A8 P:25 SP:F
FA05  D0 01     BNE $FA08                       A:2A X:55 Y:A8 P:27 SP:F
FA07  60        RTS                             A:2A X:55 Y:A8 P:27 SP:F
D46B  C8        INY                             A:2A X:55 Y:A8 P:27 SP:F
D46C  20 0A FA  JSR $FA0A                       A:2A X:55 Y:A9 P:A5 SP:F
FA0A  24 01     BIT $01 = FF                    A:2A X:55 Y:A9 P:A5 SP:F
FA0C  38        SEC                             A:2A X:55 Y:A9 P:E5 SP:F
FA0D  A9 80     LDA #$80                        A:2A X:55 Y:A9 P:E5 SP:F
FA0F  60        RTS                             A:80 X:55 Y:A9 P:E5 SP:F
D46F  85 78     STA $78 = 2A                    A:80 X:55 Y:A9 P:E5 SP:F
D471  26 78     ROL $78 = 80                    A:80 X:55 Y:A9 P:E5 SP:F
D473  A5 78     LDA $78 = 01                    A:80 X:55 Y:A9 P:65 SP:F
D475  20 10 FA  JSR $FA10                       A:01 X:55 Y:A9 P:65 SP:F
FA10  90 1C     BCC $FA2E                       A:01 X:55 Y:A9 P:65 SP:F
FA12  F0 1A     BEQ $FA2E                       A:01 X:55 Y:A9 P:65 SP:F
FA14  30 18     BMI $FA2E                       A:01 X:55 Y:A9 P:65 SP:F
FA16  50 16     BVC $FA2E                       A:01 X:55 Y:A9 P:65 SP:F
FA18  C9 01     CMP #$01                        A:01 X:55 Y:A9 P:65 SP:F
FA1A  D0 12     BNE $FA2E                       A:01 X:55 Y:A9 P:67 SP:F
FA1C  B8        CLV                             A:01 X:55 Y:A9 P:67 SP:F
FA1D  18        CLC                             A:01 X:55 Y:A9 P:27 SP:F
FA1E  A9 55     LDA #$55                        A:01 X:55 Y:A9 P:26 SP:F
FA20  60        RTS                             A:55 X:55 Y:A9 P:24 SP:F
D478  C8        INY                             A:55 X:55 Y:A9 P:24 SP:F
D479  85 78     STA $78 = 01                    A:55 X:55 Y:AA P:A4 SP:F
D47B  26 78     ROL $78 = 55                    A:55 X:55 Y:AA P:A4 SP:F
D47D  A5 78     LDA $78 = AA                    A:55 X:55 Y:AA P:A4 SP:F
D47F  20 21 FA  JSR $FA21                       A:AA X:55 Y:AA P:A4 SP:F
FA21  B0 0B     BCS $FA2E                       A:AA X:55 Y:AA P:A4 SP:F
FA23  F0 09     BEQ $FA2E                       A:AA X:55 Y:AA P:A4 SP:F
FA25  10 07     BPL $FA2E                       A:AA X:55 Y:AA P:A4 SP:F
FA27  70 05     BVS $FA2E                       A:AA X:55 Y:AA P:A4 SP:F
FA29  C9 AA     CMP #$AA                        A:AA X:55 Y:AA P:A4 SP:F
FA2B  D0 01     BNE $FA2E                       A:AA X:55 Y:AA P:27 SP:F
FA2D  60        RTS                             A:AA X:55 Y:AA P:27 SP:F
D482  A9 FF     LDA #$FF                        A:AA X:55 Y:AA P:27 SP:F
D484  85 78     STA $78 = AA                    A:FF X:55 Y:AA P:A5 SP:F
D486  85 01     STA $01 = FF                    A:FF X:55 Y:AA P:A5 SP:F
D488  24 01     BIT $01 = FF                    A:FF X:55 Y:AA P:A5 SP:F
D48A  38        SEC                             A:FF X:55 Y:AA P:E5 SP:F
D48B  E6 78     INC $78 = FF                    A:FF X:55 Y:AA P:E5 SP:F
D48D  D0 0C     BNE $D49B                       A:FF X:55 Y:AA P:67 SP:F
D48F  30 0A     BMI $D49B                       A:FF X:55 Y:AA P:67 SP:F
D491  50 08     BVC $D49B                       A:FF X:55 Y:AA P:67 SP:F
D493  90 06     BCC $D49B                       A:FF X:55 Y:AA P:67 SP:F
D495  A5 78     LDA $78 = 00                    A:FF X:55 Y:AA P:67 SP:F
D497  C9 00     CMP #$00                        A:00 X:55 Y:AA P:67 SP:F
D499  F0 04     BEQ $D49F                       A:00 X:55 Y:AA P:67 SP:F
D49F  A9 7F     LDA #$7F                        A:00 X:55 Y:AA P:67 SP:F
D4A1  85 78     STA $78 = 00                    A:7F X:55 Y:AA P:65 SP:F
D4A3  B8        CLV                             A:7F X:55 Y:AA P:65 SP:F
D4A4  18        CLC                             A:7F X:55 Y:AA P:25 SP:F
D4A5  E6 78     INC $78 = 7F                    A:7F X:55 Y:AA P:24 SP:F
D4A7  F0 0C     BEQ $D4B5                       A:7F X:55 Y:AA P:A4 SP:F
D4A9  10 0A     BPL $D4B5                       A:7F X:55 Y:AA P:A4 SP:F
D4AB  70 08     BVS $D4B5                       A:7F X:55 Y:AA P:A4 SP:F
D4AD  B0 06     BCS $D4B5                       A:7F X:55 Y:AA P:A4 SP:F
D4AF  A5 78     LDA $78 = 80                    A:7F X:55 Y:AA P:A4 SP:F
D4B1  C9 80     CMP #$80                        A:80 X:55 Y:AA P:A4 SP:F
D4B3  F0 04     BEQ $D4B9                       A:80 X:55 Y:AA P:27 SP:F
D4B9  A9 00     LDA #$00                        A:80 X:55 Y:AA P:27 SP:F
D4BB  85 78     STA $78 = 80                    A:00 X:55 Y:AA P:27 SP:F
D4BD  24 01     BIT $01 = FF                    A:00 X:55 Y:AA P:27 SP:F
D4BF  38        SEC                             A:00 X:55 Y:AA P:E7 SP:F
D4C0  C6 78     DEC $78 = 00                    A:00 X:55 Y:AA P:E7 SP:F
D4C2  F0 0C     BEQ $D4D0                       A:00 X:55 Y:AA P:E5 SP:F
D4C4  10 0A     BPL $D4D0                       A:00 X:55 Y:AA P:E5 SP:F
D4C6  50 08     BVC $D4D0                       A:00 X:55 Y:AA P:E5 SP:F
D4C8  90 06     BCC $D4D0                       A:00 X:55 Y:AA P:E5 SP:F
D4CA  A5 78     LDA $78 = FF                    A:00 X:55 Y:AA P:E5 SP:F
D4CC  C9 FF     CMP #$FF                        A:FF X:55 Y:AA P:E5 SP:F
D4CE  F0 04     BEQ $D4D4                       A:FF X:55 Y:AA P:67 SP:F
D4D4  A9 80     LDA #$80                        A:FF X:55 Y:AA P:67 SP:F
D4D6  85 78     STA $78 = FF                    A:80 X:55 Y:AA P:E5 SP:F
D4D8  B8        CLV                             A:80 X:55 Y:AA P:E5 SP:F
D4D9  18        CLC                             A:80 X:55 Y:AA P:A5 SP:F
D4DA  C6 78     DEC $78 = 80                    A:80 X:55 Y:AA P:A4 SP:F
D4DC  F0 0C     BEQ $D4EA                       A:80 X:55 Y:AA P:24 SP:F
D4DE  30 0A     BMI $D4EA                       A:80 X:55 Y:AA P:24 SP:F
D4E0  70 08     BVS $D4EA                       A:80 X:55 Y:AA P:24 SP:F
D4E2  B0 06     BCS $D4EA                       A:80 X:55 Y:AA P:24 SP:F
D4E4  A5 78     LDA $78 = 7F                    A:80 X:55 Y:AA P:24 SP:F
D4E6  C9 7F     CMP #$7F                        A:7F X:55 Y:AA P:24 SP:F
D4E8  F0 04     BEQ $D4EE                       A:7F X:55 Y:AA P:27 SP:F
D4EE  A9 01     LDA #$01                        A:7F X:55 Y:AA P:27 SP:F
D4F0  85 78     STA $78 = 7F                    A:01 X:55 Y:AA P:25 SP:F
D4F2  C6 78     DEC $78 = 01                    A:01 X:55 Y:AA P:25 SP:F
D4F4  F0 04     BEQ $D4FA                       A:01 X:55 Y:AA P:27 SP:F
D4FA  60        RTS                             A:01 X:55 Y:AA P:27 SP:F
C615  20 FB D4  JSR $D4FB                       A:01 X:55 Y:AA P:27 SP:F
D4FB  A9 55     LDA #$55                        A:01 X:55 Y:AA P:27 SP:F
D4FD  8D 78 06  STA $0678 = 00                  A:55 X:55 Y:AA P:25 SP:F
D500  A9 FF     LDA #$FF                        A:55 X:55 Y:AA P:25 SP:F
D502  85 01     STA $01 = FF                    A:FF X:55 Y:AA P:A5 SP:F
D504  24 01     BIT $01 = FF                    A:FF X:55 Y:AA P:A5 SP:F
D506  A0 11     LDY #$11                        A:FF X:55 Y:AA P:E5 SP:F
D508  A2 23     LDX #$23                        A:FF X:55 Y:11 P:65 SP:F
D50A  A9 00     LDA #$00                        A:FF X:23 Y:11 P:65 SP:F
D50C  AD 78 06  LDA $0678 = 55                  A:00 X:23 Y:11 P:67 SP:F
D50F  F0 10     BEQ $D521                       A:55 X:23 Y:11 P:65 SP:F
D511  30 0E     BMI $D521                       A:55 X:23 Y:11 P:65 SP:F
D513  C9 55     CMP #$55                        A:55 X:23 Y:11 P:65 SP:F
D515  D0 0A     BNE $D521                       A:55 X:23 Y:11 P:67 SP:F
D517  C0 11     CPY #$11                        A:55 X:23 Y:11 P:67 SP:F
D519  D0 06     BNE $D521                       A:55 X:23 Y:11 P:67 SP:F
D51B  E0 23     CPX #$23                        A:55 X:23 Y:11 P:67 SP:F
D51D  50 02     BVC $D521                       A:55 X:23 Y:11 P:67 SP:F
D51F  F0 04     BEQ $D525                       A:55 X:23 Y:11 P:67 SP:F
D525  A9 46     LDA #$46                        A:55 X:23 Y:11 P:67 SP:F
D527  24 01     BIT $01 = FF                    A:46 X:23 Y:11 P:65 SP:F
D529  8D 78 06  STA $0678 = 55                  A:46 X:23 Y:11 P:E5 SP:F
D52C  F0 0B     BEQ $D539                       A:46 X:23 Y:11 P:E5 SP:F
D52E  10 09     BPL $D539                       A:46 X:23 Y:11 P:E5 SP:F
D530  50 07     BVC $D539                       A:46 X:23 Y:11 P:E5 SP:F
D532  AD 78 06  LDA $0678 = 46                  A:46 X:23 Y:11 P:E5 SP:F
D535  C9 46     CMP #$46                        A:46 X:23 Y:11 P:65 SP:F
D537  F0 04     BEQ $D53D                       A:46 X:23 Y:11 P:67 SP:F
D53D  A9 55     LDA #$55                        A:46 X:23 Y:11 P:67 SP:F
D53F  8D 78 06  STA $0678 = 46                  A:55 X:23 Y:11 P:65 SP:F
D542  24 01     BIT $01 = FF                    A:55 X:23 Y:11 P:65 SP:F
D544  A9 11     LDA #$11                        A:55 X:23 Y:11 P:E5 SP:F
D546  A2 23     LDX #$23                        A:11 X:23 Y:11 P:65 SP:F
D548  A0 00     LDY #$00                        A:11 X:23 Y:11 P:65 SP:F
D54A  AC 78 06  LDY $0678 = 55                  A:11 X:23 Y:00 P:67 SP:F
D54D  F0 10     BEQ $D55F                       A:11 X:23 Y:55 P:65 SP:F
D54F  30 0E     BMI $D55F                       A:11 X:23 Y:55 P:65 SP:F
D551  C0 55     CPY #$55                        A:11 X:23 Y:55 P:65 SP:F
D553  D0 0A     BNE $D55F                       A:11 X:23 Y:55 P:67 SP:F
D555  C9 11     CMP #$11                        A:11 X:23 Y:55 P:67 SP:F
D557  D0 06     BNE $D55F                       A:11 X:23 Y:55 P:67 SP:F
D559  E0 23     CPX #$23                        A:11 X:23 Y:55 P:67 SP:F
D55B  50 02     BVC $D55F                       A:11 X:23 Y:55 P:67 SP:F
D55D  F0 04     BEQ $D563                       A:11 X:23 Y:55 P:67 SP:F
D563  A0 46     LDY #$46                        A:11 X:23 Y:55 P:67 SP:F
D565  24 01     BIT $01 = FF                    A:11 X:23 Y:46 P:65 SP:F
D567  8C 78 06  STY $0678 = 55                  A:11 X:23 Y:46 P:E5 SP:F
D56A  F0 0B     BEQ $D577                       A:11 X:23 Y:46 P:E5 SP:F
D56C  10 09     BPL $D577                       A:11 X:23 Y:46 P:E5 SP:F
D56E  50 07     BVC $D577                       A:11 X:23 Y:46 P:E5 SP:F
D570  AC 78 06  LDY $0678 = 46                  A:11 X:23 Y:46 P:E5 SP:F
D573  C0 46     CPY #$46                        A:11 X:23 Y:46 P:65 SP:F
D575  F0 04     BEQ $D57B                       A:11 X:23 Y:46 P:67 SP:F
D57B  24 01     BIT $01 = FF                    A:11 X:23 Y:46 P:67 SP:F
D57D  A9 55     LDA #$55                        A:11 X:23 Y:46 P:E5 SP:F
D57F  8D 78 06  STA $0678 = 46                  A:55 X:23 Y:46 P:65 SP:F
D582  A0 11     LDY #$11                        A:55 X:23 Y:46 P:65 SP:F
D584  A9 23     LDA #$23                        A:55 X:23 Y:11 P:65 SP:F
D586  A2 00     LDX #$00                        A:23 X:23 Y:11 P:65 SP:F
D588  AE 78 06  LDX $0678 = 55                  A:23 X:00 Y:11 P:67 SP:F
D58B  F0 10     BEQ $D59D                       A:23 X:55 Y:11 P:65 SP:F
D58D  30 0E     BMI $D59D                       A:23 X:55 Y:11 P:65 SP:F
D58F  E0 55     CPX #$55                        A:23 X:55 Y:11 P:65 SP:F
D591  D0 0A     BNE $D59D                       A:23 X:55 Y:11 P:67 SP:F
D593  C0 11     CPY #$11                        A:23 X:55 Y:11 P:67 SP:F
D595  D0 06     BNE $D59D                       A:23 X:55 Y:11 P:67 SP:F
D597  C9 23     CMP #$23                        A:23 X:55 Y:11 P:67 SP:F
D599  50 02     BVC $D59D                       A:23 X:55 Y:11 P:67 SP:F
D59B  F0 04     BEQ $D5A1                       A:23 X:55 Y:11 P:67 SP:F
D5A1  A2 46     LDX #$46                        A:23 X:55 Y:11 P:67 SP:F
D5A3  24 01     BIT $01 = FF                    A:23 X:46 Y:11 P:65 SP:F
D5A5  8E 78 06  STX $0678 = 55                  A:23 X:46 Y:11 P:E5 SP:F
D5A8  F0 0B     BEQ $D5B5                       A:23 X:46 Y:11 P:E5 SP:F
D5AA  10 09     BPL $D5B5                       A:23 X:46 Y:11 P:E5 SP:F
D5AC  50 07     BVC $D5B5                       A:23 X:46 Y:11 P:E5 SP:F
D5AE  AE 78 06  LDX $0678 = 46                  A:23 X:46 Y:11 P:E5 SP:F
D5B1  E0 46     CPX #$46                        A:23 X:46 Y:11 P:65 SP:F
D5B3  F0 04     BEQ $D5B9                       A:23 X:46 Y:11 P:67 SP:F
D5B9  A9 C0     LDA #$C0                        A:23 X:46 Y:11 P:67 SP:F
D5BB  8D 78 06  STA $0678 = 46                  A:C0 X:46 Y:11 P:E5 SP:F
D5BE  A2 33     LDX #$33                        A:C0 X:46 Y:11 P:E5 SP:F
D5C0  A0 88     LDY #$88                        A:C0 X:33 Y:11 P:65 SP:F
D5C2  A9 05     LDA #$05                        A:C0 X:33 Y:88 P:E5 SP:F
D5C4  2C 78 06  BIT $0678 = C0                  A:05 X:33 Y:88 P:65 SP:F
D5C7  10 10     BPL $D5D9                       A:05 X:33 Y:88 P:E7 SP:F
D5C9  50 0E     BVC $D5D9                       A:05 X:33 Y:88 P:E7 SP:F
D5CB  D0 0C     BNE $D5D9                       A:05 X:33 Y:88 P:E7 SP:F
D5CD  C9 05     CMP #$05                        A:05 X:33 Y:88 P:E7 SP:F
D5CF  D0 08     BNE $D5D9                       A:05 X:33 Y:88 P:67 SP:F
D5D1  E0 33     CPX #$33                        A:05 X:33 Y:88 P:67 SP:F
D5D3  D0 04     BNE $D5D9                       A:05 X:33 Y:88 P:67 SP:F
D5D5  C0 88     CPY #$88                        A:05 X:33 Y:88 P:67 SP:F
D5D7  F0 04     BEQ $D5DD                       A:05 X:33 Y:88 P:67 SP:F
D5DD  A9 03     LDA #$03                        A:05 X:33 Y:88 P:67 SP:F
D5DF  8D 78 06  STA $0678 = C0                  A:03 X:33 Y:88 P:65 SP:F
D5E2  A9 01     LDA #$01                        A:03 X:33 Y:88 P:65 SP:F
D5E4  2C 78 06  BIT $0678 = 03                  A:01 X:33 Y:88 P:65 SP:F
D5E7  30 08     BMI $D5F1                       A:01 X:33 Y:88 P:25 SP:F
D5E9  70 06     BVS $D5F1                       A:01 X:33 Y:88 P:25 SP:F
D5EB  F0 04     BEQ $D5F1                       A:01 X:33 Y:88 P:25 SP:F
D5ED  C9 01     CMP #$01                        A:01 X:33 Y:88 P:25 SP:F
D5EF  F0 04     BEQ $D5F5                       A:01 X:33 Y:88 P:27 SP:F
D5F5  A0 B8     LDY #$B8                        A:01 X:33 Y:88 P:27 SP:F
D5F7  A9 AA     LDA #$AA                        A:01 X:33 Y:B8 P:A5 SP:F
D5F9  8D 78 06  STA $0678 = 03                  A:AA X:33 Y:B8 P:A5 SP:F
D5FC  20 B6 F7  JSR $F7B6                       A:AA X:33 Y:B8 P:A5 SP:F
F7B6  18        CLC                             A:AA X:33 Y:B8 P:A5 SP:F
F7B7  A9 FF     LDA #$FF                        A:AA X:33 Y:B8 P:A4 SP:F
F7B9  85 01     STA $01 = FF                    A:FF X:33 Y:B8 P:A4 SP:F
F7BB  24 01     BIT $01 = FF                    A:FF X:33 Y:B8 P:A4 SP:F
F7BD  A9 55     LDA #$55                        A:FF X:33 Y:B8 P:E4 SP:F
F7BF  60        RTS                             A:55 X:33 Y:B8 P:64 SP:F
D5FF  0D 78 06  ORA $0678 = AA                  A:55 X:33 Y:B8 P:64 SP:F
D602  20 C0 F7  JSR $F7C0                       A:FF X:33 Y:B8 P:E4 SP:F
F7C0  B0 09     BCS $F7CB                       A:FF X:33 Y:B8 P:E4 SP:F
F7C2  10 07     BPL $F7CB                       A:FF X:33 Y:B8 P:E4 SP:F
F7C4  C9 FF     CMP #$FF                        A:FF X:33 Y:B8 P:E4 SP:F
F7C6  D0 03     BNE $F7CB                       A:FF X:33 Y:B8 P:67 SP:F
F7C8  50 01     BVC $F7CB                       A:FF X:33 Y:B8 P:67 SP:F
F7CA  60        RTS                             A:FF X:33 Y:B8 P:67 SP:F
D605  C8        INY                             A:FF X:33 Y:B8 P:67 SP:F
D606  A9 00     LDA #$00                        A:FF X:33 Y:B9 P:E5 SP:F
D608  8D 78 06  STA $0678 = AA                  A:00 X:33 Y:B9 P:67 SP:F
D60B  20 CE F7  JSR $F7CE                       A:00 X:33 Y:B9 P:67 SP:F
F7CE  38        SEC                             A:00 X:33 Y:B9 P:67 SP:F
F7CF  B8        CLV                             A:00 X:33 Y:B9 P:67 SP:F
F7D0  A9 00     LDA #$00                        A:00 X:33 Y:B9 P:27 SP:F
F7D2  60        RTS                             A:00 X:33 Y:B9 P:27 SP:F
D60E  0D 78 06  ORA $0678 = 00                  A:00 X:33 Y:B9 P:27 SP:F
D611  20 D3 F7  JSR $F7D3                       A:00 X:33 Y:B9 P:27 SP:F
F7D3  D0 07     BNE $F7DC                       A:00 X:33 Y:B9 P:27 SP:F
F7D5  70 05     BVS $F7DC                       A:00 X:33 Y:B9 P:27 SP:F
F7D7  90 03     BCC $F7DC                       A:00 X:33 Y:B9 P:27 SP:F
F7D9  30 01     BMI $F7DC                       A:00 X:33 Y:B9 P:27 SP:F
F7DB  60        RTS                             A:00 X:33 Y:B9 P:27 SP:F
D614  C8        INY                             A:00 X:33 Y:B9 P:27 SP:F
D615  A9 AA     LDA #$AA                        A:00 X:33 Y:BA P:A5 SP:F
D617  8D 78 06  STA $0678 = 00                  A:AA X:33 Y:BA P:A5 SP:F
D61A  20 DF F7  JSR $F7DF                       A:AA X:33 Y:BA P:A5 SP:F
F7DF  18        CLC                             A:AA X:33 Y:BA P:A5 SP:F
F7E0  24 01     BIT $01 = FF                    A:AA X:33 Y:BA P:A4 SP:F
F7E2  A9 55     LDA #$55                        A:AA X:33 Y:BA P:E4 SP:F
F7E4  60        RTS                             A:55 X:33 Y:BA P:64 SP:F
D61D  2D 78 06  AND $0678 = AA                  A:55 X:33 Y:BA P:64 SP:F
D620  20 E5 F7  JSR $F7E5                       A:00 X:33 Y:BA P:66 SP:F
F7E5  D0 07     BNE $F7EE                       A:00 X:33 Y:BA P:66 SP:F
F7E7  50 05     BVC $F7EE                       A:00 X:33 Y:BA P:66 SP:F
F7E9  B0 03     BCS $F7EE                       A:00 X:33 Y:BA P:66 SP:F
F7EB  30 01     BMI $F7EE                       A:00 X:33 Y:BA P:66 SP:F
F7ED  60        RTS                             A:00 X:33 Y:BA P:66 SP:F
D623  C8        INY                             A:00 X:33 Y:BA P:66 SP:F
D624  A9 EF     LDA #$EF                        A:00 X:33 Y:BB P:E4 SP:F
D626  8D 78 06  STA $0678 = AA                  A:EF X:33 Y:BB P:E4 SP:F
D629  20 F1 F7  JSR $F7F1                       A:EF X:33 Y:BB P:E4 SP:F
F7F1  38        SEC                             A:EF X:33 Y:BB P:E4 SP:F
F7F2  B8        CLV                             A:EF X:33 Y:BB P:E5 SP:F
F7F3  A9 F8     LDA #$F8                        A:EF X:33 Y:BB P:A5 SP:F
F7F5  60        RTS                             A:F8 X:33 Y:BB P:A5 SP:F
D62C  2D 78 06  AND $0678 = EF                  A:F8 X:33 Y:BB P:A5 SP:F
D62F  20 F6 F7  JSR $F7F6                       A:E8 X:33 Y:BB P:A5 SP:F
F7F6  90 09     BCC $F801                       A:E8 X:33 Y:BB P:A5 SP:F
F7F8  10 07     BPL $F801                       A:E8 X:33 Y:BB P:A5 SP:F
F7FA  C9 E8     CMP #$E8                        A:E8 X:33 Y:BB P:A5 SP:F
F7FC  D0 03     BNE $F801                       A:E8 X:33 Y:BB P:27 SP:F
F7FE  70 01     BVS $F801                       A:E8 X:33 Y:BB P:27 SP:F
F800  60        RTS                             A:E8 X:33 Y:BB P:27 SP:F
D632  C8        INY                             A:E8 X:33 Y:BB P:27 SP:F
D633  A9 AA     LDA #$AA                        A:E8 X:33 Y:BC P:A5 SP:F
D635  8D 78 06  STA $0678 = EF                  A:AA X:33 Y:BC P:A5 SP:F
D638  20 04 F8  JSR $F804                       A:AA X:33 Y:BC P:A5 SP:F
F804  18        CLC                             A:AA X:33 Y:BC P:A5 SP:F
F805  24 01     BIT $01 = FF                    A:AA X:33 Y:BC P:A4 SP:F
F807  A9 5F     LDA #$5F                        A:AA X:33 Y:BC P:E4 SP:F
F809  60        RTS                             A:5F X:33 Y:BC P:64 SP:F
D63B  4D 78 06  EOR $0678 = AA                  A:5F X:33 Y:BC P:64 SP:F
D63E  20 0A F8  JSR $F80A                       A:F5 X:33 Y:BC P:E4 SP:F
F80A  B0 09     BCS $F815                       A:F5 X:33 Y:BC P:E4 SP:F
F80C  10 07     BPL $F815                       A:F5 X:33 Y:BC P:E4 SP:F
F80E  C9 F5     CMP #$F5                        A:F5 X:33 Y:BC P:E4 SP:F
F810  D0 03     BNE $F815                       A:F5 X:33 Y:BC P:67 SP:F
F812  50 01     BVC $F815                       A:F5 X:33 Y:BC P:67 SP:F
F814  60        RTS                             A:F5 X:33 Y:BC P:67 SP:F
D641  C8        INY                             A:F5 X:33 Y:BC P:67 SP:F
D642  A9 70     LDA #$70                        A:F5 X:33 Y:BD P:E5 SP:F
D644  8D 78 06  STA $0678 = AA                  A:70 X:33 Y:BD P:65 SP:F
D647  20 18 F8  JSR $F818                       A:70 X:33 Y:BD P:65 SP:F
F818  38        SEC                             A:70 X:33 Y:BD P:65 SP:F
F819  B8        CLV                             A:70 X:33 Y:BD P:65 SP:F
F81A  A9 70     LDA #$70                        A:70 X:33 Y:BD P:25 SP:F
F81C  60        RTS                             A:70 X:33 Y:BD P:25 SP:F
D64A  4D 78 06  EOR $0678 = 70                  A:70 X:33 Y:BD P:25 SP:F
D64D  20 1D F8  JSR $F81D                       A:00 X:33 Y:BD P:27 SP:F
F81D  D0 07     BNE $F826                       A:00 X:33 Y:BD P:27 SP:F
F81F  70 05     BVS $F826                       A:00 X:33 Y:BD P:27 SP:F
F821  90 03     BCC $F826                       A:00 X:33 Y:BD P:27 SP:F
F823  30 01     BMI $F826                       A:00 X:33 Y:BD P:27 SP:F
F825  60        RTS                             A:00 X:33 Y:BD P:27 SP:F
D650  C8        INY                             A:00 X:33 Y:BD P:27 SP:F
D651  A9 69     LDA #$69                        A:00 X:33 Y:BE P:A5 SP:F
D653  8D 78 06  STA $0678 = 70                  A:69 X:33 Y:BE P:25 SP:F
D656  20 29 F8  JSR $F829                       A:69 X:33 Y:BE P:25 SP:F
F829  18        CLC                             A:69 X:33 Y:BE P:25 SP:F
F82A  24 01     BIT $01 = FF                    A:69 X:33 Y:BE P:24 SP:F
F82C  A9 00     LDA #$00                        A:69 X:33 Y:BE P:E4 SP:F
F82E  60        RTS                             A:00 X:33 Y:BE P:66 SP:F
D659  6D 78 06  ADC $0678 = 69                  A:00 X:33 Y:BE P:66 SP:F
D65C  20 2F F8  JSR $F82F                       A:69 X:33 Y:BE P:24 SP:F
F82F  30 09     BMI $F83A                       A:69 X:33 Y:BE P:24 SP:F
F831  B0 07     BCS $F83A                       A:69 X:33 Y:BE P:24 SP:F
F833  C9 69     CMP #$69                        A:69 X:33 Y:BE P:24 SP:F
F835  D0 03     BNE $F83A                       A:69 X:33 Y:BE P:27 SP:F
F837  70 01     BVS $F83A                       A:69 X:33 Y:BE P:27 SP:F
F839  60        RTS                             A:69 X:33 Y:BE P:27 SP:F
D65F  C8        INY                             A:69 X:33 Y:BE P:27 SP:F
D660  20 3D F8  JSR $F83D                       A:69 X:33 Y:BF P:A5 SP:F
F83D  38        SEC                             A:69 X:33 Y:BF P:A5 SP:F
F83E  24 01     BIT $01 = FF                    A:69 X:33 Y:BF P:A5 SP:F
F840  A9 00     LDA #$00                        A:69 X:33 Y:BF P:E5 SP:F
F842  60        RTS                             A:00 X:33 Y:BF P:67 SP:F
D663  6D 78 06  ADC $0678 = 69                  A:00 X:33 Y:BF P:67 SP:F
D666  20 43 F8  JSR $F843                       A:6A X:33 Y:BF P:24 SP:F
F843  30 09     BMI $F84E                       A:6A X:33 Y:BF P:24 SP:F
F845  B0 07     BCS $F84E                       A:6A X:33 Y:BF P:24 SP:F
F847  C9 6A     CMP #$6A                        A:6A X:33 Y:BF P:24 SP:F
F849  D0 03     BNE $F84E                       A:6A X:33 Y:BF P:27 SP:F
F84B  70 01     BVS $F84E                       A:6A X:33 Y:BF P:27 SP:F
F84D  60        RTS                             A:6A X:33 Y:BF P:27 SP:F
D669  C8        INY                             A:6A X:33 Y:BF P:27 SP:F
D66A  A9 7F     LDA #$7F                        A:6A X:33 Y:C0 P:A5 SP:F
D66C  8D 78 06  STA $0678 = 69                  A:7F X:33 Y:C0 P:25 SP:F
D66F  20 51 F8  JSR $F851                       A:7F X:33 Y:C0 P:25 SP:F
F851  38        SEC                             A:7F X:33 Y:C0 P:25 SP:F
F852  B8        CLV                             A:7F X:33 Y:C0 P:25 SP:F
F853  A9 7F     LDA #$7F                        A:7F X:33 Y:C0 P:25 SP:F
F855  60        RTS                             A:7F X:33 Y:C0 P:25 SP:F
D672  6D 78 06  ADC $0678 = 7F                  A:7F X:33 Y:C0 P:25 SP:F
D675  20 56 F8  JSR $F856                       A:FF X:33 Y:C0 P:E4 SP:F
F856  10 09     BPL $F861                       A:FF X:33 Y:C0 P:E4 SP:F
F858  B0 07     BCS $F861                       A:FF X:33 Y:C0 P:E4 SP:F
F85A  C9 FF     CMP #$FF                        A:FF X:33 Y:C0 P:E4 SP:F
F85C  D0 03     BNE $F861                       A:FF X:33 Y:C0 P:67 SP:F
F85E  50 01     BVC $F861                       A:FF X:33 Y:C0 P:67 SP:F
F860  60        RTS                             A:FF X:33 Y:C0 P:67 SP:F
D678  C8        INY                             A:FF X:33 Y:C0 P:67 SP:F
D679  A9 80     LDA #$80                        A:FF X:33 Y:C1 P:E5 SP:F
D67B  8D 78 06  STA $0678 = 7F                  A:80 X:33 Y:C1 P:E5 SP:F
D67E  20 64 F8  JSR $F864                       A:80 X:33 Y:C1 P:E5 SP:F
F864  18        CLC                             A:80 X:33 Y:C1 P:E5 SP:F
F865  24 01     BIT $01 = FF                    A:80 X:33 Y:C1 P:E4 SP:F
F867  A9 7F     LDA #$7F                        A:80 X:33 Y:C1 P:E4 SP:F
F869  60        RTS                             A:7F X:33 Y:C1 P:64 SP:F
D681  6D 78 06  ADC $0678 = 80                  A:7F X:33 Y:C1 P:64 SP:F
D684  20 6A F8  JSR $F86A                       A:FF X:33 Y:C1 P:A4 SP:F
F86A  10 09     BPL $F875                       A:FF X:33 Y:C1 P:A4 SP:F
F86C  B0 07     BCS $F875                       A:FF X:33 Y:C1 P:A4 SP:F
F86E  C9 FF     CMP #$FF                        A:FF X:33 Y:C1 P:A4 SP:F
F870  D0 03     BNE $F875                       A:FF X:33 Y:C1 P:27 SP:F
F872  70 01     BVS $F875                       A:FF X:33 Y:C1 P:27 SP:F
F874  60        RTS                             A:FF X:33 Y:C1 P:27 SP:F
D687  C8        INY                             A:FF X:33 Y:C1 P:27 SP:F
D688  20 78 F8  JSR $F878                       A:FF X:33 Y:C2 P:A5 SP:F
F878  38        SEC                             A:FF X:33 Y:C2 P:A5 SP:F
F879  B8        CLV                             A:FF X:33 Y:C2 P:A5 SP:F
F87A  A9 7F     LDA #$7F                        A:FF X:33 Y:C2 P:A5 SP:F
F87C  60        RTS                             A:7F X:33 Y:C2 P:25 SP:F
D68B  6D 78 06  ADC $0678 = 80                  A:7F X:33 Y:C2 P:25 SP:F
D68E  20 7D F8  JSR $F87D                       A:00 X:33 Y:C2 P:27 SP:F
F87D  D0 07     BNE $F886                       A:00 X:33 Y:C2 P:27 SP:F
F87F  30 05     BMI $F886                       A:00 X:33 Y:C2 P:27 SP:F
F881  70 03     BVS $F886                       A:00 X:33 Y:C2 P:27 SP:F
F883  90 01     BCC $F886                       A:00 X:33 Y:C2 P:27 SP:F
F885  60        RTS                             A:00 X:33 Y:C2 P:27 SP:F
D691  C8        INY                             A:00 X:33 Y:C2 P:27 SP:F
D692  A9 40     LDA #$40                        A:00 X:33 Y:C3 P:A5 SP:F
D694  8D 78 06  STA $0678 = 80                  A:40 X:33 Y:C3 P:25 SP:F
D697  20 89 F8  JSR $F889                       A:40 X:33 Y:C3 P:25 SP:F
F889  24 01     BIT $01 = FF                    A:40 X:33 Y:C3 P:25 SP:F
F88B  A9 40     LDA #$40                        A:40 X:33 Y:C3 P:E5 SP:F
F88D  60        RTS                             A:40 X:33 Y:C3 P:65 SP:F
D69A  CD 78 06  CMP $0678 = 40                  A:40 X:33 Y:C3 P:65 SP:F
D69D  20 8E F8  JSR $F88E                       A:40 X:33 Y:C3 P:67 SP:F
F88E  30 07     BMI $F897                       A:40 X:33 Y:C3 P:67 SP:F
F890  90 05     BCC $F897                       A:40 X:33 Y:C3 P:67 SP:F
F892  D0 03     BNE $F897                       A:40 X:33 Y:C3 P:67 SP:F
F894  50 01     BVC $F897                       A:40 X:33 Y:C3 P:67 SP:F
F896  60        RTS                             A:40 X:33 Y:C3 P:67 SP:F
D6A0  C8        INY                             A:40 X:33 Y:C3 P:67 SP:F
D6A1  48        PHA                             A:40 X:33 Y:C4 P:E5 SP:F
D6A2  A9 3F     LDA #$3F                        A:40 X:33 Y:C4 P:E5 SP:F
D6A4  8D 78 06  STA $0678 = 40                  A:3F X:33 Y:C4 P:65 SP:F
D6A7  68        PLA                             A:3F X:33 Y:C4 P:65 SP:F
D6A8  20 9A F8  JSR $F89A                       A:40 X:33 Y:C4 P:65 SP:F
F89A  B8        CLV                             A:40 X:33 Y:C4 P:65 SP:F
F89B  60        RTS                             A:40 X:33 Y:C4 P:25 SP:F
D6AB  CD 78 06  CMP $0678 = 3F                  A:40 X:33 Y:C4 P:25 SP:F
D6AE  20 9C F8  JSR $F89C                       A:40 X:33 Y:C4 P:25 SP:F
F89C  F0 07     BEQ $F8A5                       A:40 X:33 Y:C4 P:25 SP:F
F89E  30 05     BMI $F8A5                       A:40 X:33 Y:C4 P:25 SP:F
F8A0  90 03     BCC $F8A5                       A:40 X:33 Y:C4 P:25 SP:F
F8A2  70 01     BVS $F8A5                       A:40 X:33 Y:C4 P:25 SP:F
F8A4  60        RTS                             A:40 X:33 Y:C4 P:25 SP:F
D6B1  C8        INY                             A:40 X:33 Y:C4 P:25 SP:F
D6B2  48        PHA                             A:40 X:33 Y:C5 P:A5 SP:F
D6B3  A9 41     LDA #$41                        A:40 X:33 Y:C5 P:A5 SP:F
D6B5  8D 78 06  STA $0678 = 3F                  A:41 X:33 Y:C5 P:25 SP:F
D6B8  68        PLA                             A:41 X:33 Y:C5 P:25 SP:F
D6B9  CD 78 06  CMP $0678 = 41                  A:40 X:33 Y:C5 P:25 SP:F
D6BC  20 A8 F8  JSR $F8A8                       A:40 X:33 Y:C5 P:A4 SP:F
F8A8  F0 05     BEQ $F8AF                       A:40 X:33 Y:C5 P:A4 SP:F
F8AA  10 03     BPL $F8AF                       A:40 X:33 Y:C5 P:A4 SP:F
F8AC  10 01     BPL $F8AF                       A:40 X:33 Y:C5 P:A4 SP:F
F8AE  60        RTS                             A:40 X:33 Y:C5 P:A4 SP:F
D6BF  C8        INY                             A:40 X:33 Y:C5 P:A4 SP:F
D6C0  48        PHA                             A:40 X:33 Y:C6 P:A4 SP:F
D6C1  A9 00     LDA #$00                        A:40 X:33 Y:C6 P:A4 SP:F
D6C3  8D 78 06  STA $0678 = 41                  A:00 X:33 Y:C6 P:26 SP:F
D6C6  68        PLA                             A:00 X:33 Y:C6 P:26 SP:F
D6C7  20 B2 F8  JSR $F8B2                       A:40 X:33 Y:C6 P:24 SP:F
F8B2  A9 80     LDA #$80                        A:40 X:33 Y:C6 P:24 SP:F
F8B4  60        RTS                             A:80 X:33 Y:C6 P:A4 SP:F
D6CA  CD 78 06  CMP $0678 = 00                  A:80 X:33 Y:C6 P:A4 SP:F
D6CD  20 B5 F8  JSR $F8B5                       A:80 X:33 Y:C6 P:A5 SP:F
F8B5  F0 05     BEQ $F8BC                       A:80 X:33 Y:C6 P:A5 SP:F
F8B7  10 03     BPL $F8BC                       A:80 X:33 Y:C6 P:A5 SP:F
F8B9  90 01     BCC $F8BC                       A:80 X:33 Y:C6 P:A5 SP:F
F8BB  60        RTS                             A:80 X:33 Y:C6 P:A5 SP:F
D6D0  C8        INY                             A:80 X:33 Y:C6 P:A5 SP:F
D6D1  48        PHA                             A:80 X:33 Y:C7 P:A5 SP:F
D6D2  A9 80     LDA #$80                        A:80 X:33 Y:C7 P:A5 SP:F
D6D4  8D 78 06  STA $0678 = 00                  A:80 X:33 Y:C7 P:A5 SP:F
D6D7  68        PLA                             A:80 X:33 Y:C7 P:A5 SP:F
D6D8  CD 78 06  CMP $0678 = 80                  A:80 X:33 Y:C7 P:A5 SP:F
D6DB  20 BF F8  JSR $F8BF                       A:80 X:33 Y:C7 P:27 SP:F
F8BF  D0 05     BNE $F8C6                       A:80 X:33 Y:C7 P:27 SP:F
F8C1  30 03     BMI $F8C6                       A:80 X:33 Y:C7 P:27 SP:F
F8C3  90 01     BCC $F8C6                       A:80 X:33 Y:C7 P:27 SP:F
F8C5  60        RTS                             A:80 X:33 Y:C7 P:27 SP:F
D6DE  C8        INY                             A:80 X:33 Y:C7 P:27 SP:F
D6DF  48        PHA                             A:80 X:33 Y:C8 P:A5 SP:F
D6E0  A9 81     LDA #$81                        A:80 X:33 Y:C8 P:A5 SP:F
D6E2  8D 78 06  STA $0678 = 80                  A:81 X:33 Y:C8 P:A5 SP:F
D6E5  68        PLA                             A:81 X:33 Y:C8 P:A5 SP:F
D6E6  CD 78 06  CMP $0678 = 81                  A:80 X:33 Y:C8 P:A5 SP:F
D6E9  20 C9 F8  JSR $F8C9                       A:80 X:33 Y:C8 P:A4 SP:F
F8C9  B0 05     BCS $F8D0                       A:80 X:33 Y:C8 P:A4 SP:F
F8CB  F0 03     BEQ $F8D0                       A:80 X:33 Y:C8 P:A4 SP:F
F8CD  10 01     BPL $F8D0                       A:80 X:33 Y:C8 P:A4 SP:F
F8CF  60        RTS                             A:80 X:33 Y:C8 P:A4 SP:F
D6EC  C8        INY                             A:80 X:33 Y:C8 P:A4 SP:F
D6ED  48        PHA                             A:80 X:33 Y:C9 P:A4 SP:F
D6EE  A9 7F     LDA #$7F                        A:80 X:33 Y:C9 P:A4 SP:F
D6F0  8D 78 06  STA $0678 = 81                  A:7F X:33 Y:C9 P:24 SP:F
D6F3  68        PLA                             A:7F X:33 Y:C9 P:24 SP:F
D6F4  CD 78 06  CMP $0678 = 7F                  A:80 X:33 Y:C9 P:A4 SP:F
D6F7  20 D3 F8  JSR $F8D3                       A:80 X:33 Y:C9 P:25 SP:F
F8D3  90 05     BCC $F8DA                       A:80 X:33 Y:C9 P:25 SP:F
F8D5  F0 03     BEQ $F8DA                       A:80 X:33 Y:C9 P:25 SP:F
F8D7  30 01     BMI $F8DA                       A:80 X:33 Y:C9 P:25 SP:F
F8D9  60        RTS                             A:80 X:33 Y:C9 P:25 SP:F
D6FA  C8        INY                             A:80 X:33 Y:C9 P:25 SP:F
D6FB  A9 40     LDA #$40                        A:80 X:33 Y:CA P:A5 SP:F
D6FD  8D 78 06  STA $0678 = 7F                  A:40 X:33 Y:CA P:25 SP:F
D700  20 31 F9  JSR $F931                       A:40 X:33 Y:CA P:25 SP:F
F931  24 01     BIT $01 = FF                    A:40 X:33 Y:CA P:25 SP:F
F933  A9 40     LDA #$40                        A:40 X:33 Y:CA P:E5 SP:F
F935  38        SEC                             A:40 X:33 Y:CA P:65 SP:F
F936  60        RTS                             A:40 X:33 Y:CA P:65 SP:F
D703  ED 78 06  SBC $0678 = 40                  A:40 X:33 Y:CA P:65 SP:F
D706  20 37 F9  JSR $F937                       A:00 X:33 Y:CA P:27 SP:F
F937  30 0B     BMI $F944                       A:00 X:33 Y:CA P:27 SP:F
F939  90 09     BCC $F944                       A:00 X:33 Y:CA P:27 SP:F
F93B  D0 07     BNE $F944                       A:00 X:33 Y:CA P:27 SP:F
F93D  70 05     BVS $F944                       A:00 X:33 Y:CA P:27 SP:F
F93F  C9 00     CMP #$00                        A:00 X:33 Y:CA P:27 SP:F
F941  D0 01     BNE $F944                       A:00 X:33 Y:CA P:27 SP:F
F943  60        RTS                             A:00 X:33 Y:CA P:27 SP:F
D709  C8        INY                             A:00 X:33 Y:CA P:27 SP:F
D70A  A9 3F     LDA #$3F                        A:00 X:33 Y:CB P:A5 SP:F
D70C  8D 78 06  STA $0678 = 40                  A:3F X:33 Y:CB P:25 SP:F
D70F  20 47 F9  JSR $F947                       A:3F X:33 Y:CB P:25 SP:F
F947  B8        CLV                             A:3F X:33 Y:CB P:25 SP:F
F948  38        SEC                             A:3F X:33 Y:CB P:25 SP:F
F949  A9 40     LDA #$40                        A:3F X:33 Y:CB P:25 SP:F
F94B  60        RTS                             A:40 X:33 Y:CB P:25 SP:F
D712  ED 78 06  SBC $0678 = 3F                  A:40 X:33 Y:CB P:25 SP:F
D715  20 4C F9  JSR $F94C                       A:01 X:33 Y:CB P:25 SP:F
F94C  F0 0B     BEQ $F959                       A:01 X:33 Y:CB P:25 SP:F
F94E  30 09     BMI $F959                       A:01 X:33 Y:CB P:25 SP:F
F950  90 07     BCC $F959                       A:01 X:33 Y:CB P:25 SP:F
F952  70 05     BVS $F959                       A:01 X:33 Y:CB P:25 SP:F
F954  C9 01     CMP #$01                        A:01 X:33 Y:CB P:25 SP:F
F956  D0 01     BNE $F959                       A:01 X:33 Y:CB P:27 SP:F
F958  60        RTS                             A:01 X:33 Y:CB P:27 SP:F
D718  C8        INY                             A:01 X:33 Y:CB P:27 SP:F
D719  A9 41     LDA #$41                        A:01 X:33 Y:CC P:A5 SP:F
D71B  8D 78 06  STA $0678 = 3F                  A:41 X:33 Y:CC P:25 SP:F
D71E  20 5C F9  JSR $F95C                       A:41 X:33 Y:CC P:25 SP:F
F95C  A9 40     LDA #$40                        A:41 X:33 Y:CC P:25 SP:F
F95E  38        SEC                             A:40 X:33 Y:CC P:25 SP:F
F95F  24 01     BIT $01 = FF                    A:40 X:33 Y:CC P:25 SP:F
F961  60        RTS                             A:40 X:33 Y:CC P:E5 SP:F
D721  ED 78 06  SBC $0678 = 41                  A:40 X:33 Y:CC P:E5 SP:F
D724  20 62 F9  JSR $F962                       A:FF X:33 Y:CC P:A4 SP:F
F962  B0 0B     BCS $F96F                       A:FF X:33 Y:CC P:A4 SP:F
F964  F0 09     BEQ $F96F                       A:FF X:33 Y:CC P:A4 SP:F
F966  10 07     BPL $F96F                       A:FF X:33 Y:CC P:A4 SP:F
F968  70 05     BVS $F96F                       A:FF X:33 Y:CC P:A4 SP:F
F96A  C9 FF     CMP #$FF                        A:FF X:33 Y:CC P:A4 SP:F
F96C  D0 01     BNE $F96F                       A:FF X:33 Y:CC P:27 SP:F
F96E  60        RTS                             A:FF X:33 Y:CC P:27 SP:F
D727  C8        INY                             A:FF X:33 Y:CC P:27 SP:F
D728  A9 00     LDA #$00                        A:FF X:33 Y:CD P:A5 SP:F
D72A  8D 78 06  STA $0678 = 41                  A:00 X:33 Y:CD P:27 SP:F
D72D  20 72 F9  JSR $F972                       A:00 X:33 Y:CD P:27 SP:F
F972  18        CLC                             A:00 X:33 Y:CD P:27 SP:F
F973  A9 80     LDA #$80                        A:00 X:33 Y:CD P:26 SP:F
F975  60        RTS                             A:80 X:33 Y:CD P:A4 SP:F
D730  ED 78 06  SBC $0678 = 00                  A:80 X:33 Y:CD P:A4 SP:F
D733  20 76 F9  JSR $F976                       A:7F X:33 Y:CD P:65 SP:F
F976  90 05     BCC $F97D                       A:7F X:33 Y:CD P:65 SP:F
F978  C9 7F     CMP #$7F                        A:7F X:33 Y:CD P:65 SP:F
F97A  D0 01     BNE $F97D                       A:7F X:33 Y:CD P:67 SP:F
F97C  60        RTS                             A:7F X:33 Y:CD P:67 SP:F
D736  C8        INY                             A:7F X:33 Y:CD P:67 SP:F
D737  A9 7F     LDA #$7F                        A:7F X:33 Y:CE P:E5 SP:F
D739  8D 78 06  STA $0678 = 00                  A:7F X:33 Y:CE P:65 SP:F
D73C  20 80 F9  JSR $F980                       A:7F X:33 Y:CE P:65 SP:F
F980  38        SEC                             A:7F X:33 Y:CE P:65 SP:F
F981  A9 81     LDA #$81                        A:7F X:33 Y:CE P:65 SP:F
F983  60        RTS                             A:81 X:33 Y:CE P:E5 SP:F
D73F  ED 78 06  SBC $0678 = 7F                  A:81 X:33 Y:CE P:E5 SP:F
D742  20 84 F9  JSR $F984                       A:02 X:33 Y:CE P:65 SP:F
F984  50 07     BVC $F98D                       A:02 X:33 Y:CE P:65 SP:F
F986  90 05     BCC $F98D                       A:02 X:33 Y:CE P:65 SP:F
F988  C9 02     CMP #$02                        A:02 X:33 Y:CE P:65 SP:F
F98A  D0 01     BNE $F98D                       A:02 X:33 Y:CE P:67 SP:F
F98C  60        RTS                             A:02 X:33 Y:CE P:67 SP:F
D745  C8        INY                             A:02 X:33 Y:CE P:67 SP:F
D746  A9 40     LDA #$40                        A:02 X:33 Y:CF P:E5 SP:F
D748  8D 78 06  STA $0678 = 7F                  A:40 X:33 Y:CF P:65 SP:F
D74B  20 89 F8  JSR $F889                       A:40 X:33 Y:CF P:65 SP:F
F889  24 01     BIT $01 = FF                    A:40 X:33 Y:CF P:65 SP:F
F88B  A9 40     LDA #$40                        A:40 X:33 Y:CF P:E5 SP:F
F88D  60        RTS                             A:40 X:33 Y:CF P:65 SP:F
D74E  AA        TAX                             A:40 X:33 Y:CF P:65 SP:F
D74F  EC 78 06  CPX $0678 = 40                  A:40 X:40 Y:CF P:65 SP:F
D752  20 8E F8  JSR $F88E                       A:40 X:40 Y:CF P:67 SP:F
F88E  30 07     BMI $F897                       A:40 X:40 Y:CF P:67 SP:F
F890  90 05     BCC $F897                       A:40 X:40 Y:CF P:67 SP:F
F892  D0 03     BNE $F897                       A:40 X:40 Y:CF P:67 SP:F
F894  50 01     BVC $F897                       A:40 X:40 Y:CF P:67 SP:F
F896  60        RTS                             A:40 X:40 Y:CF P:67 SP:F
D755  C8        INY                             A:40 X:40 Y:CF P:67 SP:F
D756  A9 3F     LDA #$3F                        A:40 X:40 Y:D0 P:E5 SP:F
D758  8D 78 06  STA $0678 = 40                  A:3F X:40 Y:D0 P:65 SP:F
D75B  20 9A F8  JSR $F89A                       A:3F X:40 Y:D0 P:65 SP:F
F89A  B8        CLV                             A:3F X:40 Y:D0 P:65 SP:F
F89B  60        RTS                             A:3F X:40 Y:D0 P:25 SP:F
D75E  EC 78 06  CPX $0678 = 3F                  A:3F X:40 Y:D0 P:25 SP:F
D761  20 9C F8  JSR $F89C                       A:3F X:40 Y:D0 P:25 SP:F
F89C  F0 07     BEQ $F8A5                       A:3F X:40 Y:D0 P:25 SP:F
F89E  30 05     BMI $F8A5                       A:3F X:40 Y:D0 P:25 SP:F
F8A0  90 03     BCC $F8A5                       A:3F X:40 Y:D0 P:25 SP:F
F8A2  70 01     BVS $F8A5                       A:3F X:40 Y:D0 P:25 SP:F
F8A4  60        RTS                             A:3F X:40 Y:D0 P:25 SP:F
D764  C8        INY                             A:3F X:40 Y:D0 P:25 SP:F
D765  A9 41     LDA #$41                        A:3F X:40 Y:D1 P:A5 SP:F
D767  8D 78 06  STA $0678 = 3F                  A:41 X:40 Y:D1 P:25 SP:F
D76A  EC 78 06  CPX $0678 = 41                  A:41 X:40 Y:D1 P:25 SP:F
D76D  20 A8 F8  JSR $F8A8                       A:41 X:40 Y:D1 P:A4 SP:F
F8A8  F0 05     BEQ $F8AF                       A:41 X:40 Y:D1 P:A4 SP:F
F8AA  10 03     BPL $F8AF                       A:41 X:40 Y:D1 P:A4 SP:F
F8AC  10 01     BPL $F8AF                       A:41 X:40 Y:D1 P:A4 SP:F
F8AE  60        RTS                             A:41 X:40 Y:D1 P:A4 SP:F
D770  C8        INY                             A:41 X:40 Y:D1 P:A4 SP:F
D771  A9 00     LDA #$00                        A:41 X:40 Y:D2 P:A4 SP:F
D773  8D 78 06  STA $0678 = 41                  A:00 X:40 Y:D2 P:26 SP:F
D776  20 B2 F8  JSR $F8B2                       A:00 X:40 Y:D2 P:26 SP:F
F8B2  A9 80     LDA #$80                        A:00 X:40 Y:D2 P:26 SP:F
F8B4  60        RTS                             A:80 X:40 Y:D2 P:A4 SP:F
D779  AA        TAX                             A:80 X:40 Y:D2 P:A4 SP:F
D77A  EC 78 06  CPX $0678 = 00                  A:80 X:80 Y:D2 P:A4 SP:F
D77D  20 B5 F8  JSR $F8B5                       A:80 X:80 Y:D2 P:A5 SP:F
F8B5  F0 05     BEQ $F8BC                       A:80 X:80 Y:D2 P:A5 SP:F
F8B7  10 03     BPL $F8BC                       A:80 X:80 Y:D2 P:A5 SP:F
F8B9  90 01     BCC $F8BC                       A:80 X:80 Y:D2 P:A5 SP:F
F8BB  60        RTS                             A:80 X:80 Y:D2 P:A5 SP:F
D780  C8        INY                             A:80 X:80 Y:D2 P:A5 SP:F
D781  A9 80     LDA #$80                        A:80 X:80 Y:D3 P:A5 SP:F
D783  8D 78 06  STA $0678 = 00                  A:80 X:80 Y:D3 P:A5 SP:F
D786  EC 78 06  CPX $0678 = 80                  A:80 X:80 Y:D3 P:A5 SP:F
D789  20 BF F8  JSR $F8BF                       A:80 X:80 Y:D3 P:27 SP:F
F8BF  D0 05     BNE $F8C6                       A:80 X:80 Y:D3 P:27 SP:F
F8C1  30 03     BMI $F8C6                       A:80 X:80 Y:D3 P:27 SP:F
F8C3  90 01     BCC $F8C6                       A:80 X:80 Y:D3 P:27 SP:F
F8C5  60        RTS                             A:80 X:80 Y:D3 P:27 SP:F
D78C  C8        INY                             A:80 X:80 Y:D3 P:27 SP:F
D78D  A9 81     LDA #$81                        A:80 X:80 Y:D4 P:A5 SP:F
D78F  8D 78 06  STA $0678 = 80                  A:81 X:80 Y:D4 P:A5 SP:F
D792  EC 78 06  CPX $0678 = 81                  A:81 X:80 Y:D4 P:A5 SP:F
D795  20 C9 F8  JSR $F8C9                       A:81 X:80 Y:D4 P:A4 SP:F
F8C9  B0 05     BCS $F8D0                       A:81 X:80 Y:D4 P:A4 SP:F
F8CB  F0 03     BEQ $F8D0                       A:81 X:80 Y:D4 P:A4 SP:F
F8CD  10 01     BPL $F8D0                       A:81 X:80 Y:D4 P:A4 SP:F
F8CF  60        RTS                             A:81 X:80 Y:D4 P:A4 SP:F
D798  C8        INY                             A:81 X:80 Y:D4 P:A4 SP:F
D799  A9 7F     LDA #$7F                        A:81 X:80 Y:D5 P:A4 SP:F
D79B  8D 78 06  STA $0678 = 81                  A:7F X:80 Y:D5 P:24 SP:F
D79E  EC 78 06  CPX $0678 = 7F                  A:7F X:80 Y:D5 P:24 SP:F
D7A1  20 D3 F8  JSR $F8D3                       A:7F X:80 Y:D5 P:25 SP:F
F8D3  90 05     BCC $F8DA                       A:7F X:80 Y:D5 P:25 SP:F
F8D5  F0 03     BEQ $F8DA                       A:7F X:80 Y:D5 P:25 SP:F
F8D7  30 01     BMI $F8DA                       A:7F X:80 Y:D5 P:25 SP:F
F8D9  60        RTS                             A:7F X:80 Y:D5 P:25 SP:F
D7A4  C8        INY                             A:7F X:80 Y:D5 P:25 SP:F
D7A5  98        TYA                             A:7F X:80 Y:D6 P:A5 SP:F
D7A6  AA        TAX                             A:D6 X:80 Y:D6 P:A5 SP:F
D7A7  A9 40     LDA #$40                        A:D6 X:D6 Y:D6 P:A5 SP:F
D7A9  8D 78 06  STA $0678 = 7F                  A:40 X:D6 Y:D6 P:25 SP:F
D7AC  20 DD F8  JSR $F8DD                       A:40 X:D6 Y:D6 P:25 SP:F
F8DD  24 01     BIT $01 = FF                    A:40 X:D6 Y:D6 P:25 SP:F
F8DF  A0 40     LDY #$40                        A:40 X:D6 Y:D6 P:E5 SP:F
F8E1  60        RTS                             A:40 X:D6 Y:40 P:65 SP:F
D7AF  CC 78 06  CPY $0678 = 40                  A:40 X:D6 Y:40 P:65 SP:F
D7B2  20 E2 F8  JSR $F8E2                       A:40 X:D6 Y:40 P:67 SP:F
F8E2  30 07     BMI $F8EB                       A:40 X:D6 Y:40 P:67 SP:F
F8E4  90 05     BCC $F8EB                       A:40 X:D6 Y:40 P:67 SP:F
F8E6  D0 03     BNE $F8EB                       A:40 X:D6 Y:40 P:67 SP:F
F8E8  50 01     BVC $F8EB                       A:40 X:D6 Y:40 P:67 SP:F
F8EA  60        RTS                             A:40 X:D6 Y:40 P:67 SP:F
D7B5  E8        INX                             A:40 X:D6 Y:40 P:67 SP:F
D7B6  A9 3F     LDA #$3F                        A:40 X:D7 Y:40 P:E5 SP:F
D7B8  8D 78 06  STA $0678 = 40                  A:3F X:D7 Y:40 P:65 SP:F
D7BB  20 EE F8  JSR $F8EE                       A:3F X:D7 Y:40 P:65 SP:F
F8EE  B8        CLV                             A:3F X:D7 Y:40 P:65 SP:F
F8EF  60        RTS                             A:3F X:D7 Y:40 P:25 SP:F
D7BE  CC 78 06  CPY $0678 = 3F                  A:3F X:D7 Y:40 P:25 SP:F
D7C1  20 F0 F8  JSR $F8F0                       A:3F X:D7 Y:40 P:25 SP:F
F8F0  F0 07     BEQ $F8F9                       A:3F X:D7 Y:40 P:25 SP:F
F8F2  30 05     BMI $F8F9                       A:3F X:D7 Y:40 P:25 SP:F
F8F4  90 03     BCC $F8F9                       A:3F X:D7 Y:40 P:25 SP:F
F8F6  70 01     BVS $F8F9                       A:3F X:D7 Y:40 P:25 SP:F
F8F8  60        RTS                             A:3F X:D7 Y:40 P:25 SP:F
D7C4  E8        INX                             A:3F X:D7 Y:40 P:25 SP:F
D7C5  A9 41     LDA #$41                        A:3F X:D8 Y:40 P:A5 SP:F
D7C7  8D 78 06  STA $0678 = 3F                  A:41 X:D8 Y:40 P:25 SP:F
D7CA  CC 78 06  CPY $0678 = 41                  A:41 X:D8 Y:40 P:25 SP:F
D7CD  20 FC F8  JSR $F8FC                       A:41 X:D8 Y:40 P:A4 SP:F
F8FC  F0 05     BEQ $F903                       A:41 X:D8 Y:40 P:A4 SP:F
F8FE  10 03     BPL $F903                       A:41 X:D8 Y:40 P:A4 SP:F
F900  10 01     BPL $F903                       A:41 X:D8 Y:40 P:A4 SP:F
F902  60        RTS                             A:41 X:D8 Y:40 P:A4 SP:F
D7D0  E8        INX                             A:41 X:D8 Y:40 P:A4 SP:F
D7D1  A9 00     LDA #$00                        A:41 X:D9 Y:40 P:A4 SP:F
D7D3  8D 78 06  STA $0678 = 41                  A:00 X:D9 Y:40 P:26 SP:F
D7D6  20 06 F9  JSR $F906                       A:00 X:D9 Y:40 P:26 SP:F
F906  A0 80     LDY #$80                        A:00 X:D9 Y:40 P:26 SP:F
F908  60        RTS                             A:00 X:D9 Y:80 P:A4 SP:F
D7D9  CC 78 06  CPY $0678 = 00                  A:00 X:D9 Y:80 P:A4 SP:F
D7DC  20 09 F9  JSR $F909                       A:00 X:D9 Y:80 P:A5 SP:F
F909  F0 05     BEQ $F910                       A:00 X:D9 Y:80 P:A5 SP:F
F90B  10 03     BPL $F910                       A:00 X:D9 Y:80 P:A5 SP:F
F90D  90 01     BCC $F910                       A:00 X:D9 Y:80 P:A5 SP:F
F90F  60        RTS                             A:00 X:D9 Y:80 P:A5 SP:F
D7DF  E8        INX                             A:00 X:D9 Y:80 P:A5 SP:F
D7E0  A9 80     LDA #$80                        A:00 X:DA Y:80 P:A5 SP:F
D7E2  8D 78 06  STA $0678 = 00                  A:80 X:DA Y:80 P:A5 SP:F
D7E5  CC 78 06  CPY $0678 = 80                  A:80 X:DA Y:80 P:A5 SP:F
D7E8  20 13 F9  JSR $F913                       A:80 X:DA Y:80 P:27 SP:F
F913  D0 05     BNE $F91A                       A:80 X:DA Y:80 P:27 SP:F
F915  30 03     BMI $F91A                       A:80 X:DA Y:80 P:27 SP:F
F917  90 01     BCC $F91A                       A:80 X:DA Y:80 P:27 SP:F
F919  60        RTS                             A:80 X:DA Y:80 P:27 SP:F
D7EB  E8        INX                             A:80 X:DA Y:80 P:27 SP:F
D7EC  A9 81     LDA #$81                        A:80 X:DB Y:80 P:A5 SP:F
D7EE  8D 78 06  STA $0678 = 80                  A:81 X:DB Y:80 P:A5 SP:F
D7F1  CC 78 06  CPY $0678 = 81                  A:81 X:DB Y:80 P:A5 SP:F
D7F4  20 1D F9  JSR $F91D                       A:81 X:DB Y:80 P:A4 SP:F
F91D  B0 05     BCS $F924                       A:81 X:DB Y:80 P:A4 SP:F
F91F  F0 03     BEQ $F924                       A:81 X:DB Y:80 P:A4 SP:F
F921  10 01     BPL $F924                       A:81 X:DB Y:80 P:A4 SP:F
F923  60        RTS                             A:81 X:DB Y:80 P:A4 SP:F
D7F7  E8        INX                             A:81 X:DB Y:80 P:A4 SP:F
D7F8  A9 7F     LDA #$7F                        A:81 X:DC Y:80 P:A4 SP:F
D7FA  8D 78 06  STA $0678 = 81                  A:7F X:DC Y:80 P:24 SP:F
D7FD  CC 78 06  CPY $0678 = 7F                  A:7F X:DC Y:80 P:24 SP:F
D800  20 27 F9  JSR $F927                       A:7F X:DC Y:80 P:25 SP:F
F927  90 05     BCC $F92E                       A:7F X:DC Y:80 P:25 SP:F
F929  F0 03     BEQ $F92E                       A:7F X:DC Y:80 P:25 SP:F
F92B  30 01     BMI $F92E                       A:7F X:DC Y:80 P:25 SP:F
F92D  60        RTS                             A:7F X:DC Y:80 P:25 SP:F
D803  E8        INX                             A:7F X:DC Y:80 P:25 SP:F
D804  8A        TXA                             A:7F X:DD Y:80 P:A5 SP:F
D805  A8        TAY                             A:DD X:DD Y:80 P:A5 SP:F
D806  20 90 F9  JSR $F990                       A:DD X:DD Y:DD P:A5 SP:F
F990  A2 55     LDX #$55                        A:DD X:DD Y:DD P:A5 SP:F
F992  A9 FF     LDA #$FF                        A:DD X:55 Y:DD P:25 SP:F
F994  85 01     STA $01 = FF                    A:FF X:55 Y:DD P:A5 SP:F
F996  EA        NOP                             A:FF X:55 Y:DD P:A5 SP:F
F997  24 01     BIT $01 = FF                    A:FF X:55 Y:DD P:A5 SP:F
F999  38        SEC                             A:FF X:55 Y:DD P:E5 SP:F
F99A  A9 01     LDA #$01                        A:FF X:55 Y:DD P:E5 SP:F
F99C  60        RTS                             A:01 X:55 Y:DD P:65 SP:F
D809  8D 78 06  STA $0678 = 7F                  A:01 X:55 Y:DD P:65 SP:F
D80C  4E 78 06  LSR $0678 = 01                  A:01 X:55 Y:DD P:65 SP:F
D80F  AD 78 06  LDA $0678 = 00                  A:01 X:55 Y:DD P:67 SP:F
D812  20 9D F9  JSR $F99D                       A:00 X:55 Y:DD P:67 SP:F
F99D  90 1B     BCC $F9BA                       A:00 X:55 Y:DD P:67 SP:F
F99F  D0 19     BNE $F9BA                       A:00 X:55 Y:DD P:67 SP:F
F9A1  30 17     BMI $F9BA                       A:00 X:55 Y:DD P:67 SP:F
F9A3  50 15     BVC $F9BA                       A:00 X:55 Y:DD P:67 SP:F
F9A5  C9 00     CMP #$00                        A:00 X:55 Y:DD P:67 SP:F
F9A7  D0 11     BNE $F9BA                       A:00 X:55 Y:DD P:67 SP:F
F9A9  B8        CLV                             A:00 X:55 Y:DD P:67 SP:F
F9AA  A9 AA     LDA #$AA                        A:00 X:55 Y:DD P:27 SP:F
F9AC  60        RTS                             A:AA X:55 Y:DD P:A5 SP:F
D815  C8        INY                             A:AA X:55 Y:DD P:A5 SP:F
D816  8D 78 06  STA $0678 = 00                  A:AA X:55 Y:DE P:A5 SP:F
D819  4E 78 06  LSR $0678 = AA                  A:AA X:55 Y:DE P:A5 SP:F
D81C  AD 78 06  LDA $0678 = 55                  A:AA X:55 Y:DE P:24 SP:F
D81F  20 AD F9  JSR $F9AD                       A:55 X:55 Y:DE P:24 SP:F
F9AD  B0 0B     BCS $F9BA                       A:55 X:55 Y:DE P:24 SP:F
F9AF  F0 09     BEQ $F9BA                       A:55 X:55 Y:DE P:24 SP:F
F9B1  30 07     BMI $F9BA                       A:55 X:55 Y:DE P:24 SP:F
F9B3  70 05     BVS $F9BA                       A:55 X:55 Y:DE P:24 SP:F
F9B5  C9 55     CMP #$55                        A:55 X:55 Y:DE P:24 SP:F
F9B7  D0 01     BNE $F9BA                       A:55 X:55 Y:DE P:27 SP:F
F9B9  60        RTS                             A:55 X:55 Y:DE P:27 SP:F
D822  C8        INY                             A:55 X:55 Y:DE P:27 SP:F
D823  20 BD F9  JSR $F9BD                       A:55 X:55 Y:DF P:A5 SP:F
F9BD  24 01     BIT $01 = FF                    A:55 X:55 Y:DF P:A5 SP:F
F9BF  38        SEC                             A:55 X:55 Y:DF P:E5 SP:F
F9C0  A9 80     LDA #$80                        A:55 X:55 Y:DF P:E5 SP:F
F9C2  60        RTS                             A:80 X:55 Y:DF P:E5 SP:F
D826  8D 78 06  STA $0678 = 55                  A:80 X:55 Y:DF P:E5 SP:F
D829  0E 78 06  ASL $0678 = 80                  A:80 X:55 Y:DF P:E5 SP:F
D82C  AD 78 06  LDA $0678 = 00                  A:80 X:55 Y:DF P:67 SP:F
D82F  20 C3 F9  JSR $F9C3                       A:00 X:55 Y:DF P:67 SP:F
F9C3  90 1C     BCC $F9E1                       A:00 X:55 Y:DF P:67 SP:F
F9C5  D0 1A     BNE $F9E1                       A:00 X:55 Y:DF P:67 SP:F
F9C7  30 18     BMI $F9E1                       A:00 X:55 Y:DF P:67 SP:F
F9C9  50 16     BVC $F9E1                       A:00 X:55 Y:DF P:67 SP:F
F9CB  C9 00     CMP #$00                        A:00 X:55 Y:DF P:67 SP:F
F9CD  D0 12     BNE $F9E1                       A:00 X:55 Y:DF P:67 SP:F
F9CF  B8        CLV                             A:00 X:55 Y:DF P:67 SP:F
F9D0  A9 55     LDA #$55                        A:00 X:55 Y:DF P:27 SP:F
F9D2  38        SEC                             A:55 X:55 Y:DF P:25 SP:F
F9D3  60        RTS                             A:55 X:55 Y:DF P:25 SP:F
D832  C8        INY                             A:55 X:55 Y:DF P:25 SP:F
D833  8D 78 06  STA $0678 = 00                  A:55 X:55 Y:E0 P:A5 SP:F
D836  0E 78 06  ASL $0678 = 55                  A:55 X:55 Y:E0 P:A5 SP:F
D839  AD 78 06  LDA $0678 = AA                  A:55 X:55 Y:E0 P:A4 SP:F
D83C  20 D4 F9  JSR $F9D4                       A:AA X:55 Y:E0 P:A4 SP:F
F9D4  B0 0B     BCS $F9E1                       A:AA X:55 Y:E0 P:A4 SP:F
F9D6  F0 09     BEQ $F9E1                       A:AA X:55 Y:E0 P:A4 SP:F
F9D8  10 07     BPL $F9E1                       A:AA X:55 Y:E0 P:A4 SP:F
F9DA  70 05     BVS $F9E1                       A:AA X:55 Y:E0 P:A4 SP:F
F9DC  C9 AA     CMP #$AA                        A:AA X:55 Y:E0 P:A4 SP:F
F9DE  D0 01     BNE $F9E1                       A:AA X:55 Y:E0 P:27 SP:F
F9E0  60        RTS                             A:AA X:55 Y:E0 P:27 SP:F
D83F  C8        INY                             A:AA X:55 Y:E0 P:27 SP:F
D840  20 E4 F9  JSR $F9E4                       A:AA X:55 Y:E1 P:A5 SP:F
F9E4  24 01     BIT $01 = FF                    A:AA X:55 Y:E1 P:A5 SP:F
F9E6  38        SEC                             A:AA X:55 Y:E1 P:E5 SP:F
F9E7  A9 01     LDA #$01                        A:AA X:55 Y:E1 P:E5 SP:F
F9E9  60        RTS                             A:01 X:55 Y:E1 P:65 SP:F
D843  8D 78 06  STA $0678 = AA                  A:01 X:55 Y:E1 P:65 SP:F
D846  6E 78 06  ROR $0678 = 01                  A:01 X:55 Y:E1 P:65 SP:F
D849  AD 78 06  LDA $0678 = 80                  A:01 X:55 Y:E1 P:E5 SP:F
D84C  20 EA F9  JSR $F9EA                       A:80 X:55 Y:E1 P:E5 SP:F
F9EA  90 1C     BCC $FA08                       A:80 X:55 Y:E1 P:E5 SP:F
F9EC  F0 1A     BEQ $FA08                       A:80 X:55 Y:E1 P:E5 SP:F
F9EE  10 18     BPL $FA08                       A:80 X:55 Y:E1 P:E5 SP:F
F9F0  50 16     BVC $FA08                       A:80 X:55 Y:E1 P:E5 SP:F
F9F2  C9 80     CMP #$80                        A:80 X:55 Y:E1 P:E5 SP:F
F9F4  D0 12     BNE $FA08                       A:80 X:55 Y:E1 P:67 SP:F
F9F6  B8        CLV                             A:80 X:55 Y:E1 P:67 SP:F
F9F7  18        CLC                             A:80 X:55 Y:E1 P:27 SP:F
F9F8  A9 55     LDA #$55                        A:80 X:55 Y:E1 P:26 SP:F
F9FA  60        RTS                             A:55 X:55 Y:E1 P:24 SP:F
D84F  C8        INY                             A:55 X:55 Y:E1 P:24 SP:F
D850  8D 78 06  STA $0678 = 80                  A:55 X:55 Y:E2 P:A4 SP:F
D853  6E 78 06  ROR $0678 = 55                  A:55 X:55 Y:E2 P:A4 SP:F
D856  AD 78 06  LDA $0678 = 2A                  A:55 X:55 Y:E2 P:25 SP:F
D859  20 FB F9  JSR $F9FB                       A:2A X:55 Y:E2 P:25 SP:F
F9FB  90 0B     BCC $FA08                       A:2A X:55 Y:E2 P:25 SP:F
F9FD  F0 09     BEQ $FA08                       A:2A X:55 Y:E2 P:25 SP:F
F9FF  30 07     BMI $FA08                       A:2A X:55 Y:E2 P:25 SP:F
FA01  70 05     BVS $FA08                       A:2A X:55 Y:E2 P:25 SP:F
FA03  C9 2A     CMP #$2A                        A:2A X:55 Y:E2 P:25 SP:F
FA05  D0 01     BNE $FA08                       A:2A X:55 Y:E2 P:27 SP:F
FA07  60        RTS                             A:2A X:55 Y:E2 P:27 SP:F
D85C  C8        INY                             A:2A X:55 Y:E2 P:27 SP:F
D85D  20 0A FA  JSR $FA0A                       A:2A X:55 Y:E3 P:A5 SP:F
FA0A  24 01     BIT $01 = FF                    A:2A X:55 Y:E3 P:A5 SP:F
FA0C  38        SEC                             A:2A X:55 Y:E3 P:E5 SP:F
FA0D  A9 80     LDA #$80                        A:2A X:55 Y:E3 P:E5 SP:F
FA0F  60        RTS                             A:80 X:55 Y:E3 P:E5 SP:F
D860  8D 78 06  STA $0678 = 2A                  A:80 X:55 Y:E3 P:E5 SP:F
D863  2E 78 06  ROL $0678 = 80                  A:80 X:55 Y:E3 P:E5 SP:F
D866  AD 78 06  LDA $0678 = 01                  A:80 X:55 Y:E3 P:65 SP:F
D869  20 10 FA  JSR $FA10                       A:01 X:55 Y:E3 P:65 SP:F
FA10  90 1C     BCC $FA2E                       A:01 X:55 Y:E3 P:65 SP:F
FA12  F0 1A     BEQ $FA2E                       A:01 X:55 Y:E3 P:65 SP:F
FA14  30 18     BMI $FA2E                       A:01 X:55 Y:E3 P:65 SP:F
FA16  50 16     BVC $FA2E                       A:01 X:55 Y:E3 P:65 SP:F
FA18  C9 01     CMP #$01                        A:01 X:55 Y:E3 P:65 SP:F
FA1A  D0 12     BNE $FA2E                       A:01 X:55 Y:E3 P:67 SP:F
FA1C  B8        CLV                             A:01 X:55 Y:E3 P:67 SP:F
FA1D  18        CLC                             A:01 X:55 Y:E3 P:27 SP:F
FA1E  A9 55     LDA #$55                        A:01 X:55 Y:E3 P:26 SP:F
FA20  60        RTS                             A:55 X:55 Y:E3 P:24 SP:F
D86C  C8        INY                             A:55 X:55 Y:E3 P:24 SP:F
D86D  8D 78 06  STA $0678 = 01                  A:55 X:55 Y:E4 P:A4 SP:F
D870  2E 78 06  ROL $0678 = 55                  A:55 X:55 Y:E4 P:A4 SP:F
D873  AD 78 06  LDA $0678 = AA                  A:55 X:55 Y:E4 P:A4 SP:F
D876  20 21 FA  JSR $FA21                       A:AA X:55 Y:E4 P:A4 SP:F
FA21  B0 0B     BCS $FA2E                       A:AA X:55 Y:E4 P:A4 SP:F
FA23  F0 09     BEQ $FA2E                       A:AA X:55 Y:E4 P:A4 SP:F
FA25  10 07     BPL $FA2E                       A:AA X:55 Y:E4 P:A4 SP:F
FA27  70 05     BVS $FA2E                       A:AA X:55 Y:E4 P:A4 SP:F
FA29  C9 AA     CMP #$AA                        A:AA X:55 Y:E4 P:A4 SP:F
FA2B  D0 01     BNE $FA2E                       A:AA X:55 Y:E4 P:27 SP:F
FA2D  60        RTS                             A:AA X:55 Y:E4 P:27 SP:F
D879  A9 FF     LDA #$FF                        A:AA X:55 Y:E4 P:27 SP:F
D87B  8D 78 06  STA $0678 = AA                  A:FF X:55 Y:E4 P:A5 SP:F
D87E  85 01     STA $01 = FF                    A:FF X:55 Y:E4 P:A5 SP:F
D880  24 01     BIT $01 = FF                    A:FF X:55 Y:E4 P:A5 SP:F
D882  38        SEC                             A:FF X:55 Y:E4 P:E5 SP:F
D883  EE 78 06  INC $0678 = FF                  A:FF X:55 Y:E4 P:E5 SP:F
D886  D0 0D     BNE $D895                       A:FF X:55 Y:E4 P:67 SP:F
D888  30 0B     BMI $D895                       A:FF X:55 Y:E4 P:67 SP:F
D88A  50 09     BVC $D895                       A:FF X:55 Y:E4 P:67 SP:F
D88C  90 07     BCC $D895                       A:FF X:55 Y:E4 P:67 SP:F
D88E  AD 78 06  LDA $0678 = 00                  A:FF X:55 Y:E4 P:67 SP:F
D891  C9 00     CMP #$00                        A:00 X:55 Y:E4 P:67 SP:F
D893  F0 04     BEQ $D899                       A:00 X:55 Y:E4 P:67 SP:F
D899  A9 7F     LDA #$7F                        A:00 X:55 Y:E4 P:67 SP:F
D89B  8D 78 06  STA $0678 = 00                  A:7F X:55 Y:E4 P:65 SP:F
D89E  B8        CLV                             A:7F X:55 Y:E4 P:65 SP:F
D89F  18        CLC                             A:7F X:55 Y:E4 P:25 SP:F
D8A0  EE 78 06  INC $0678 = 7F                  A:7F X:55 Y:E4 P:24 SP:F
D8A3  F0 0D     BEQ $D8B2                       A:7F X:55 Y:E4 P:A4 SP:F
D8A5  10 0B     BPL $D8B2                       A:7F X:55 Y:E4 P:A4 SP:F
D8A7  70 09     BVS $D8B2                       A:7F X:55 Y:E4 P:A4 SP:F
D8A9  B0 07     BCS $D8B2                       A:7F X:55 Y:E4 P:A4 SP:F
D8AB  AD 78 06  LDA $0678 = 80                  A:7F X:55 Y:E4 P:A4 SP:F
D8AE  C9 80     CMP #$80                        A:80 X:55 Y:E4 P:A4 SP:F
D8B0  F0 04     BEQ $D8B6                       A:80 X:55 Y:E4 P:27 SP:F
D8B6  A9 00     LDA #$00                        A:80 X:55 Y:E4 P:27 SP:F
D8B8  8D 78 06  STA $0678 = 80                  A:00 X:55 Y:E4 P:27 SP:F
D8BB  24 01     BIT $01 = FF                    A:00 X:55 Y:E4 P:27 SP:F
D8BD  38        SEC                             A:00 X:55 Y:E4 P:E7 SP:F
D8BE  CE 78 06  DEC $0678 = 00                  A:00 X:55 Y:E4 P:E7 SP:F
D8C1  F0 0D     BEQ $D8D0                       A:00 X:55 Y:E4 P:E5 SP:F
D8C3  10 0B     BPL $D8D0                       A:00 X:55 Y:E4 P:E5 SP:F
D8C5  50 09     BVC $D8D0                       A:00 X:55 Y:E4 P:E5 SP:F
D8C7  90 07     BCC $D8D0                       A:00 X:55 Y:E4 P:E5 SP:F
D8C9  AD 78 06  LDA $0678 = FF                  A:00 X:55 Y:E4 P:E5 SP:F
D8CC  C9 FF     CMP #$FF                        A:FF X:55 Y:E4 P:E5 SP:F
D8CE  F0 04     BEQ $D8D4                       A:FF X:55 Y:E4 P:67 SP:F
D8D4  A9 80     LDA #$80                        A:FF X:55 Y:E4 P:67 SP:F
D8D6  8D 78 06  STA $0678 = FF                  A:80 X:55 Y:E4 P:E5 SP:F
D8D9  B8        CLV                             A:80 X:55 Y:E4 P:E5 SP:F
D8DA  18        CLC                             A:80 X:55 Y:E4 P:A5 SP:F
D8DB  CE 78 06  DEC $0678 = 80                  A:80 X:55 Y:E4 P:A4 SP:F
D8DE  F0 0D     BEQ $D8ED                       A:80 X:55 Y:E4 P:24 SP:F
D8E0  30 0B     BMI $D8ED                       A:80 X:55 Y:E4 P:24 SP:F
D8E2  70 09     BVS $D8ED                       A:80 X:55 Y:E4 P:24 SP:F
D8E4  B0 07     BCS $D8ED                       A:80 X:55 Y:E4 P:24 SP:F
D8E6  AD 78 06  LDA $0678 = 7F                  A:80 X:55 Y:E4 P:24 SP:F
D8E9  C9 7F     CMP #$7F                        A:7F X:55 Y:E4 P:24 SP:F
D8EB  F0 04     BEQ $D8F1                       A:7F X:55 Y:E4 P:27 SP:F
D8F1  A9 01     LDA #$01                        A:7F X:55 Y:E4 P:27 SP:F
D8F3  8D 78 06  STA $0678 = 7F                  A:01 X:55 Y:E4 P:25 SP:F
D8F6  CE 78 06  DEC $0678 = 01                  A:01 X:55 Y:E4 P:25 SP:F
D8F9  F0 04     BEQ $D8FF                       A:01 X:55 Y:E4 P:27 SP:F
D8FF  60        RTS                             A:01 X:55 Y:E4 P:27 SP:F
C618  20 00 D9  JSR $D900                       A:01 X:55 Y:E4 P:27 SP:F
D900  A9 A3     LDA #$A3                        A:01 X:55 Y:E4 P:27 SP:F
D902  85 33     STA $33 = 00                    A:A3 X:55 Y:E4 P:A5 SP:F
D904  A9 89     LDA #$89                        A:A3 X:55 Y:E4 P:A5 SP:F
D906  8D 00 03  STA $0300 = 70                  A:89 X:55 Y:E4 P:A5 SP:F
D909  A9 12     LDA #$12                        A:89 X:55 Y:E4 P:A5 SP:F
D90B  8D 45 02  STA $0245 = 00                  A:12 X:55 Y:E4 P:25 SP:F
D90E  A9 FF     LDA #$FF                        A:12 X:55 Y:E4 P:25 SP:F
D910  85 01     STA $01 = FF                    A:FF X:55 Y:E4 P:A5 SP:F
D912  A2 65     LDX #$65                        A:FF X:55 Y:E4 P:A5 SP:F
D914  A9 00     LDA #$00                        A:FF X:65 Y:E4 P:25 SP:F
D916  85 89     STA $89 = 00                    A:00 X:65 Y:E4 P:27 SP:F
D918  A9 03     LDA #$03                        A:00 X:65 Y:E4 P:27 SP:F
D91A  85 8A     STA $8A = 00                    A:03 X:65 Y:E4 P:25 SP:F
D91C  A0 00     LDY #$00                        A:03 X:65 Y:E4 P:25 SP:F
D91E  38        SEC                             A:03 X:65 Y:00 P:27 SP:F
D91F  A9 00     LDA #$00                        A:03 X:65 Y:00 P:27 SP:F
D921  B8        CLV                             A:00 X:65 Y:00 P:27 SP:F
D922  B1 89     LDA ($89),Y = 0300 @ 0300 = 89  A:00 X:65 Y:00 P:27 SP:F
D924  F0 0C     BEQ $D932                       A:89 X:65 Y:00 P:A5 SP:F
D926  90 0A     BCC $D932                       A:89 X:65 Y:00 P:A5 SP:F
D928  70 08     BVS $D932                       A:89 X:65 Y:00 P:A5 SP:F
D92A  C9 89     CMP #$89                        A:89 X:65 Y:00 P:A5 SP:F
D92C  D0 04     BNE $D932                       A:89 X:65 Y:00 P:27 SP:F
D92E  E0 65     CPX #$65                        A:89 X:65 Y:00 P:27 SP:F
D930  F0 04     BEQ $D936                       A:89 X:65 Y:00 P:27 SP:F
D936  A9 FF     LDA #$FF                        A:89 X:65 Y:00 P:27 SP:F
D938  85 97     STA $97 = 00                    A:FF X:65 Y:00 P:A5 SP:F
D93A  85 98     STA $98 = 00                    A:FF X:65 Y:00 P:A5 SP:F
D93C  24 98     BIT $98 = FF                    A:FF X:65 Y:00 P:A5 SP:F
D93E  A0 34     LDY #$34                        A:FF X:65 Y:00 P:E5 SP:F
D940  B1 97     LDA ($97),Y = FFFF @ 0033 = A3  A:FF X:65 Y:34 P:65 SP:F
D942  C9 A3     CMP #$A3                        A:A3 X:65 Y:34 P:E5 SP:F
D944  D0 02     BNE $D948                       A:A3 X:65 Y:34 P:67 SP:F
D946  B0 04     BCS $D94C                       A:A3 X:65 Y:34 P:67 SP:F
D94C  A5 00     LDA $00 = 00                    A:A3 X:65 Y:34 P:67 SP:F
D94E  48        PHA                             A:00 X:65 Y:34 P:67 SP:F
D94F  A9 46     LDA #$46                        A:00 X:65 Y:34 P:67 SP:F
D951  85 FF     STA $FF = 00                    A:46 X:65 Y:34 P:65 SP:F
D953  A9 01     LDA #$01                        A:46 X:65 Y:34 P:65 SP:F
D955  85 00     STA $00 = 00                    A:01 X:65 Y:34 P:65 SP:F
D957  A0 FF     LDY #$FF                        A:01 X:65 Y:34 P:65 SP:F
D959  B1 FF     LDA ($FF),Y = 0146 @ 0245 = 12  A:01 X:65 Y:FF P:E5 SP:F
D95B  C9 12     CMP #$12                        A:12 X:65 Y:FF P:65 SP:F
D95D  F0 04     BEQ $D963                       A:12 X:65 Y:FF P:67 SP:F
D963  68        PLA                             A:12 X:65 Y:FF P:67 SP:F
D964  85 00     STA $00 = 01                    A:00 X:65 Y:FF P:67 SP:F
D966  A2 ED     LDX #$ED                        A:00 X:65 Y:FF P:67 SP:F
D968  A9 00     LDA #$00                        A:00 X:ED Y:FF P:E5 SP:F
D96A  85 33     STA $33 = A3                    A:00 X:ED Y:FF P:67 SP:F
D96C  A9 04     LDA #$04                        A:00 X:ED Y:FF P:67 SP:F
D96E  85 34     STA $34 = 00                    A:04 X:ED Y:FF P:65 SP:F
D970  A0 00     LDY #$00                        A:04 X:ED Y:FF P:65 SP:F
D972  18        CLC                             A:04 X:ED Y:00 P:67 SP:F
D973  A9 FF     LDA #$FF                        A:04 X:ED Y:00 P:66 SP:F
D975  85 01     STA $01 = FF                    A:FF X:ED Y:00 P:E4 SP:F
D977  24 01     BIT $01 = FF                    A:FF X:ED Y:00 P:E4 SP:F
D979  A9 AA     LDA #$AA                        A:FF X:ED Y:00 P:E4 SP:F
D97B  8D 00 04  STA $0400 = AD                  A:AA X:ED Y:00 P:E4 SP:F
D97E  A9 55     LDA #$55                        A:AA X:ED Y:00 P:E4 SP:F
D980  11 33     ORA ($33),Y = 0400 @ 0400 = AA  A:55 X:ED Y:00 P:64 SP:F
D982  B0 08     BCS $D98C                       A:FF X:ED Y:00 P:E4 SP:F
D984  10 06     BPL $D98C                       A:FF X:ED Y:00 P:E4 SP:F
D986  C9 FF     CMP #$FF                        A:FF X:ED Y:00 P:E4 SP:F
D988  D0 02     BNE $D98C                       A:FF X:ED Y:00 P:67 SP:F
D98A  70 02     BVS $D98E                       A:FF X:ED Y:00 P:67 SP:F
D98E  E8        INX                             A:FF X:ED Y:00 P:67 SP:F
D98F  38        SEC                             A:FF X:EE Y:00 P:E5 SP:F
D990  B8        CLV                             A:FF X:EE Y:00 P:E5 SP:F
D991  A9 00     LDA #$00                        A:FF X:EE Y:00 P:A5 SP:F
D993  11 33     ORA ($33),Y = 0400 @ 0400 = AA  A:00 X:EE Y:00 P:27 SP:F
D995  F0 06     BEQ $D99D                       A:AA X:EE Y:00 P:A5 SP:F
D997  70 04     BVS $D99D                       A:AA X:EE Y:00 P:A5 SP:F
D999  90 02     BCC $D99D                       A:AA X:EE Y:00 P:A5 SP:F
D99B  30 02     BMI $D99F                       A:AA X:EE Y:00 P:A5 SP:F
D99F  E8        INX                             A:AA X:EE Y:00 P:A5 SP:F
D9A0  18        CLC                             A:AA X:EF Y:00 P:A5 SP:F
D9A1  24 01     BIT $01 = FF                    A:AA X:EF Y:00 P:A4 SP:F
D9A3  A9 55     LDA #$55                        A:AA X:EF Y:00 P:E4 SP:F
D9A5  31 33     AND ($33),Y = 0400 @ 0400 = AA  A:55 X:EF Y:00 P:64 SP:F
D9A7  D0 06     BNE $D9AF                       A:00 X:EF Y:00 P:66 SP:F
D9A9  50 04     BVC $D9AF                       A:00 X:EF Y:00 P:66 SP:F
D9AB  B0 02     BCS $D9AF                       A:00 X:EF Y:00 P:66 SP:F
D9AD  10 02     BPL $D9B1                       A:00 X:EF Y:00 P:66 SP:F
D9B1  E8        INX                             A:00 X:EF Y:00 P:66 SP:F
D9B2  38        SEC                             A:00 X:F0 Y:00 P:E4 SP:F
D9B3  B8        CLV                             A:00 X:F0 Y:00 P:E5 SP:F
D9B4  A9 EF     LDA #$EF                        A:00 X:F0 Y:00 P:A5 SP:F
D9B6  8D 00 04  STA $0400 = AA                  A:EF X:F0 Y:00 P:A5 SP:F
D9B9  A9 F8     LDA #$F8                        A:EF X:F0 Y:00 P:A5 SP:F
D9BB  31 33     AND ($33),Y = 0400 @ 0400 = EF  A:F8 X:F0 Y:00 P:A5 SP:F
D9BD  90 08     BCC $D9C7                       A:E8 X:F0 Y:00 P:A5 SP:F
D9BF  10 06     BPL $D9C7                       A:E8 X:F0 Y:00 P:A5 SP:F
D9C1  C9 E8     CMP #$E8                        A:E8 X:F0 Y:00 P:A5 SP:F
D9C3  D0 02     BNE $D9C7                       A:E8 X:F0 Y:00 P:27 SP:F
D9C5  50 02     BVC $D9C9                       A:E8 X:F0 Y:00 P:27 SP:F
D9C9  E8        INX                             A:E8 X:F0 Y:00 P:27 SP:F
D9CA  18        CLC                             A:E8 X:F1 Y:00 P:A5 SP:F
D9CB  24 01     BIT $01 = FF                    A:E8 X:F1 Y:00 P:A4 SP:F
D9CD  A9 AA     LDA #$AA                        A:E8 X:F1 Y:00 P:E4 SP:F
D9CF  8D 00 04  STA $0400 = EF                  A:AA X:F1 Y:00 P:E4 SP:F
D9D2  A9 5F     LDA #$5F                        A:AA X:F1 Y:00 P:E4 SP:F
D9D4  51 33     EOR ($33),Y = 0400 @ 0400 = AA  A:5F X:F1 Y:00 P:64 SP:F
D9D6  B0 08     BCS $D9E0                       A:F5 X:F1 Y:00 P:E4 SP:F
D9D8  10 06     BPL $D9E0                       A:F5 X:F1 Y:00 P:E4 SP:F
D9DA  C9 F5     CMP #$F5                        A:F5 X:F1 Y:00 P:E4 SP:F
D9DC  D0 02     BNE $D9E0                       A:F5 X:F1 Y:00 P:67 SP:F
D9DE  70 02     BVS $D9E2                       A:F5 X:F1 Y:00 P:67 SP:F
D9E2  E8        INX                             A:F5 X:F1 Y:00 P:67 SP:F
D9E3  38        SEC                             A:F5 X:F2 Y:00 P:E5 SP:F
D9E4  B8        CLV                             A:F5 X:F2 Y:00 P:E5 SP:F
D9E5  A9 70     LDA #$70                        A:F5 X:F2 Y:00 P:A5 SP:F
D9E7  8D 00 04  STA $0400 = AA                  A:70 X:F2 Y:00 P:25 SP:F
D9EA  51 33     EOR ($33),Y = 0400 @ 0400 = 70  A:70 X:F2 Y:00 P:25 SP:F
D9EC  D0 06     BNE $D9F4                       A:00 X:F2 Y:00 P:27 SP:F
D9EE  70 04     BVS $D9F4                       A:00 X:F2 Y:00 P:27 SP:F
D9F0  90 02     BCC $D9F4                       A:00 X:F2 Y:00 P:27 SP:F
D9F2  10 02     BPL $D9F6                       A:00 X:F2 Y:00 P:27 SP:F
D9F6  E8        INX                             A:00 X:F2 Y:00 P:27 SP:F
D9F7  18        CLC                             A:00 X:F3 Y:00 P:A5 SP:F
D9F8  24 01     BIT $01 = FF                    A:00 X:F3 Y:00 P:A4 SP:F
D9FA  A9 69     LDA #$69                        A:00 X:F3 Y:00 P:E6 SP:F
D9FC  8D 00 04  STA $0400 = 70                  A:69 X:F3 Y:00 P:64 SP:F
D9FF  A9 00     LDA #$00                        A:69 X:F3 Y:00 P:64 SP:F
DA01  71 33     ADC ($33),Y = 0400 @ 0400 = 69  A:00 X:F3 Y:00 P:66 SP:F
DA03  30 08     BMI $DA0D                       A:69 X:F3 Y:00 P:24 SP:F
DA05  B0 06     BCS $DA0D                       A:69 X:F3 Y:00 P:24 SP:F
DA07  C9 69     CMP #$69                        A:69 X:F3 Y:00 P:24 SP:F
DA09  D0 02     BNE $DA0D                       A:69 X:F3 Y:00 P:27 SP:F
DA0B  50 02     BVC $DA0F                       A:69 X:F3 Y:00 P:27 SP:F
DA0F  E8        INX                             A:69 X:F3 Y:00 P:27 SP:F
DA10  38        SEC                             A:69 X:F4 Y:00 P:A5 SP:F
DA11  24 01     BIT $01 = FF                    A:69 X:F4 Y:00 P:A5 SP:F
DA13  A9 00     LDA #$00                        A:69 X:F4 Y:00 P:E5 SP:F
DA15  71 33     ADC ($33),Y = 0400 @ 0400 = 69  A:00 X:F4 Y:00 P:67 SP:F
DA17  30 08     BMI $DA21                       A:6A X:F4 Y:00 P:24 SP:F
DA19  B0 06     BCS $DA21                       A:6A X:F4 Y:00 P:24 SP:F
DA1B  C9 6A     CMP #$6A                        A:6A X:F4 Y:00 P:24 SP:F
DA1D  D0 02     BNE $DA21                       A:6A X:F4 Y:00 P:27 SP:F
DA1F  50 02     BVC $DA23                       A:6A X:F4 Y:00 P:27 SP:F
DA23  E8        INX                             A:6A X:F4 Y:00 P:27 SP:F
DA24  38        SEC                             A:6A X:F5 Y:00 P:A5 SP:F
DA25  B8        CLV                             A:6A X:F5 Y:00 P:A5 SP:F
DA26  A9 7F     LDA #$7F                        A:6A X:F5 Y:00 P:A5 SP:F
DA28  8D 00 04  STA $0400 = 69                  A:7F X:F5 Y:00 P:25 SP:F
DA2B  71 33     ADC ($33),Y = 0400 @ 0400 = 7F  A:7F X:F5 Y:00 P:25 SP:F
DA2D  10 08     BPL $DA37                       A:FF X:F5 Y:00 P:E4 SP:F
DA2F  B0 06     BCS $DA37                       A:FF X:F5 Y:00 P:E4 SP:F
DA31  C9 FF     CMP #$FF                        A:FF X:F5 Y:00 P:E4 SP:F
DA33  D0 02     BNE $DA37                       A:FF X:F5 Y:00 P:67 SP:F
DA35  70 02     BVS $DA39                       A:FF X:F5 Y:00 P:67 SP:F
DA39  E8        INX                             A:FF X:F5 Y:00 P:67 SP:F
DA3A  18        CLC                             A:FF X:F6 Y:00 P:E5 SP:F
DA3B  24 01     BIT $01 = FF                    A:FF X:F6 Y:00 P:E4 SP:F
DA3D  A9 80     LDA #$80                        A:FF X:F6 Y:00 P:E4 SP:F
DA3F  8D 00 04  STA $0400 = 7F                  A:80 X:F6 Y:00 P:E4 SP:F
DA42  A9 7F     LDA #$7F                        A:80 X:F6 Y:00 P:E4 SP:F
DA44  71 33     ADC ($33),Y = 0400 @ 0400 = 80  A:7F X:F6 Y:00 P:64 SP:F
DA46  10 08     BPL $DA50                       A:FF X:F6 Y:00 P:A4 SP:F
DA48  B0 06     BCS $DA50                       A:FF X:F6 Y:00 P:A4 SP:F
DA4A  C9 FF     CMP #$FF                        A:FF X:F6 Y:00 P:A4 SP:F
DA4C  D0 02     BNE $DA50                       A:FF X:F6 Y:00 P:27 SP:F
DA4E  50 02     BVC $DA52                       A:FF X:F6 Y:00 P:27 SP:F
DA52  E8        INX                             A:FF X:F6 Y:00 P:27 SP:F
DA53  38        SEC                             A:FF X:F7 Y:00 P:A5 SP:F
DA54  B8        CLV                             A:FF X:F7 Y:00 P:A5 SP:F
DA55  A9 80     LDA #$80                        A:FF X:F7 Y:00 P:A5 SP:F
DA57  8D 00 04  STA $0400 = 80                  A:80 X:F7 Y:00 P:A5 SP:F
DA5A  A9 7F     LDA #$7F                        A:80 X:F7 Y:00 P:A5 SP:F
DA5C  71 33     ADC ($33),Y = 0400 @ 0400 = 80  A:7F X:F7 Y:00 P:25 SP:F
DA5E  D0 06     BNE $DA66                       A:00 X:F7 Y:00 P:27 SP:F
DA60  30 04     BMI $DA66                       A:00 X:F7 Y:00 P:27 SP:F
DA62  70 02     BVS $DA66                       A:00 X:F7 Y:00 P:27 SP:F
DA64  B0 02     BCS $DA68                       A:00 X:F7 Y:00 P:27 SP:F
DA68  E8        INX                             A:00 X:F7 Y:00 P:27 SP:F
DA69  24 01     BIT $01 = FF                    A:00 X:F8 Y:00 P:A5 SP:F
DA6B  A9 40     LDA #$40                        A:00 X:F8 Y:00 P:E7 SP:F
DA6D  8D 00 04  STA $0400 = 80                  A:40 X:F8 Y:00 P:65 SP:F
DA70  D1 33     CMP ($33),Y = 0400 @ 0400 = 40  A:40 X:F8 Y:00 P:65 SP:F
DA72  30 06     BMI $DA7A                       A:40 X:F8 Y:00 P:67 SP:F
DA74  90 04     BCC $DA7A                       A:40 X:F8 Y:00 P:67 SP:F
DA76  D0 02     BNE $DA7A                       A:40 X:F8 Y:00 P:67 SP:F
DA78  70 02     BVS $DA7C                       A:40 X:F8 Y:00 P:67 SP:F
DA7C  E8        INX                             A:40 X:F8 Y:00 P:67 SP:F
DA7D  B8        CLV                             A:40 X:F9 Y:00 P:E5 SP:F
DA7E  CE 00 04  DEC $0400 = 40                  A:40 X:F9 Y:00 P:A5 SP:F
DA81  D1 33     CMP ($33),Y = 0400 @ 0400 = 3F  A:40 X:F9 Y:00 P:25 SP:F
DA83  F0 06     BEQ $DA8B                       A:40 X:F9 Y:00 P:25 SP:F
DA85  30 04     BMI $DA8B                       A:40 X:F9 Y:00 P:25 SP:F
DA87  90 02     BCC $DA8B                       A:40 X:F9 Y:00 P:25 SP:F
DA89  50 02     BVC $DA8D                       A:40 X:F9 Y:00 P:25 SP:F
DA8D  E8        INX                             A:40 X:F9 Y:00 P:25 SP:F
DA8E  EE 00 04  INC $0400 = 3F                  A:40 X:FA Y:00 P:A5 SP:F
DA91  EE 00 04  INC $0400 = 40                  A:40 X:FA Y:00 P:25 SP:F
DA94  D1 33     CMP ($33),Y = 0400 @ 0400 = 41  A:40 X:FA Y:00 P:25 SP:F
DA96  F0 02     BEQ $DA9A                       A:40 X:FA Y:00 P:A4 SP:F
DA98  30 02     BMI $DA9C                       A:40 X:FA Y:00 P:A4 SP:F
DA9C  E8        INX                             A:40 X:FA Y:00 P:A4 SP:F
DA9D  A9 00     LDA #$00                        A:40 X:FB Y:00 P:A4 SP:F
DA9F  8D 00 04  STA $0400 = 41                  A:00 X:FB Y:00 P:26 SP:F
DAA2  A9 80     LDA #$80                        A:00 X:FB Y:00 P:26 SP:F
DAA4  D1 33     CMP ($33),Y = 0400 @ 0400 = 00  A:80 X:FB Y:00 P:A4 SP:F
DAA6  F0 04     BEQ $DAAC                       A:80 X:FB Y:00 P:A5 SP:F
DAA8  10 02     BPL $DAAC                       A:80 X:FB Y:00 P:A5 SP:F
DAAA  B0 02     BCS $DAAE                       A:80 X:FB Y:00 P:A5 SP:F
DAAE  E8        INX                             A:80 X:FB Y:00 P:A5 SP:F
DAAF  A0 80     LDY #$80                        A:80 X:FC Y:00 P:A5 SP:F
DAB1  8C 00 04  STY $0400 = 00                  A:80 X:FC Y:80 P:A5 SP:F
DAB4  A0 00     LDY #$00                        A:80 X:FC Y:80 P:A5 SP:F
DAB6  D1 33     CMP ($33),Y = 0400 @ 0400 = 80  A:80 X:FC Y:00 P:27 SP:F
DAB8  D0 04     BNE $DABE                       A:80 X:FC Y:00 P:27 SP:F
DABA  30 02     BMI $DABE                       A:80 X:FC Y:00 P:27 SP:F
DABC  B0 02     BCS $DAC0                       A:80 X:FC Y:00 P:27 SP:F
DAC0  E8        INX                             A:80 X:FC Y:00 P:27 SP:F
DAC1  EE 00 04  INC $0400 = 80                  A:80 X:FD Y:00 P:A5 SP:F
DAC4  D1 33     CMP ($33),Y = 0400 @ 0400 = 81  A:80 X:FD Y:00 P:A5 SP:F
DAC6  B0 04     BCS $DACC                       A:80 X:FD Y:00 P:A4 SP:F
DAC8  F0 02     BEQ $DACC                       A:80 X:FD Y:00 P:A4 SP:F
DACA  30 02     BMI $DACE                       A:80 X:FD Y:00 P:A4 SP:F
DACE  E8        INX                             A:80 X:FD Y:00 P:A4 SP:F
DACF  CE 00 04  DEC $0400 = 81                  A:80 X:FE Y:00 P:A4 SP:F
DAD2  CE 00 04  DEC $0400 = 80                  A:80 X:FE Y:00 P:A4 SP:F
DAD5  D1 33     CMP ($33),Y = 0400 @ 0400 = 7F  A:80 X:FE Y:00 P:24 SP:F
DAD7  90 04     BCC $DADD                       A:80 X:FE Y:00 P:25 SP:F
DAD9  F0 02     BEQ $DADD                       A:80 X:FE Y:00 P:25 SP:F
DADB  10 02     BPL $DADF                       A:80 X:FE Y:00 P:25 SP:F
DADF  60        RTS                             A:80 X:FE Y:00 P:25 SP:F
C61B  A5 00     LDA $00 = 00                    A:80 X:FE Y:00 P:25 SP:F
C61D  85 10     STA $10 = 00                    A:00 X:FE Y:00 P:27 SP:F
C61F  A9 00     LDA #$00                        A:00 X:FE Y:00 P:27 SP:F
C621  85 00     STA $00 = 00                    A:00 X:FE Y:00 P:27 SP:F
C623  20 E0 DA  JSR $DAE0                       A:00 X:FE Y:00 P:27 SP:F
DAE0  A9 00     LDA #$00                        A:00 X:FE Y:00 P:27 SP:F
DAE2  85 33     STA $33 = 00                    A:00 X:FE Y:00 P:27 SP:F
DAE4  A9 04     LDA #$04                        A:00 X:FE Y:00 P:27 SP:F
DAE6  85 34     STA $34 = 04                    A:04 X:FE Y:00 P:25 SP:F
DAE8  A0 00     LDY #$00                        A:04 X:FE Y:00 P:25 SP:F
DAEA  A2 01     LDX #$01                        A:04 X:FE Y:00 P:27 SP:F
DAEC  24 01     BIT $01 = FF                    A:04 X:01 Y:00 P:25 SP:F
DAEE  A9 40     LDA #$40                        A:04 X:01 Y:00 P:E5 SP:F
DAF0  8D 00 04  STA $0400 = 7F                  A:40 X:01 Y:00 P:65 SP:F
DAF3  38        SEC                             A:40 X:01 Y:00 P:65 SP:F
DAF4  F1 33     SBC ($33),Y = 0400 @ 0400 = 40  A:40 X:01 Y:00 P:65 SP:F
DAF6  30 0A     BMI $DB02                       A:00 X:01 Y:00 P:27 SP:F
DAF8  90 08     BCC $DB02                       A:00 X:01 Y:00 P:27 SP:F
DAFA  D0 06     BNE $DB02                       A:00 X:01 Y:00 P:27 SP:F
DAFC  70 04     BVS $DB02                       A:00 X:01 Y:00 P:27 SP:F
DAFE  C9 00     CMP #$00                        A:00 X:01 Y:00 P:27 SP:F
DB00  F0 02     BEQ $DB04                       A:00 X:01 Y:00 P:27 SP:F
DB04  E8        INX                             A:00 X:01 Y:00 P:27 SP:F
DB05  B8        CLV                             A:00 X:02 Y:00 P:25 SP:F
DB06  38        SEC                             A:00 X:02 Y:00 P:25 SP:F
DB07  A9 40     LDA #$40                        A:00 X:02 Y:00 P:25 SP:F
DB09  CE 00 04  DEC $0400 = 40                  A:40 X:02 Y:00 P:25 SP:F
DB0C  F1 33     SBC ($33),Y = 0400 @ 0400 = 3F  A:40 X:02 Y:00 P:25 SP:F
DB0E  F0 0A     BEQ $DB1A                       A:01 X:02 Y:00 P:25 SP:F
DB10  30 08     BMI $DB1A                       A:01 X:02 Y:00 P:25 SP:F
DB12  90 06     BCC $DB1A                       A:01 X:02 Y:00 P:25 SP:F
DB14  70 04     BVS $DB1A                       A:01 X:02 Y:00 P:25 SP:F
DB16  C9 01     CMP #$01                        A:01 X:02 Y:00 P:25 SP:F
DB18  F0 02     BEQ $DB1C                       A:01 X:02 Y:00 P:27 SP:F
DB1C  E8        INX                             A:01 X:02 Y:00 P:27 SP:F
DB1D  A9 40     LDA #$40                        A:01 X:03 Y:00 P:25 SP:F
DB1F  38        SEC                             A:40 X:03 Y:00 P:25 SP:F
DB20  24 01     BIT $01 = FF                    A:40 X:03 Y:00 P:25 SP:F
DB22  EE 00 04  INC $0400 = 3F                  A:40 X:03 Y:00 P:E5 SP:F
DB25  EE 00 04  INC $0400 = 40                  A:40 X:03 Y:00 P:65 SP:F
DB28  F1 33     SBC ($33),Y = 0400 @ 0400 = 41  A:40 X:03 Y:00 P:65 SP:F
DB2A  B0 0A     BCS $DB36                       A:FF X:03 Y:00 P:A4 SP:F
DB2C  F0 08     BEQ $DB36                       A:FF X:03 Y:00 P:A4 SP:F
DB2E  10 06     BPL $DB36                       A:FF X:03 Y:00 P:A4 SP:F
DB30  70 04     BVS $DB36                       A:FF X:03 Y:00 P:A4 SP:F
DB32  C9 FF     CMP #$FF                        A:FF X:03 Y:00 P:A4 SP:F
DB34  F0 02     BEQ $DB38                       A:FF X:03 Y:00 P:27 SP:F
DB38  E8        INX                             A:FF X:03 Y:00 P:27 SP:F
DB39  18        CLC                             A:FF X:04 Y:00 P:25 SP:F
DB3A  A9 00     LDA #$00                        A:FF X:04 Y:00 P:24 SP:F
DB3C  8D 00 04  STA $0400 = 41                  A:00 X:04 Y:00 P:26 SP:F
DB3F  A9 80     LDA #$80                        A:00 X:04 Y:00 P:26 SP:F
DB41  F1 33     SBC ($33),Y = 0400 @ 0400 = 00  A:80 X:04 Y:00 P:A4 SP:F
DB43  90 04     BCC $DB49                       A:7F X:04 Y:00 P:65 SP:F
DB45  C9 7F     CMP #$7F                        A:7F X:04 Y:00 P:65 SP:F
DB47  F0 02     BEQ $DB4B                       A:7F X:04 Y:00 P:67 SP:F
DB4B  E8        INX                             A:7F X:04 Y:00 P:67 SP:F
DB4C  38        SEC                             A:7F X:05 Y:00 P:65 SP:F
DB4D  A9 7F     LDA #$7F                        A:7F X:05 Y:00 P:65 SP:F
DB4F  8D 00 04  STA $0400 = 00                  A:7F X:05 Y:00 P:65 SP:F
DB52  A9 81     LDA #$81                        A:7F X:05 Y:00 P:65 SP:F
DB54  F1 33     SBC ($33),Y = 0400 @ 0400 = 7F  A:81 X:05 Y:00 P:E5 SP:F
DB56  50 06     BVC $DB5E                       A:02 X:05 Y:00 P:65 SP:F
DB58  90 04     BCC $DB5E                       A:02 X:05 Y:00 P:65 SP:F
DB5A  C9 02     CMP #$02                        A:02 X:05 Y:00 P:65 SP:F
DB5C  F0 02     BEQ $DB60                       A:02 X:05 Y:00 P:67 SP:F
DB60  E8        INX                             A:02 X:05 Y:00 P:67 SP:F
DB61  A9 00     LDA #$00                        A:02 X:06 Y:00 P:65 SP:F
DB63  A9 87     LDA #$87                        A:00 X:06 Y:00 P:67 SP:F
DB65  91 33     STA ($33),Y = 0400 @ 0400 = 7F  A:87 X:06 Y:00 P:E5 SP:F
DB67  AD 00 04  LDA $0400 = 87                  A:87 X:06 Y:00 P:E5 SP:F
DB6A  C9 87     CMP #$87                        A:87 X:06 Y:00 P:E5 SP:F
DB6C  F0 02     BEQ $DB70                       A:87 X:06 Y:00 P:67 SP:F
DB70  E8        INX                             A:87 X:06 Y:00 P:67 SP:F
DB71  A9 7E     LDA #$7E                        A:87 X:07 Y:00 P:65 SP:F
DB73  8D 00 02  STA $0200 = 7F                  A:7E X:07 Y:00 P:65 SP:F
DB76  A9 DB     LDA #$DB                        A:7E X:07 Y:00 P:65 SP:F
DB78  8D 01 02  STA $0201 = 00                  A:DB X:07 Y:00 P:E5 SP:F
DB7B  6C 00 02  JMP ($0200) = DB7E              A:DB X:07 Y:00 P:E5 SP:F
DB7E  A9 00     LDA #$00                        A:DB X:07 Y:00 P:E5 SP:F
DB80  8D FF 02  STA $02FF = 00                  A:00 X:07 Y:00 P:67 SP:F
DB83  A9 01     LDA #$01                        A:00 X:07 Y:00 P:67 SP:F
DB85  8D 00 03  STA $0300 = 89                  A:01 X:07 Y:00 P:65 SP:F
DB88  A9 03     LDA #$03                        A:01 X:07 Y:00 P:65 SP:F
DB8A  8D 00 02  STA $0200 = 7E                  A:03 X:07 Y:00 P:65 SP:F
DB8D  A9 A9     LDA #$A9                        A:03 X:07 Y:00 P:65 SP:F
DB8F  8D 00 01  STA $0100 = 00                  A:A9 X:07 Y:00 P:E5 SP:F
DB92  A9 55     LDA #$55                        A:A9 X:07 Y:00 P:E5 SP:F
DB94  8D 01 01  STA $0101 = 00                  A:55 X:07 Y:00 P:65 SP:F
DB97  A9 60     LDA #$60                        A:55 X:07 Y:00 P:65 SP:F
DB99  8D 02 01  STA $0102 = 00                  A:60 X:07 Y:00 P:65 SP:F
DB9C  A9 A9     LDA #$A9                        A:60 X:07 Y:00 P:65 SP:F
DB9E  8D 00 03  STA $0300 = 01                  A:A9 X:07 Y:00 P:E5 SP:F
DBA1  A9 AA     LDA #$AA                        A:A9 X:07 Y:00 P:E5 SP:F
DBA3  8D 01 03  STA $0301 = 00                  A:AA X:07 Y:00 P:E5 SP:F
DBA6  A9 60     LDA #$60                        A:AA X:07 Y:00 P:E5 SP:F
DBA8  8D 02 03  STA $0302 = 00                  A:60 X:07 Y:00 P:65 SP:F
DBAB  20 B5 DB  JSR $DBB5                       A:60 X:07 Y:00 P:65 SP:F
DBB5  6C FF 02  JMP ($02FF) = 0300              A:60 X:07 Y:00 P:65 SP:F
0300  A9 AA     LDA #$AA                        A:60 X:07 Y:00 P:65 SP:F
0302  60        RTS                             A:AA X:07 Y:00 P:E5 SP:F
DBAE  C9 AA     CMP #$AA                        A:AA X:07 Y:00 P:E5 SP:F
DBB0  F0 02     BEQ $DBB4                       A:AA X:07 Y:00 P:67 SP:F
DBB4  60        RTS                             A:AA X:07 Y:00 P:67 SP:F
C626  20 4A DF  JSR $DF4A                       A:AA X:07 Y:00 P:67 SP:F
DF4A  A9 89     LDA #$89                        A:AA X:07 Y:00 P:67 SP:F
DF4C  8D 00 03  STA $0300 = A9                  A:89 X:07 Y:00 P:E5 SP:F
DF4F  A9 A3     LDA #$A3                        A:89 X:07 Y:00 P:E5 SP:F
DF51  85 33     STA $33 = 00                    A:A3 X:07 Y:00 P:E5 SP:F
DF53  A9 12     LDA #$12                        A:A3 X:07 Y:00 P:E5 SP:F
DF55  8D 45 02  STA $0245 = 12                  A:12 X:07 Y:00 P:65 SP:F
DF58  A2 65     LDX #$65                        A:12 X:07 Y:00 P:65 SP:F
DF5A  A0 00     LDY #$00                        A:12 X:65 Y:00 P:65 SP:F
DF5C  38        SEC                             A:12 X:65 Y:00 P:67 SP:F
DF5D  A9 00     LDA #$00                        A:12 X:65 Y:00 P:67 SP:F
DF5F  B8        CLV                             A:00 X:65 Y:00 P:67 SP:F
DF60  B9 00 03  LDA $0300,Y @ 0300 = 89         A:00 X:65 Y:00 P:27 SP:F
DF63  F0 0C     BEQ $DF71                       A:89 X:65 Y:00 P:A5 SP:F
DF65  90 0A     BCC $DF71                       A:89 X:65 Y:00 P:A5 SP:F
DF67  70 08     BVS $DF71                       A:89 X:65 Y:00 P:A5 SP:F
DF69  C9 89     CMP #$89                        A:89 X:65 Y:00 P:A5 SP:F
DF6B  D0 04     BNE $DF71                       A:89 X:65 Y:00 P:27 SP:F
DF6D  E0 65     CPX #$65                        A:89 X:65 Y:00 P:27 SP:F
DF6F  F0 04     BEQ $DF75                       A:89 X:65 Y:00 P:27 SP:F
DF75  A9 FF     LDA #$FF                        A:89 X:65 Y:00 P:27 SP:F
DF77  85 01     STA $01 = FF                    A:FF X:65 Y:00 P:A5 SP:F
DF79  24 01     BIT $01 = FF                    A:FF X:65 Y:00 P:A5 SP:F
DF7B  A0 34     LDY #$34                        A:FF X:65 Y:00 P:E5 SP:F
DF7D  B9 FF FF  LDA $FFFF,Y @ 0033 = A3         A:FF X:65 Y:34 P:65 SP:F
DF80  C9 A3     CMP #$A3                        A:A3 X:65 Y:34 P:E5 SP:F
DF82  D0 02     BNE $DF86                       A:A3 X:65 Y:34 P:67 SP:F
DF84  B0 04     BCS $DF8A                       A:A3 X:65 Y:34 P:67 SP:F
DF8A  A9 46     LDA #$46                        A:A3 X:65 Y:34 P:67 SP:F
DF8C  85 FF     STA $FF = 46                    A:46 X:65 Y:34 P:65 SP:F
DF8E  A0 FF     LDY #$FF                        A:46 X:65 Y:34 P:65 SP:F
DF90  B9 46 01  LDA $0146,Y @ 0245 = 12         A:46 X:65 Y:FF P:E5 SP:F
DF93  C9 12     CMP #$12                        A:12 X:65 Y:FF P:65 SP:F
DF95  F0 04     BEQ $DF9B                       A:12 X:65 Y:FF P:67 SP:F
DF9B  A2 39     LDX #$39                        A:12 X:65 Y:FF P:67 SP:F
DF9D  18        CLC                             A:12 X:39 Y:FF P:65 SP:F
DF9E  A9 FF     LDA #$FF                        A:12 X:39 Y:FF P:64 SP:F
DFA0  85 01     STA $01 = FF                    A:FF X:39 Y:FF P:E4 SP:F
DFA2  24 01     BIT $01 = FF                    A:FF X:39 Y:FF P:E4 SP:F
DFA4  A9 AA     LDA #$AA                        A:FF X:39 Y:FF P:E4 SP:F
DFA6  8D 00 04  STA $0400 = 87                  A:AA X:39 Y:FF P:E4 SP:F
DFA9  A9 55     LDA #$55                        A:AA X:39 Y:FF P:E4 SP:F
DFAB  A0 00     LDY #$00                        A:55 X:39 Y:FF P:64 SP:F
DFAD  19 00 04  ORA $0400,Y @ 0400 = AA         A:55 X:39 Y:00 P:66 SP:F
DFB0  B0 08     BCS $DFBA                       A:FF X:39 Y:00 P:E4 SP:F
DFB2  10 06     BPL $DFBA                       A:FF X:39 Y:00 P:E4 SP:F
DFB4  C9 FF     CMP #$FF                        A:FF X:39 Y:00 P:E4 SP:F
DFB6  D0 02     BNE $DFBA                       A:FF X:39 Y:00 P:67 SP:F
DFB8  70 02     BVS $DFBC                       A:FF X:39 Y:00 P:67 SP:F
DFBC  E8        INX                             A:FF X:39 Y:00 P:67 SP:F
DFBD  38        SEC                             A:FF X:3A Y:00 P:65 SP:F
DFBE  B8        CLV                             A:FF X:3A Y:00 P:65 SP:F
DFBF  A9 00     LDA #$00                        A:FF X:3A Y:00 P:25 SP:F
DFC1  19 00 04  ORA $0400,Y @ 0400 = AA         A:00 X:3A Y:00 P:27 SP:F
DFC4  F0 06     BEQ $DFCC                       A:AA X:3A Y:00 P:A5 SP:F
DFC6  70 04     BVS $DFCC                       A:AA X:3A Y:00 P:A5 SP:F
DFC8  90 02     BCC $DFCC                       A:AA X:3A Y:00 P:A5 SP:F
DFCA  30 02     BMI $DFCE                       A:AA X:3A Y:00 P:A5 SP:F
DFCE  E8        INX                             A:AA X:3A Y:00 P:A5 SP:F
DFCF  18        CLC                             A:AA X:3B Y:00 P:25 SP:F
DFD0  24 01     BIT $01 = FF                    A:AA X:3B Y:00 P:24 SP:F
DFD2  A9 55     LDA #$55                        A:AA X:3B Y:00 P:E4 SP:F
DFD4  39 00 04  AND $0400,Y @ 0400 = AA         A:55 X:3B Y:00 P:64 SP:F
DFD7  D0 06     BNE $DFDF                       A:00 X:3B Y:00 P:66 SP:F
DFD9  50 04     BVC $DFDF                       A:00 X:3B Y:00 P:66 SP:F
DFDB  B0 02     BCS $DFDF                       A:00 X:3B Y:00 P:66 SP:F
DFDD  10 02     BPL $DFE1                       A:00 X:3B Y:00 P:66 SP:F
DFE1  E8        INX                             A:00 X:3B Y:00 P:66 SP:F
DFE2  38        SEC                             A:00 X:3C Y:00 P:64 SP:F
DFE3  B8        CLV                             A:00 X:3C Y:00 P:65 SP:F
DFE4  A9 EF     LDA #$EF                        A:00 X:3C Y:00 P:25 SP:F
DFE6  8D 00 04  STA $0400 = AA                  A:EF X:3C Y:00 P:A5 SP:F
DFE9  A9 F8     LDA #$F8                        A:EF X:3C Y:00 P:A5 SP:F
DFEB  39 00 04  AND $0400,Y @ 0400 = EF         A:F8 X:3C Y:00 P:A5 SP:F
DFEE  90 08     BCC $DFF8                       A:E8 X:3C Y:00 P:A5 SP:F
DFF0  10 06     BPL $DFF8                       A:E8 X:3C Y:00 P:A5 SP:F
DFF2  C9 E8     CMP #$E8                        A:E8 X:3C Y:00 P:A5 SP:F
DFF4  D0 02     BNE $DFF8                       A:E8 X:3C Y:00 P:27 SP:F
DFF6  50 02     BVC $DFFA                       A:E8 X:3C Y:00 P:27 SP:F
DFFA  E8        INX                             A:E8 X:3C Y:00 P:27 SP:F
DFFB  18        CLC                             A:E8 X:3D Y:00 P:25 SP:F
DFFC  24 01     BIT $01 = FF                    A:E8 X:3D Y:00 P:24 SP:F
DFFE  A9 AA     LDA #$AA                        A:E8 X:3D Y:00 P:E4 SP:F
E000  8D 00 04  STA $0400 = EF                  A:AA X:3D Y:00 P:E4 SP:F
E003  A9 5F     LDA #$5F                        A:AA X:3D Y:00 P:E4 SP:F
E005  59 00 04  EOR $0400,Y @ 0400 = AA         A:5F X:3D Y:00 P:64 SP:F
E008  B0 08     BCS $E012                       A:F5 X:3D Y:00 P:E4 SP:F
E00A  10 06     BPL $E012                       A:F5 X:3D Y:00 P:E4 SP:F
E00C  C9 F5     CMP #$F5                        A:F5 X:3D Y:00 P:E4 SP:F
E00E  D0 02     BNE $E012                       A:F5 X:3D Y:00 P:67 SP:F
E010  70 02     BVS $E014                       A:F5 X:3D Y:00 P:67 SP:F
E014  E8        INX                             A:F5 X:3D Y:00 P:67 SP:F
E015  38        SEC                             A:F5 X:3E Y:00 P:65 SP:F
E016  B8        CLV                             A:F5 X:3E Y:00 P:65 SP:F
E017  A9 70     LDA #$70                        A:F5 X:3E Y:00 P:25 SP:F
E019  8D 00 04  STA $0400 = AA                  A:70 X:3E Y:00 P:25 SP:F
E01C  59 00 04  EOR $0400,Y @ 0400 = 70         A:70 X:3E Y:00 P:25 SP:F
E01F  D0 06     BNE $E027                       A:00 X:3E Y:00 P:27 SP:F
E021  70 04     BVS $E027                       A:00 X:3E Y:00 P:27 SP:F
E023  90 02     BCC $E027                       A:00 X:3E Y:00 P:27 SP:F
E025  10 02     BPL $E029                       A:00 X:3E Y:00 P:27 SP:F
E029  E8        INX                             A:00 X:3E Y:00 P:27 SP:F
E02A  18        CLC                             A:00 X:3F Y:00 P:25 SP:F
E02B  24 01     BIT $01 = FF                    A:00 X:3F Y:00 P:24 SP:F
E02D  A9 69     LDA #$69                        A:00 X:3F Y:00 P:E6 SP:F
E02F  8D 00 04  STA $0400 = 70                  A:69 X:3F Y:00 P:64 SP:F
E032  A9 00     LDA #$00                        A:69 X:3F Y:00 P:64 SP:F
E034  79 00 04  ADC $0400,Y @ 0400 = 69         A:00 X:3F Y:00 P:66 SP:F
E037  30 08     BMI $E041                       A:69 X:3F Y:00 P:24 SP:F
E039  B0 06     BCS $E041                       A:69 X:3F Y:00 P:24 SP:F
E03B  C9 69     CMP #$69                        A:69 X:3F Y:00 P:24 SP:F
E03D  D0 02     BNE $E041                       A:69 X:3F Y:00 P:27 SP:F
E03F  50 02     BVC $E043                       A:69 X:3F Y:00 P:27 SP:F
E043  E8        INX                             A:69 X:3F Y:00 P:27 SP:F
E044  38        SEC                             A:69 X:40 Y:00 P:25 SP:F
E045  24 01     BIT $01 = FF                    A:69 X:40 Y:00 P:25 SP:F
E047  A9 00     LDA #$00                        A:69 X:40 Y:00 P:E5 SP:F
E049  79 00 04  ADC $0400,Y @ 0400 = 69         A:00 X:40 Y:00 P:67 SP:F
E04C  30 08     BMI $E056                       A:6A X:40 Y:00 P:24 SP:F
E04E  B0 06     BCS $E056                       A:6A X:40 Y:00 P:24 SP:F
E050  C9 6A     CMP #$6A                        A:6A X:40 Y:00 P:24 SP:F
E052  D0 02     BNE $E056                       A:6A X:40 Y:00 P:27 SP:F
E054  50 02     BVC $E058                       A:6A X:40 Y:00 P:27 SP:F
E058  E8        INX                             A:6A X:40 Y:00 P:27 SP:F
E059  38        SEC                             A:6A X:41 Y:00 P:25 SP:F
E05A  B8        CLV                             A:6A X:41 Y:00 P:25 SP:F
E05B  A9 7F     LDA #$7F                        A:6A X:41 Y:00 P:25 SP:F
E05D  8D 00 04  STA $0400 = 69                  A:7F X:41 Y:00 P:25 SP:F
E060  79 00 04  ADC $0400,Y @ 0400 = 7F         A:7F X:41 Y:00 P:25 SP:F
E063  10 08     BPL $E06D                       A:FF X:41 Y:00 P:E4 SP:F
E065  B0 06     BCS $E06D                       A:FF X:41 Y:00 P:E4 SP:F
E067  C9 FF     CMP #$FF                        A:FF X:41 Y:00 P:E4 SP:F
E069  D0 02     BNE $E06D                       A:FF X:41 Y:00 P:67 SP:F
E06B  70 02     BVS $E06F                       A:FF X:41 Y:00 P:67 SP:F
E06F  E8        INX                             A:FF X:41 Y:00 P:67 SP:F
E070  18        CLC                             A:FF X:42 Y:00 P:65 SP:F
E071  24 01     BIT $01 = FF                    A:FF X:42 Y:00 P:64 SP:F
E073  A9 80     LDA #$80                        A:FF X:42 Y:00 P:E4 SP:F
E075  8D 00 04  STA $0400 = 7F                  A:80 X:42 Y:00 P:E4 SP:F
E078  A9 7F     LDA #$7F                        A:80 X:42 Y:00 P:E4 SP:F
E07A  79 00 04  ADC $0400,Y @ 0400 = 80         A:7F X:42 Y:00 P:64 SP:F
E07D  10 08     BPL $E087                       A:FF X:42 Y:00 P:A4 SP:F
E07F  B0 06     BCS $E087                       A:FF X:42 Y:00 P:A4 SP:F
E081  C9 FF     CMP #$FF                        A:FF X:42 Y:00 P:A4 SP:F
E083  D0 02     BNE $E087                       A:FF X:42 Y:00 P:27 SP:F
E085  50 02     BVC $E089                       A:FF X:42 Y:00 P:27 SP:F
E089  E8        INX                             A:FF X:42 Y:00 P:27 SP:F
E08A  38        SEC                             A:FF X:43 Y:00 P:25 SP:F
E08B  B8        CLV                             A:FF X:43 Y:00 P:25 SP:F
E08C  A9 80     LDA #$80                        A:FF X:43 Y:00 P:25 SP:F
E08E  8D 00 04  STA $0400 = 80                  A:80 X:43 Y:00 P:A5 SP:F
E091  A9 7F     LDA #$7F                        A:80 X:43 Y:00 P:A5 SP:F
E093  79 00 04  ADC $0400,Y @ 0400 = 80         A:7F X:43 Y:00 P:25 SP:F
E096  D0 06     BNE $E09E                       A:00 X:43 Y:00 P:27 SP:F
E098  30 04     BMI $E09E                       A:00 X:43 Y:00 P:27 SP:F
E09A  70 02     BVS $E09E                       A:00 X:43 Y:00 P:27 SP:F
E09C  B0 02     BCS $E0A0                       A:00 X:43 Y:00 P:27 SP:F
E0A0  E8        INX                             A:00 X:43 Y:00 P:27 SP:F
E0A1  24 01     BIT $01 = FF                    A:00 X:44 Y:00 P:25 SP:F
E0A3  A9 40     LDA #$40                        A:00 X:44 Y:00 P:E7 SP:F
E0A5  8D 00 04  STA $0400 = 80                  A:40 X:44 Y:00 P:65 SP:F
E0A8  D9 00 04  CMP $0400,Y @ 0400 = 40         A:40 X:44 Y:00 P:65 SP:F
E0AB  30 06     BMI $E0B3                       A:40 X:44 Y:00 P:67 SP:F
E0AD  90 04     BCC $E0B3                       A:40 X:44 Y:00 P:67 SP:F
E0AF  D0 02     BNE $E0B3                       A:40 X:44 Y:00 P:67 SP:F
E0B1  70 02     BVS $E0B5                       A:40 X:44 Y:00 P:67 SP:F
E0B5  E8        INX                             A:40 X:44 Y:00 P:67 SP:F
E0B6  B8        CLV                             A:40 X:45 Y:00 P:65 SP:F
E0B7  CE 00 04  DEC $0400 = 40                  A:40 X:45 Y:00 P:25 SP:F
E0BA  D9 00 04  CMP $0400,Y @ 0400 = 3F         A:40 X:45 Y:00 P:25 SP:F
E0BD  F0 06     BEQ $E0C5                       A:40 X:45 Y:00 P:25 SP:F
E0BF  30 04     BMI $E0C5                       A:40 X:45 Y:00 P:25 SP:F
E0C1  90 02     BCC $E0C5                       A:40 X:45 Y:00 P:25 SP:F
E0C3  50 02     BVC $E0C7                       A:40 X:45 Y:00 P:25 SP:F
E0C7  E8        INX                             A:40 X:45 Y:00 P:25 SP:F
E0C8  EE 00 04  INC $0400 = 3F                  A:40 X:46 Y:00 P:25 SP:F
E0CB  EE 00 04  INC $0400 = 40                  A:40 X:46 Y:00 P:25 SP:F
E0CE  D9 00 04  CMP $0400,Y @ 0400 = 41         A:40 X:46 Y:00 P:25 SP:F
E0D1  F0 02     BEQ $E0D5                       A:40 X:46 Y:00 P:A4 SP:F
E0D3  30 02     BMI $E0D7                       A:40 X:46 Y:00 P:A4 SP:F
E0D7  E8        INX                             A:40 X:46 Y:00 P:A4 SP:F
E0D8  A9 00     LDA #$00                        A:40 X:47 Y:00 P:24 SP:F
E0DA  8D 00 04  STA $0400 = 41                  A:00 X:47 Y:00 P:26 SP:F
E0DD  A9 80     LDA #$80                        A:00 X:47 Y:00 P:26 SP:F
E0DF  D9 00 04  CMP $0400,Y @ 0400 = 00         A:80 X:47 Y:00 P:A4 SP:F
E0E2  F0 04     BEQ $E0E8                       A:80 X:47 Y:00 P:A5 SP:F
E0E4  10 02     BPL $E0E8                       A:80 X:47 Y:00 P:A5 SP:F
E0E6  B0 02     BCS $E0EA                       A:80 X:47 Y:00 P:A5 SP:F
E0EA  E8        INX                             A:80 X:47 Y:00 P:A5 SP:F
E0EB  A0 80     LDY #$80                        A:80 X:48 Y:00 P:25 SP:F
E0ED  8C 00 04  STY $0400 = 00                  A:80 X:48 Y:80 P:A5 SP:F
E0F0  A0 00     LDY #$00                        A:80 X:48 Y:80 P:A5 SP:F
E0F2  D9 00 04  CMP $0400,Y @ 0400 = 80         A:80 X:48 Y:00 P:27 SP:F
E0F5  D0 04     BNE $E0FB                       A:80 X:48 Y:00 P:27 SP:F
E0F7  30 02     BMI $E0FB                       A:80 X:48 Y:00 P:27 SP:F
E0F9  B0 02     BCS $E0FD                       A:80 X:48 Y:00 P:27 SP:F
E0FD  E8        INX                             A:80 X:48 Y:00 P:27 SP:F
E0FE  EE 00 04  INC $0400 = 80                  A:80 X:49 Y:00 P:25 SP:F
E101  D9 00 04  CMP $0400,Y @ 0400 = 81         A:80 X:49 Y:00 P:A5 SP:F
E104  B0 04     BCS $E10A                       A:80 X:49 Y:00 P:A4 SP:F
E106  F0 02     BEQ $E10A                       A:80 X:49 Y:00 P:A4 SP:F
E108  30 02     BMI $E10C                       A:80 X:49 Y:00 P:A4 SP:F
E10C  E8        INX                             A:80 X:49 Y:00 P:A4 SP:F
E10D  CE 00 04  DEC $0400 = 81                  A:80 X:4A Y:00 P:24 SP:F
E110  CE 00 04  DEC $0400 = 80                  A:80 X:4A Y:00 P:A4 SP:F
E113  D9 00 04  CMP $0400,Y @ 0400 = 7F         A:80 X:4A Y:00 P:24 SP:F
E116  90 04     BCC $E11C                       A:80 X:4A Y:00 P:25 SP:F
E118  F0 02     BEQ $E11C                       A:80 X:4A Y:00 P:25 SP:F
E11A  10 02     BPL $E11E                       A:80 X:4A Y:00 P:25 SP:F
E11E  E8        INX                             A:80 X:4A Y:00 P:25 SP:F
E11F  24 01     BIT $01 = FF                    A:80 X:4B Y:00 P:25 SP:F
E121  A9 40     LDA #$40                        A:80 X:4B Y:00 P:E5 SP:F
E123  8D 00 04  STA $0400 = 7F                  A:40 X:4B Y:00 P:65 SP:F
E126  38        SEC                             A:40 X:4B Y:00 P:65 SP:F
E127  F9 00 04  SBC $0400,Y @ 0400 = 40         A:40 X:4B Y:00 P:65 SP:F
E12A  30 0A     BMI $E136                       A:00 X:4B Y:00 P:27 SP:F
E12C  90 08     BCC $E136                       A:00 X:4B Y:00 P:27 SP:F
E12E  D0 06     BNE $E136                       A:00 X:4B Y:00 P:27 SP:F
E130  70 04     BVS $E136                       A:00 X:4B Y:00 P:27 SP:F
E132  C9 00     CMP #$00                        A:00 X:4B Y:00 P:27 SP:F
E134  F0 02     BEQ $E138                       A:00 X:4B Y:00 P:27 SP:F
E138  E8        INX                             A:00 X:4B Y:00 P:27 SP:F
E139  B8        CLV                             A:00 X:4C Y:00 P:25 SP:F
E13A  38        SEC                             A:00 X:4C Y:00 P:25 SP:F
E13B  A9 40     LDA #$40                        A:00 X:4C Y:00 P:25 SP:F
E13D  CE 00 04  DEC $0400 = 40                  A:40 X:4C Y:00 P:25 SP:F
E140  F9 00 04  SBC $0400,Y @ 0400 = 3F         A:40 X:4C Y:00 P:25 SP:F
E143  F0 0A     BEQ $E14F                       A:01 X:4C Y:00 P:25 SP:F
E145  30 08     BMI $E14F                       A:01 X:4C Y:00 P:25 SP:F
E147  90 06     BCC $E14F                       A:01 X:4C Y:00 P:25 SP:F
E149  70 04     BVS $E14F                       A:01 X:4C Y:00 P:25 SP:F
E14B  C9 01     CMP #$01                        A:01 X:4C Y:00 P:25 SP:F
E14D  F0 02     BEQ $E151                       A:01 X:4C Y:00 P:27 SP:F
E151  E8        INX                             A:01 X:4C Y:00 P:27 SP:F
E152  A9 40     LDA #$40                        A:01 X:4D Y:00 P:25 SP:F
E154  38        SEC                             A:40 X:4D Y:00 P:25 SP:F
E155  24 01     BIT $01 = FF                    A:40 X:4D Y:00 P:25 SP:F
E157  EE 00 04  INC $0400 = 3F                  A:40 X:4D Y:00 P:E5 SP:F
E15A  EE 00 04  INC $0400 = 40                  A:40 X:4D Y:00 P:65 SP:F
E15D  F9 00 04  SBC $0400,Y @ 0400 = 41         A:40 X:4D Y:00 P:65 SP:F
E160  B0 0A     BCS $E16C                       A:FF X:4D Y:00 P:A4 SP:F
E162  F0 08     BEQ $E16C                       A:FF X:4D Y:00 P:A4 SP:F
E164  10 06     BPL $E16C                       A:FF X:4D Y:00 P:A4 SP:F
E166  70 04     BVS $E16C                       A:FF X:4D Y:00 P:A4 SP:F
E168  C9 FF     CMP #$FF                        A:FF X:4D Y:00 P:A4 SP:F
E16A  F0 02     BEQ $E16E                       A:FF X:4D Y:00 P:27 SP:F
E16E  E8        INX                             A:FF X:4D Y:00 P:27 SP:F
E16F  18        CLC                             A:FF X:4E Y:00 P:25 SP:F
E170  A9 00     LDA #$00                        A:FF X:4E Y:00 P:24 SP:F
E172  8D 00 04  STA $0400 = 41                  A:00 X:4E Y:00 P:26 SP:F
E175  A9 80     LDA #$80                        A:00 X:4E Y:00 P:26 SP:F
E177  F9 00 04  SBC $0400,Y @ 0400 = 00         A:80 X:4E Y:00 P:A4 SP:F
E17A  90 04     BCC $E180                       A:7F X:4E Y:00 P:65 SP:F
E17C  C9 7F     CMP #$7F                        A:7F X:4E Y:00 P:65 SP:F
E17E  F0 02     BEQ $E182                       A:7F X:4E Y:00 P:67 SP:F
E182  E8        INX                             A:7F X:4E Y:00 P:67 SP:F
E183  38        SEC                             A:7F X:4F Y:00 P:65 SP:F
E184  A9 7F     LDA #$7F                        A:7F X:4F Y:00 P:65 SP:F
E186  8D 00 04  STA $0400 = 00                  A:7F X:4F Y:00 P:65 SP:F
E189  A9 81     LDA #$81                        A:7F X:4F Y:00 P:65 SP:F
E18B  F9 00 04  SBC $0400,Y @ 0400 = 7F         A:81 X:4F Y:00 P:E5 SP:F
E18E  50 06     BVC $E196                       A:02 X:4F Y:00 P:65 SP:F
E190  90 04     BCC $E196                       A:02 X:4F Y:00 P:65 SP:F
E192  C9 02     CMP #$02                        A:02 X:4F Y:00 P:65 SP:F
E194  F0 02     BEQ $E198                       A:02 X:4F Y:00 P:67 SP:F
E198  E8        INX                             A:02 X:4F Y:00 P:67 SP:F
E199  A9 00     LDA #$00                        A:02 X:50 Y:00 P:65 SP:F
E19B  A9 87     LDA #$87                        A:00 X:50 Y:00 P:67 SP:F
E19D  99 00 04  STA $0400,Y @ 0400 = 7F         A:87 X:50 Y:00 P:E5 SP:F
E1A0  AD 00 04  LDA $0400 = 87                  A:87 X:50 Y:00 P:E5 SP:F
E1A3  C9 87     CMP #$87                        A:87 X:50 Y:00 P:E5 SP:F
E1A5  F0 02     BEQ $E1A9                       A:87 X:50 Y:00 P:67 SP:F
E1A9  60        RTS                             A:87 X:50 Y:00 P:67 SP:F
C629  20 B8 DB  JSR $DBB8                       A:87 X:50 Y:00 P:67 SP:F
DBB8  A9 FF     LDA #$FF                        A:87 X:50 Y:00 P:67 SP:F
DBBA  85 01     STA $01 = FF                    A:FF X:50 Y:00 P:E5 SP:F
DBBC  A9 AA     LDA #$AA                        A:FF X:50 Y:00 P:E5 SP:F
DBBE  85 33     STA $33 = A3                    A:AA X:50 Y:00 P:E5 SP:F
DBC0  A9 BB     LDA #$BB                        A:AA X:50 Y:00 P:E5 SP:F
DBC2  85 89     STA $89 = 00                    A:BB X:50 Y:00 P:E5 SP:F
DBC4  A2 00     LDX #$00                        A:BB X:50 Y:00 P:E5 SP:F
DBC6  A9 66     LDA #$66                        A:BB X:00 Y:00 P:67 SP:F
DBC8  24 01     BIT $01 = FF                    A:66 X:00 Y:00 P:65 SP:F
DBCA  38        SEC                             A:66 X:00 Y:00 P:E5 SP:F
DBCB  A0 00     LDY #$00                        A:66 X:00 Y:00 P:E5 SP:F
DBCD  B4 33     LDY $33,X @ 33 = AA             A:66 X:00 Y:00 P:67 SP:F
DBCF  10 12     BPL $DBE3                       A:66 X:00 Y:AA P:E5 SP:F
DBD1  F0 10     BEQ $DBE3                       A:66 X:00 Y:AA P:E5 SP:F
DBD3  50 0E     BVC $DBE3                       A:66 X:00 Y:AA P:E5 SP:F
DBD5  90 0C     BCC $DBE3                       A:66 X:00 Y:AA P:E5 SP:F
DBD7  C9 66     CMP #$66                        A:66 X:00 Y:AA P:E5 SP:F
DBD9  D0 08     BNE $DBE3                       A:66 X:00 Y:AA P:67 SP:F
DBDB  E0 00     CPX #$00                        A:66 X:00 Y:AA P:67 SP:F
DBDD  D0 04     BNE $DBE3                       A:66 X:00 Y:AA P:67 SP:F
DBDF  C0 AA     CPY #$AA                        A:66 X:00 Y:AA P:67 SP:F
DBE1  F0 04     BEQ $DBE7                       A:66 X:00 Y:AA P:67 SP:F
DBE7  A2 8A     LDX #$8A                        A:66 X:00 Y:AA P:67 SP:F
DBE9  A9 66     LDA #$66                        A:66 X:8A Y:AA P:E5 SP:F
DBEB  B8        CLV                             A:66 X:8A Y:AA P:65 SP:F
DBEC  18        CLC                             A:66 X:8A Y:AA P:25 SP:F
DBED  A0 00     LDY #$00                        A:66 X:8A Y:AA P:24 SP:F
DBEF  B4 FF     LDY $FF,X @ 89 = BB             A:66 X:8A Y:00 P:26 SP:F
DBF1  10 12     BPL $DC05                       A:66 X:8A Y:BB P:A4 SP:F
DBF3  F0 10     BEQ $DC05                       A:66 X:8A Y:BB P:A4 SP:F
DBF5  70 0E     BVS $DC05                       A:66 X:8A Y:BB P:A4 SP:F
DBF7  B0 0C     BCS $DC05                       A:66 X:8A Y:BB P:A4 SP:F
DBF9  C0 BB     CPY #$BB                        A:66 X:8A Y:BB P:A4 SP:F
DBFB  D0 08     BNE $DC05                       A:66 X:8A Y:BB P:27 SP:F
DBFD  C9 66     CMP #$66                        A:66 X:8A Y:BB P:27 SP:F
DBFF  D0 04     BNE $DC05                       A:66 X:8A Y:BB P:27 SP:F
DC01  E0 8A     CPX #$8A                        A:66 X:8A Y:BB P:27 SP:F
DC03  F0 04     BEQ $DC09                       A:66 X:8A Y:BB P:27 SP:F
DC09  24 01     BIT $01 = FF                    A:66 X:8A Y:BB P:27 SP:F
DC0B  38        SEC                             A:66 X:8A Y:BB P:E5 SP:F
DC0C  A0 44     LDY #$44                        A:66 X:8A Y:BB P:E5 SP:F
DC0E  A2 00     LDX #$00                        A:66 X:8A Y:44 P:65 SP:F
DC10  94 33     STY $33,X @ 33 = AA             A:66 X:00 Y:44 P:67 SP:F
DC12  A5 33     LDA $33 = 44                    A:66 X:00 Y:44 P:67 SP:F
DC14  90 18     BCC $DC2E                       A:44 X:00 Y:44 P:65 SP:F
DC16  C9 44     CMP #$44                        A:44 X:00 Y:44 P:65 SP:F
DC18  D0 14     BNE $DC2E                       A:44 X:00 Y:44 P:67 SP:F
DC1A  50 12     BVC $DC2E                       A:44 X:00 Y:44 P:67 SP:F
DC1C  18        CLC                             A:44 X:00 Y:44 P:67 SP:F
DC1D  B8        CLV                             A:44 X:00 Y:44 P:66 SP:F
DC1E  A0 99     LDY #$99                        A:44 X:00 Y:44 P:26 SP:F
DC20  A2 80     LDX #$80                        A:44 X:00 Y:99 P:A4 SP:F
DC22  94 85     STY $85,X @ 05 = 00             A:44 X:80 Y:99 P:A4 SP:F
DC24  A5 05     LDA $05 = 99                    A:44 X:80 Y:99 P:A4 SP:F
DC26  B0 06     BCS $DC2E                       A:99 X:80 Y:99 P:A4 SP:F
DC28  C9 99     CMP #$99                        A:99 X:80 Y:99 P:A4 SP:F
DC2A  D0 02     BNE $DC2E                       A:99 X:80 Y:99 P:27 SP:F
DC2C  50 04     BVC $DC32                       A:99 X:80 Y:99 P:27 SP:F
DC32  A0 0B     LDY #$0B                        A:99 X:80 Y:99 P:27 SP:F
DC34  A9 AA     LDA #$AA                        A:99 X:80 Y:0B P:25 SP:F
DC36  A2 78     LDX #$78                        A:AA X:80 Y:0B P:A5 SP:F
DC38  85 78     STA $78 = 00                    A:AA X:78 Y:0B P:25 SP:F
DC3A  20 B6 F7  JSR $F7B6                       A:AA X:78 Y:0B P:25 SP:F
F7B6  18        CLC                             A:AA X:78 Y:0B P:25 SP:F
F7B7  A9 FF     LDA #$FF                        A:AA X:78 Y:0B P:24 SP:F
F7B9  85 01     STA $01 = FF                    A:FF X:78 Y:0B P:A4 SP:F
F7BB  24 01     BIT $01 = FF                    A:FF X:78 Y:0B P:A4 SP:F
F7BD  A9 55     LDA #$55                        A:FF X:78 Y:0B P:E4 SP:F
F7BF  60        RTS                             A:55 X:78 Y:0B P:64 SP:F
DC3D  15 00     ORA $00,X @ 78 = AA             A:55 X:78 Y:0B P:64 SP:F
DC3F  20 C0 F7  JSR $F7C0                       A:FF X:78 Y:0B P:E4 SP:F
F7C0  B0 09     BCS $F7CB                       A:FF X:78 Y:0B P:E4 SP:F
F7C2  10 07     BPL $F7CB                       A:FF X:78 Y:0B P:E4 SP:F
F7C4  C9 FF     CMP #$FF                        A:FF X:78 Y:0B P:E4 SP:F
F7C6  D0 03     BNE $F7CB                       A:FF X:78 Y:0B P:67 SP:F
F7C8  50 01     BVC $F7CB                       A:FF X:78 Y:0B P:67 SP:F
F7CA  60        RTS                             A:FF X:78 Y:0B P:67 SP:F
DC42  C8        INY                             A:FF X:78 Y:0B P:67 SP:F
DC43  A9 00     LDA #$00                        A:FF X:78 Y:0C P:65 SP:F
DC45  85 78     STA $78 = AA                    A:00 X:78 Y:0C P:67 SP:F
DC47  20 CE F7  JSR $F7CE                       A:00 X:78 Y:0C P:67 SP:F
F7CE  38        SEC                             A:00 X:78 Y:0C P:67 SP:F
F7CF  B8        CLV                             A:00 X:78 Y:0C P:67 SP:F
F7D0  A9 00     LDA #$00                        A:00 X:78 Y:0C P:27 SP:F
F7D2  60        RTS                             A:00 X:78 Y:0C P:27 SP:F
DC4A  15 00     ORA $00,X @ 78 = 00             A:00 X:78 Y:0C P:27 SP:F
DC4C  20 D3 F7  JSR $F7D3                       A:00 X:78 Y:0C P:27 SP:F
F7D3  D0 07     BNE $F7DC                       A:00 X:78 Y:0C P:27 SP:F
F7D5  70 05     BVS $F7DC                       A:00 X:78 Y:0C P:27 SP:F
F7D7  90 03     BCC $F7DC                       A:00 X:78 Y:0C P:27 SP:F
F7D9  30 01     BMI $F7DC                       A:00 X:78 Y:0C P:27 SP:F
F7DB  60        RTS                             A:00 X:78 Y:0C P:27 SP:F
DC4F  C8        INY                             A:00 X:78 Y:0C P:27 SP:F
DC50  A9 AA     LDA #$AA                        A:00 X:78 Y:0D P:25 SP:F
DC52  85 78     STA $78 = 00                    A:AA X:78 Y:0D P:A5 SP:F
DC54  20 DF F7  JSR $F7DF                       A:AA X:78 Y:0D P:A5 SP:F
F7DF  18        CLC                             A:AA X:78 Y:0D P:A5 SP:F
F7E0  24 01     BIT $01 = FF                    A:AA X:78 Y:0D P:A4 SP:F
F7E2  A9 55     LDA #$55                        A:AA X:78 Y:0D P:E4 SP:F
F7E4  60        RTS                             A:55 X:78 Y:0D P:64 SP:F
DC57  35 00     AND $00,X @ 78 = AA             A:55 X:78 Y:0D P:64 SP:F
DC59  20 E5 F7  JSR $F7E5                       A:00 X:78 Y:0D P:66 SP:F
F7E5  D0 07     BNE $F7EE                       A:00 X:78 Y:0D P:66 SP:F
F7E7  50 05     BVC $F7EE                       A:00 X:78 Y:0D P:66 SP:F
F7E9  B0 03     BCS $F7EE                       A:00 X:78 Y:0D P:66 SP:F
F7EB  30 01     BMI $F7EE                       A:00 X:78 Y:0D P:66 SP:F
F7ED  60        RTS                             A:00 X:78 Y:0D P:66 SP:F
DC5C  C8        INY                             A:00 X:78 Y:0D P:66 SP:F
DC5D  A9 EF     LDA #$EF                        A:00 X:78 Y:0E P:64 SP:F
DC5F  85 78     STA $78 = AA                    A:EF X:78 Y:0E P:E4 SP:F
DC61  20 F1 F7  JSR $F7F1                       A:EF X:78 Y:0E P:E4 SP:F
F7F1  38        SEC                             A:EF X:78 Y:0E P:E4 SP:F
F7F2  B8        CLV                             A:EF X:78 Y:0E P:E5 SP:F
F7F3  A9 F8     LDA #$F8                        A:EF X:78 Y:0E P:A5 SP:F
F7F5  60        RTS                             A:F8 X:78 Y:0E P:A5 SP:F
DC64  35 00     AND $00,X @ 78 = EF             A:F8 X:78 Y:0E P:A5 SP:F
DC66  20 F6 F7  JSR $F7F6                       A:E8 X:78 Y:0E P:A5 SP:F
F7F6  90 09     BCC $F801                       A:E8 X:78 Y:0E P:A5 SP:F
F7F8  10 07     BPL $F801                       A:E8 X:78 Y:0E P:A5 SP:F
F7FA  C9 E8     CMP #$E8                        A:E8 X:78 Y:0E P:A5 SP:F
F7FC  D0 03     BNE $F801                       A:E8 X:78 Y:0E P:27 SP:F
F7FE  70 01     BVS $F801                       A:E8 X:78 Y:0E P:27 SP:F
F800  60        RTS                             A:E8 X:78 Y:0E P:27 SP:F
DC69  C8        INY                             A:E8 X:78 Y:0E P:27 SP:F
DC6A  A9 AA     LDA #$AA                        A:E8 X:78 Y:0F P:25 SP:F
DC6C  85 78     STA $78 = EF                    A:AA X:78 Y:0F P:A5 SP:F
DC6E  20 04 F8  JSR $F804                       A:AA X:78 Y:0F P:A5 SP:F
F804  18        CLC                             A:AA X:78 Y:0F P:A5 SP:F
F805  24 01     BIT $01 = FF                    A:AA X:78 Y:0F P:A4 SP:F
F807  A9 5F     LDA #$5F                        A:AA X:78 Y:0F P:E4 SP:F
F809  60        RTS                             A:5F X:78 Y:0F P:64 SP:F
DC71  55 00     EOR $00,X @ 78 = AA             A:5F X:78 Y:0F P:64 SP:F
DC73  20 0A F8  JSR $F80A                       A:F5 X:78 Y:0F P:E4 SP:F
F80A  B0 09     BCS $F815                       A:F5 X:78 Y:0F P:E4 SP:F
F80C  10 07     BPL $F815                       A:F5 X:78 Y:0F P:E4 SP:F
F80E  C9 F5     CMP #$F5                        A:F5 X:78 Y:0F P:E4 SP:F
F810  D0 03     BNE $F815                       A:F5 X:78 Y:0F P:67 SP:F
F812  50 01     BVC $F815                       A:F5 X:78 Y:0F P:67 SP:F
F814  60        RTS                             A:F5 X:78 Y:0F P:67 SP:F
DC76  C8        INY                             A:F5 X:78 Y:0F P:67 SP:F
DC77  A9 70     LDA #$70                        A:F5 X:78 Y:10 P:65 SP:F
DC79  85 78     STA $78 = AA                    A:70 X:78 Y:10 P:65 SP:F
DC7B  20 18 F8  JSR $F818                       A:70 X:78 Y:10 P:65 SP:F
F818  38        SEC                             A:70 X:78 Y:10 P:65 SP:F
F819  B8        CLV                             A:70 X:78 Y:10 P:65 SP:F
F81A  A9 70     LDA #$70                        A:70 X:78 Y:10 P:25 SP:F
F81C  60        RTS                             A:70 X:78 Y:10 P:25 SP:F
DC7E  55 00     EOR $00,X @ 78 = 70             A:70 X:78 Y:10 P:25 SP:F
DC80  20 1D F8  JSR $F81D                       A:00 X:78 Y:10 P:27 SP:F
F81D  D0 07     BNE $F826                       A:00 X:78 Y:10 P:27 SP:F
F81F  70 05     BVS $F826                       A:00 X:78 Y:10 P:27 SP:F
F821  90 03     BCC $F826                       A:00 X:78 Y:10 P:27 SP:F
F823  30 01     BMI $F826                       A:00 X:78 Y:10 P:27 SP:F
F825  60        RTS                             A:00 X:78 Y:10 P:27 SP:F
DC83  C8        INY                             A:00 X:78 Y:10 P:27 SP:F
DC84  A9 69     LDA #$69                        A:00 X:78 Y:11 P:25 SP:F
DC86  85 78     STA $78 = 70                    A:69 X:78 Y:11 P:25 SP:F
DC88  20 29 F8  JSR $F829                       A:69 X:78 Y:11 P:25 SP:F
F829  18        CLC                             A:69 X:78 Y:11 P:25 SP:F
F82A  24 01     BIT $01 = FF                    A:69 X:78 Y:11 P:24 SP:F
F82C  A9 00     LDA #$00                        A:69 X:78 Y:11 P:E4 SP:F
F82E  60        RTS                             A:00 X:78 Y:11 P:66 SP:F
DC8B  75 00     ADC $00,X @ 78 = 69             A:00 X:78 Y:11 P:66 SP:F
DC8D  20 2F F8  JSR $F82F                       A:69 X:78 Y:11 P:24 SP:F
F82F  30 09     BMI $F83A                       A:69 X:78 Y:11 P:24 SP:F
F831  B0 07     BCS $F83A                       A:69 X:78 Y:11 P:24 SP:F
F833  C9 69     CMP #$69                        A:69 X:78 Y:11 P:24 SP:F
F835  D0 03     BNE $F83A                       A:69 X:78 Y:11 P:27 SP:F
F837  70 01     BVS $F83A                       A:69 X:78 Y:11 P:27 SP:F
F839  60        RTS                             A:69 X:78 Y:11 P:27 SP:F
DC90  C8        INY                             A:69 X:78 Y:11 P:27 SP:F
DC91  20 3D F8  JSR $F83D                       A:69 X:78 Y:12 P:25 SP:F
F83D  38        SEC                             A:69 X:78 Y:12 P:25 SP:F
F83E  24 01     BIT $01 = FF                    A:69 X:78 Y:12 P:25 SP:F
F840  A9 00     LDA #$00                        A:69 X:78 Y:12 P:E5 SP:F
F842  60        RTS                             A:00 X:78 Y:12 P:67 SP:F
DC94  75 00     ADC $00,X @ 78 = 69             A:00 X:78 Y:12 P:67 SP:F
DC96  20 43 F8  JSR $F843                       A:6A X:78 Y:12 P:24 SP:F
F843  30 09     BMI $F84E                       A:6A X:78 Y:12 P:24 SP:F
F845  B0 07     BCS $F84E                       A:6A X:78 Y:12 P:24 SP:F
F847  C9 6A     CMP #$6A                        A:6A X:78 Y:12 P:24 SP:F
F849  D0 03     BNE $F84E                       A:6A X:78 Y:12 P:27 SP:F
F84B  70 01     BVS $F84E                       A:6A X:78 Y:12 P:27 SP:F
F84D  60        RTS                             A:6A X:78 Y:12 P:27 SP:F
DC99  C8        INY                             A:6A X:78 Y:12 P:27 SP:F
DC9A  A9 7F     LDA #$7F                        A:6A X:78 Y:13 P:25 SP:F
DC9C  85 78     STA $78 = 69                    A:7F X:78 Y:13 P:25 SP:F
DC9E  20 51 F8  JSR $F851                       A:7F X:78 Y:13 P:25 SP:F
F851  38        SEC                             A:7F X:78 Y:13 P:25 SP:F
F852  B8        CLV                             A:7F X:78 Y:13 P:25 SP:F
F853  A9 7F     LDA #$7F                        A:7F X:78 Y:13 P:25 SP:F
F855  60        RTS                             A:7F X:78 Y:13 P:25 SP:F
DCA1  75 00     ADC $00,X @ 78 = 7F             A:7F X:78 Y:13 P:25 SP:F
DCA3  20 56 F8  JSR $F856                       A:FF X:78 Y:13 P:E4 SP:F
F856  10 09     BPL $F861                       A:FF X:78 Y:13 P:E4 SP:F
F858  B0 07     BCS $F861                       A:FF X:78 Y:13 P:E4 SP:F
F85A  C9 FF     CMP #$FF                        A:FF X:78 Y:13 P:E4 SP:F
F85C  D0 03     BNE $F861                       A:FF X:78 Y:13 P:67 SP:F
F85E  50 01     BVC $F861                       A:FF X:78 Y:13 P:67 SP:F
F860  60        RTS                             A:FF X:78 Y:13 P:67 SP:F
DCA6  C8        INY                             A:FF X:78 Y:13 P:67 SP:F
DCA7  A9 80     LDA #$80                        A:FF X:78 Y:14 P:65 SP:F
DCA9  85 78     STA $78 = 7F                    A:80 X:78 Y:14 P:E5 SP:F
DCAB  20 64 F8  JSR $F864                       A:80 X:78 Y:14 P:E5 SP:F
F864  18        CLC                             A:80 X:78 Y:14 P:E5 SP:F
F865  24 01     BIT $01 = FF                    A:80 X:78 Y:14 P:E4 SP:F
F867  A9 7F     LDA #$7F                        A:80 X:78 Y:14 P:E4 SP:F
F869  60        RTS                             A:7F X:78 Y:14 P:64 SP:F
DCAE  75 00     ADC $00,X @ 78 = 80             A:7F X:78 Y:14 P:64 SP:F
DCB0  20 6A F8  JSR $F86A                       A:FF X:78 Y:14 P:A4 SP:F
F86A  10 09     BPL $F875                       A:FF X:78 Y:14 P:A4 SP:F
F86C  B0 07     BCS $F875                       A:FF X:78 Y:14 P:A4 SP:F
F86E  C9 FF     CMP #$FF                        A:FF X:78 Y:14 P:A4 SP:F
F870  D0 03     BNE $F875                       A:FF X:78 Y:14 P:27 SP:F
F872  70 01     BVS $F875                       A:FF X:78 Y:14 P:27 SP:F
F874  60        RTS                             A:FF X:78 Y:14 P:27 SP:F
DCB3  C8        INY                             A:FF X:78 Y:14 P:27 SP:F
DCB4  20 78 F8  JSR $F878                       A:FF X:78 Y:15 P:25 SP:F
F878  38        SEC                             A:FF X:78 Y:15 P:25 SP:F
F879  B8        CLV                             A:FF X:78 Y:15 P:25 SP:F
F87A  A9 7F     LDA #$7F                        A:FF X:78 Y:15 P:25 SP:F
F87C  60        RTS                             A:7F X:78 Y:15 P:25 SP:F
DCB7  75 00     ADC $00,X @ 78 = 80             A:7F X:78 Y:15 P:25 SP:F
DCB9  20 7D F8  JSR $F87D                       A:00 X:78 Y:15 P:27 SP:F
F87D  D0 07     BNE $F886                       A:00 X:78 Y:15 P:27 SP:F
F87F  30 05     BMI $F886                       A:00 X:78 Y:15 P:27 SP:F
F881  70 03     BVS $F886                       A:00 X:78 Y:15 P:27 SP:F
F883  90 01     BCC $F886                       A:00 X:78 Y:15 P:27 SP:F
F885  60        RTS                             A:00 X:78 Y:15 P:27 SP:F
DCBC  C8        INY                             A:00 X:78 Y:15 P:27 SP:F
DCBD  A9 40     LDA #$40                        A:00 X:78 Y:16 P:25 SP:F
DCBF  85 78     STA $78 = 80                    A:40 X:78 Y:16 P:25 SP:F
DCC1  20 89 F8  JSR $F889                       A:40 X:78 Y:16 P:25 SP:F
F889  24 01     BIT $01 = FF                    A:40 X:78 Y:16 P:25 SP:F
F88B  A9 40     LDA #$40                        A:40 X:78 Y:16 P:E5 SP:F
F88D  60        RTS                             A:40 X:78 Y:16 P:65 SP:F
DCC4  D5 00     CMP $00,X @ 78 = 40             A:40 X:78 Y:16 P:65 SP:F
DCC6  20 8E F8  JSR $F88E                       A:40 X:78 Y:16 P:67 SP:F
F88E  30 07     BMI $F897                       A:40 X:78 Y:16 P:67 SP:F
F890  90 05     BCC $F897                       A:40 X:78 Y:16 P:67 SP:F
F892  D0 03     BNE $F897                       A:40 X:78 Y:16 P:67 SP:F
F894  50 01     BVC $F897                       A:40 X:78 Y:16 P:67 SP:F
F896  60        RTS                             A:40 X:78 Y:16 P:67 SP:F
DCC9  C8        INY                             A:40 X:78 Y:16 P:67 SP:F
DCCA  48        PHA                             A:40 X:78 Y:17 P:65 SP:F
DCCB  A9 3F     LDA #$3F                        A:40 X:78 Y:17 P:65 SP:F
DCCD  85 78     STA $78 = 40                    A:3F X:78 Y:17 P:65 SP:F
DCCF  68        PLA                             A:3F X:78 Y:17 P:65 SP:F
DCD0  20 9A F8  JSR $F89A                       A:40 X:78 Y:17 P:65 SP:F
F89A  B8        CLV                             A:40 X:78 Y:17 P:65 SP:F
F89B  60        RTS                             A:40 X:78 Y:17 P:25 SP:F
DCD3  D5 00     CMP $00,X @ 78 = 3F             A:40 X:78 Y:17 P:25 SP:F
DCD5  20 9C F8  JSR $F89C                       A:40 X:78 Y:17 P:25 SP:F
F89C  F0 07     BEQ $F8A5                       A:40 X:78 Y:17 P:25 SP:F
F89E  30 05     BMI $F8A5                       A:40 X:78 Y:17 P:25 SP:F
F8A0  90 03     BCC $F8A5                       A:40 X:78 Y:17 P:25 SP:F
F8A2  70 01     BVS $F8A5                       A:40 X:78 Y:17 P:25 SP:F
F8A4  60        RTS                             A:40 X:78 Y:17 P:25 SP:F
DCD8  C8        INY                             A:40 X:78 Y:17 P:25 SP:F
DCD9  48        PHA                             A:40 X:78 Y:18 P:25 SP:F
DCDA  A9 41     LDA #$41                        A:40 X:78 Y:18 P:25 SP:F
DCDC  85 78     STA $78 = 3F                    A:41 X:78 Y:18 P:25 SP:F
DCDE  68        PLA                             A:41 X:78 Y:18 P:25 SP:F
DCDF  D5 00     CMP $00,X @ 78 = 41             A:40 X:78 Y:18 P:25 SP:F
DCE1  20 A8 F8  JSR $F8A8                       A:40 X:78 Y:18 P:A4 SP:F
F8A8  F0 05     BEQ $F8AF                       A:40 X:78 Y:18 P:A4 SP:F
F8AA  10 03     BPL $F8AF                       A:40 X:78 Y:18 P:A4 SP:F
F8AC  10 01     BPL $F8AF                       A:40 X:78 Y:18 P:A4 SP:F
F8AE  60        RTS                             A:40 X:78 Y:18 P:A4 SP:F
DCE4  C8        INY                             A:40 X:78 Y:18 P:A4 SP:F
DCE5  48        PHA                             A:40 X:78 Y:19 P:24 SP:F
DCE6  A9 00     LDA #$00                        A:40 X:78 Y:19 P:24 SP:F
DCE8  85 78     STA $78 = 41                    A:00 X:78 Y:19 P:26 SP:F
DCEA  68        PLA                             A:00 X:78 Y:19 P:26 SP:F
DCEB  20 B2 F8  JSR $F8B2                       A:40 X:78 Y:19 P:24 SP:F
F8B2  A9 80     LDA #$80                        A:40 X:78 Y:19 P:24 SP:F
F8B4  60        RTS                             A:80 X:78 Y:19 P:A4 SP:F
DCEE  D5 00     CMP $00,X @ 78 = 00             A:80 X:78 Y:19 P:A4 SP:F
DCF0  20 B5 F8  JSR $F8B5                       A:80 X:78 Y:19 P:A5 SP:F
F8B5  F0 05     BEQ $F8BC                       A:80 X:78 Y:19 P:A5 SP:F
F8B7  10 03     BPL $F8BC                       A:80 X:78 Y:19 P:A5 SP:F
F8B9  90 01     BCC $F8BC                       A:80 X:78 Y:19 P:A5 SP:F
F8BB  60        RTS                             A:80 X:78 Y:19 P:A5 SP:F
DCF3  C8        INY                             A:80 X:78 Y:19 P:A5 SP:F
DCF4  48        PHA                             A:80 X:78 Y:1A P:25 SP:F
DCF5  A9 80     LDA #$80                        A:80 X:78 Y:1A P:25 SP:F
DCF7  85 78     STA $78 = 00                    A:80 X:78 Y:1A P:A5 SP:F
DCF9  68        PLA                             A:80 X:78 Y:1A P:A5 SP:F
DCFA  D5 00     CMP $00,X @ 78 = 80             A:80 X:78 Y:1A P:A5 SP:F
DCFC  20 BF F8  JSR $F8BF                       A:80 X:78 Y:1A P:27 SP:F
F8BF  D0 05     BNE $F8C6                       A:80 X:78 Y:1A P:27 SP:F
F8C1  30 03     BMI $F8C6                       A:80 X:78 Y:1A P:27 SP:F
F8C3  90 01     BCC $F8C6                       A:80 X:78 Y:1A P:27 SP:F
F8C5  60        RTS                             A:80 X:78 Y:1A P:27 SP:F
DCFF  C8        INY                             A:80 X:78 Y:1A P:27 SP:F
DD00  48        PHA                             A:80 X:78 Y:1B P:25 SP:F
DD01  A9 81     LDA #$81                        A:80 X:78 Y:1B P:25 SP:F
DD03  85 78     STA $78 = 80                    A:81 X:78 Y:1B P:A5 SP:F
DD05  68        PLA                             A:81 X:78 Y:1B P:A5 SP:F
DD06  D5 00     CMP $00,X @ 78 = 81             A:80 X:78 Y:1B P:A5 SP:F
DD08  20 C9 F8  JSR $F8C9                       A:80 X:78 Y:1B P:A4 SP:F
F8C9  B0 05     BCS $F8D0                       A:80 X:78 Y:1B P:A4 SP:F
F8CB  F0 03     BEQ $F8D0                       A:80 X:78 Y:1B P:A4 SP:F
F8CD  10 01     BPL $F8D0                       A:80 X:78 Y:1B P:A4 SP:F
F8CF  60        RTS                             A:80 X:78 Y:1B P:A4 SP:F
DD0B  C8        INY                             A:80 X:78 Y:1B P:A4 SP:F
DD0C  48        PHA                             A:80 X:78 Y:1C P:24 SP:F
DD0D  A9 7F     LDA #$7F                        A:80 X:78 Y:1C P:24 SP:F
DD0F  85 78     STA $78 = 81                    A:7F X:78 Y:1C P:24 SP:F
DD11  68        PLA                             A:7F X:78 Y:1C P:24 SP:F
DD12  D5 00     CMP $00,X @ 78 = 7F             A:80 X:78 Y:1C P:A4 SP:F
DD14  20 D3 F8  JSR $F8D3                       A:80 X:78 Y:1C P:25 SP:F
F8D3  90 05     BCC $F8DA                       A:80 X:78 Y:1C P:25 SP:F
F8D5  F0 03     BEQ $F8DA                       A:80 X:78 Y:1C P:25 SP:F
F8D7  30 01     BMI $F8DA                       A:80 X:78 Y:1C P:25 SP:F
F8D9  60        RTS                             A:80 X:78 Y:1C P:25 SP:F
DD17  C8        INY                             A:80 X:78 Y:1C P:25 SP:F
DD18  A9 40     LDA #$40                        A:80 X:78 Y:1D P:25 SP:F
DD1A  85 78     STA $78 = 7F                    A:40 X:78 Y:1D P:25 SP:F
DD1C  20 31 F9  JSR $F931                       A:40 X:78 Y:1D P:25 SP:F
F931  24 01     BIT $01 = FF                    A:40 X:78 Y:1D P:25 SP:F
F933  A9 40     LDA #$40                        A:40 X:78 Y:1D P:E5 SP:F
F935  38        SEC                             A:40 X:78 Y:1D P:65 SP:F
F936  60        RTS                             A:40 X:78 Y:1D P:65 SP:F
DD1F  F5 00     SBC $00,X @ 78 = 40             A:40 X:78 Y:1D P:65 SP:F
DD21  20 37 F9  JSR $F937                       A:00 X:78 Y:1D P:27 SP:F
F937  30 0B     BMI $F944                       A:00 X:78 Y:1D P:27 SP:F
F939  90 09     BCC $F944                       A:00 X:78 Y:1D P:27 SP:F
F93B  D0 07     BNE $F944                       A:00 X:78 Y:1D P:27 SP:F
F93D  70 05     BVS $F944                       A:00 X:78 Y:1D P:27 SP:F
F93F  C9 00     CMP #$00                        A:00 X:78 Y:1D P:27 SP:F
F941  D0 01     BNE $F944                       A:00 X:78 Y:1D P:27 SP:F
F943  60        RTS                             A:00 X:78 Y:1D P:27 SP:F
DD24  C8        INY                             A:00 X:78 Y:1D P:27 SP:F
DD25  A9 3F     LDA #$3F                        A:00 X:78 Y:1E P:25 SP:F
DD27  85 78     STA $78 = 40                    A:3F X:78 Y:1E P:25 SP:F
DD29  20 47 F9  JSR $F947                       A:3F X:78 Y:1E P:25 SP:F
F947  B8        CLV                             A:3F X:78 Y:1E P:25 SP:F
F948  38        SEC                             A:3F X:78 Y:1E P:25 SP:F
F949  A9 40     LDA #$40                        A:3F X:78 Y:1E P:25 SP:F
F94B  60        RTS                             A:40 X:78 Y:1E P:25 SP:F
DD2C  F5 00     SBC $00,X @ 78 = 3F             A:40 X:78 Y:1E P:25 SP:F
DD2E  20 4C F9  JSR $F94C                       A:01 X:78 Y:1E P:25 SP:F
F94C  F0 0B     BEQ $F959                       A:01 X:78 Y:1E P:25 SP:F
F94E  30 09     BMI $F959                       A:01 X:78 Y:1E P:25 SP:F
F950  90 07     BCC $F959                       A:01 X:78 Y:1E P:25 SP:F
F952  70 05     BVS $F959                       A:01 X:78 Y:1E P:25 SP:F
F954  C9 01     CMP #$01                        A:01 X:78 Y:1E P:25 SP:F
F956  D0 01     BNE $F959                       A:01 X:78 Y:1E P:27 SP:F
F958  60        RTS                             A:01 X:78 Y:1E P:27 SP:F
DD31  C8        INY                             A:01 X:78 Y:1E P:27 SP:F
DD32  A9 41     LDA #$41                        A:01 X:78 Y:1F P:25 SP:F
DD34  85 78     STA $78 = 3F                    A:41 X:78 Y:1F P:25 SP:F
DD36  20 5C F9  JSR $F95C                       A:41 X:78 Y:1F P:25 SP:F
F95C  A9 40     LDA #$40                        A:41 X:78 Y:1F P:25 SP:F
F95E  38        SEC                             A:40 X:78 Y:1F P:25 SP:F
F95F  24 01     BIT $01 = FF                    A:40 X:78 Y:1F P:25 SP:F
F961  60        RTS                             A:40 X:78 Y:1F P:E5 SP:F
DD39  F5 00     SBC $00,X @ 78 = 41             A:40 X:78 Y:1F P:E5 SP:F
DD3B  20 62 F9  JSR $F962                       A:FF X:78 Y:1F P:A4 SP:F
F962  B0 0B     BCS $F96F                       A:FF X:78 Y:1F P:A4 SP:F
F964  F0 09     BEQ $F96F                       A:FF X:78 Y:1F P:A4 SP:F
F966  10 07     BPL $F96F                       A:FF X:78 Y:1F P:A4 SP:F
F968  70 05     BVS $F96F                       A:FF X:78 Y:1F P:A4 SP:F
F96A  C9 FF     CMP #$FF                        A:FF X:78 Y:1F P:A4 SP:F
F96C  D0 01     BNE $F96F                       A:FF X:78 Y:1F P:27 SP:F
F96E  60        RTS                             A:FF X:78 Y:1F P:27 SP:F
DD3E  C8        INY                             A:FF X:78 Y:1F P:27 SP:F
DD3F  A9 00     LDA #$00                        A:FF X:78 Y:20 P:25 SP:F
DD41  85 78     STA $78 = 41                    A:00 X:78 Y:20 P:27 SP:F
DD43  20 72 F9  JSR $F972                       A:00 X:78 Y:20 P:27 SP:F
F972  18        CLC                             A:00 X:78 Y:20 P:27 SP:F
F973  A9 80     LDA #$80                        A:00 X:78 Y:20 P:26 SP:F
F975  60        RTS                             A:80 X:78 Y:20 P:A4 SP:F
DD46  F5 00     SBC $00,X @ 78 = 00             A:80 X:78 Y:20 P:A4 SP:F
DD48  20 76 F9  JSR $F976                       A:7F X:78 Y:20 P:65 SP:F
F976  90 05     BCC $F97D                       A:7F X:78 Y:20 P:65 SP:F
F978  C9 7F     CMP #$7F                        A:7F X:78 Y:20 P:65 SP:F
F97A  D0 01     BNE $F97D                       A:7F X:78 Y:20 P:67 SP:F
F97C  60        RTS                             A:7F X:78 Y:20 P:67 SP:F
DD4B  C8        INY                             A:7F X:78 Y:20 P:67 SP:F
DD4C  A9 7F     LDA #$7F                        A:7F X:78 Y:21 P:65 SP:F
DD4E  85 78     STA $78 = 00                    A:7F X:78 Y:21 P:65 SP:F
DD50  20 80 F9  JSR $F980                       A:7F X:78 Y:21 P:65 SP:F
F980  38        SEC                             A:7F X:78 Y:21 P:65 SP:F
F981  A9 81     LDA #$81                        A:7F X:78 Y:21 P:65 SP:F
F983  60        RTS                             A:81 X:78 Y:21 P:E5 SP:F
DD53  F5 00     SBC $00,X @ 78 = 7F             A:81 X:78 Y:21 P:E5 SP:F
DD55  20 84 F9  JSR $F984                       A:02 X:78 Y:21 P:65 SP:F
F984  50 07     BVC $F98D                       A:02 X:78 Y:21 P:65 SP:F
F986  90 05     BCC $F98D                       A:02 X:78 Y:21 P:65 SP:F
F988  C9 02     CMP #$02                        A:02 X:78 Y:21 P:65 SP:F
F98A  D0 01     BNE $F98D                       A:02 X:78 Y:21 P:67 SP:F
F98C  60        RTS                             A:02 X:78 Y:21 P:67 SP:F
DD58  A9 AA     LDA #$AA                        A:02 X:78 Y:21 P:67 SP:F
DD5A  85 33     STA $33 = 44                    A:AA X:78 Y:21 P:E5 SP:F
DD5C  A9 BB     LDA #$BB                        A:AA X:78 Y:21 P:E5 SP:F
DD5E  85 89     STA $89 = BB                    A:BB X:78 Y:21 P:E5 SP:F
DD60  A2 00     LDX #$00                        A:BB X:78 Y:21 P:E5 SP:F
DD62  A0 66     LDY #$66                        A:BB X:00 Y:21 P:67 SP:F
DD64  24 01     BIT $01 = FF                    A:BB X:00 Y:66 P:65 SP:F
DD66  38        SEC                             A:BB X:00 Y:66 P:E5 SP:F
DD67  A9 00     LDA #$00                        A:BB X:00 Y:66 P:E5 SP:F
DD69  B5 33     LDA $33,X @ 33 = AA             A:00 X:00 Y:66 P:67 SP:F
DD6B  10 12     BPL $DD7F                       A:AA X:00 Y:66 P:E5 SP:F
DD6D  F0 10     BEQ $DD7F                       A:AA X:00 Y:66 P:E5 SP:F
DD6F  50 0E     BVC $DD7F                       A:AA X:00 Y:66 P:E5 SP:F
DD71  90 0C     BCC $DD7F                       A:AA X:00 Y:66 P:E5 SP:F
DD73  C0 66     CPY #$66                        A:AA X:00 Y:66 P:E5 SP:F
DD75  D0 08     BNE $DD7F                       A:AA X:00 Y:66 P:67 SP:F
DD77  E0 00     CPX #$00                        A:AA X:00 Y:66 P:67 SP:F
DD79  D0 04     BNE $DD7F                       A:AA X:00 Y:66 P:67 SP:F
DD7B  C9 AA     CMP #$AA                        A:AA X:00 Y:66 P:67 SP:F
DD7D  F0 04     BEQ $DD83                       A:AA X:00 Y:66 P:67 SP:F
DD83  A2 8A     LDX #$8A                        A:AA X:00 Y:66 P:67 SP:F
DD85  A0 66     LDY #$66                        A:AA X:8A Y:66 P:E5 SP:F
DD87  B8        CLV                             A:AA X:8A Y:66 P:65 SP:F
DD88  18        CLC                             A:AA X:8A Y:66 P:25 SP:F
DD89  A9 00     LDA #$00                        A:AA X:8A Y:66 P:24 SP:F
DD8B  B5 FF     LDA $FF,X @ 89 = BB             A:00 X:8A Y:66 P:26 SP:F
DD8D  10 12     BPL $DDA1                       A:BB X:8A Y:66 P:A4 SP:F
DD8F  F0 10     BEQ $DDA1                       A:BB X:8A Y:66 P:A4 SP:F
DD91  70 0E     BVS $DDA1                       A:BB X:8A Y:66 P:A4 SP:F
DD93  B0 0C     BCS $DDA1                       A:BB X:8A Y:66 P:A4 SP:F
DD95  C9 BB     CMP #$BB                        A:BB X:8A Y:66 P:A4 SP:F
DD97  D0 08     BNE $DDA1                       A:BB X:8A Y:66 P:27 SP:F
DD99  C0 66     CPY #$66                        A:BB X:8A Y:66 P:27 SP:F
DD9B  D0 04     BNE $DDA1                       A:BB X:8A Y:66 P:27 SP:F
DD9D  E0 8A     CPX #$8A                        A:BB X:8A Y:66 P:27 SP:F
DD9F  F0 04     BEQ $DDA5                       A:BB X:8A Y:66 P:27 SP:F
DDA5  24 01     BIT $01 = FF                    A:BB X:8A Y:66 P:27 SP:F
DDA7  38        SEC                             A:BB X:8A Y:66 P:E5 SP:F
DDA8  A9 44     LDA #$44                        A:BB X:8A Y:66 P:E5 SP:F
DDAA  A2 00     LDX #$00                        A:44 X:8A Y:66 P:65 SP:F
DDAC  95 33     STA $33,X @ 33 = AA             A:44 X:00 Y:66 P:67 SP:F
DDAE  A5 33     LDA $33 = 44                    A:44 X:00 Y:66 P:67 SP:F
DDB0  90 18     BCC $DDCA                       A:44 X:00 Y:66 P:65 SP:F
DDB2  C9 44     CMP #$44                        A:44 X:00 Y:66 P:65 SP:F
DDB4  D0 14     BNE $DDCA                       A:44 X:00 Y:66 P:67 SP:F
DDB6  50 12     BVC $DDCA                       A:44 X:00 Y:66 P:67 SP:F
DDB8  18        CLC                             A:44 X:00 Y:66 P:67 SP:F
DDB9  B8        CLV                             A:44 X:00 Y:66 P:66 SP:F
DDBA  A9 99     LDA #$99                        A:44 X:00 Y:66 P:26 SP:F
DDBC  A2 80     LDX #$80                        A:99 X:00 Y:66 P:A4 SP:F
DDBE  95 85     STA $85,X @ 05 = 99             A:99 X:80 Y:66 P:A4 SP:F
DDC0  A5 05     LDA $05 = 99                    A:99 X:80 Y:66 P:A4 SP:F
DDC2  B0 06     BCS $DDCA                       A:99 X:80 Y:66 P:A4 SP:F
DDC4  C9 99     CMP #$99                        A:99 X:80 Y:66 P:A4 SP:F
DDC6  D0 02     BNE $DDCA                       A:99 X:80 Y:66 P:27 SP:F
DDC8  50 04     BVC $DDCE                       A:99 X:80 Y:66 P:27 SP:F
DDCE  A0 25     LDY #$25                        A:99 X:80 Y:66 P:27 SP:F
DDD0  A2 78     LDX #$78                        A:99 X:80 Y:25 P:25 SP:F
DDD2  20 90 F9  JSR $F990                       A:99 X:78 Y:25 P:25 SP:F
F990  A2 55     LDX #$55                        A:99 X:78 Y:25 P:25 SP:F
F992  A9 FF     LDA #$FF                        A:99 X:55 Y:25 P:25 SP:F
F994  85 01     STA $01 = FF                    A:FF X:55 Y:25 P:A5 SP:F
F996  EA        NOP                             A:FF X:55 Y:25 P:A5 SP:F
F997  24 01     BIT $01 = FF                    A:FF X:55 Y:25 P:A5 SP:F
F999  38        SEC                             A:FF X:55 Y:25 P:E5 SP:F
F99A  A9 01     LDA #$01                        A:FF X:55 Y:25 P:E5 SP:F
F99C  60        RTS                             A:01 X:55 Y:25 P:65 SP:F
DDD5  95 00     STA $00,X @ 55 = 00             A:01 X:55 Y:25 P:65 SP:F
DDD7  56 00     LSR $00,X @ 55 = 01             A:01 X:55 Y:25 P:65 SP:F
DDD9  B5 00     LDA $00,X @ 55 = 00             A:01 X:55 Y:25 P:67 SP:F
DDDB  20 9D F9  JSR $F99D                       A:00 X:55 Y:25 P:67 SP:F
F99D  90 1B     BCC $F9BA                       A:00 X:55 Y:25 P:67 SP:F
F99F  D0 19     BNE $F9BA                       A:00 X:55 Y:25 P:67 SP:F
F9A1  30 17     BMI $F9BA                       A:00 X:55 Y:25 P:67 SP:F
F9A3  50 15     BVC $F9BA                       A:00 X:55 Y:25 P:67 SP:F
F9A5  C9 00     CMP #$00                        A:00 X:55 Y:25 P:67 SP:F
F9A7  D0 11     BNE $F9BA                       A:00 X:55 Y:25 P:67 SP:F
F9A9  B8        CLV                             A:00 X:55 Y:25 P:67 SP:F
F9AA  A9 AA     LDA #$AA                        A:00 X:55 Y:25 P:27 SP:F
F9AC  60        RTS                             A:AA X:55 Y:25 P:A5 SP:F
DDDE  C8        INY                             A:AA X:55 Y:25 P:A5 SP:F
DDDF  95 00     STA $00,X @ 55 = 00             A:AA X:55 Y:26 P:25 SP:F
DDE1  56 00     LSR $00,X @ 55 = AA             A:AA X:55 Y:26 P:25 SP:F
DDE3  B5 00     LDA $00,X @ 55 = 55             A:AA X:55 Y:26 P:24 SP:F
DDE5  20 AD F9  JSR $F9AD                       A:55 X:55 Y:26 P:24 SP:F
F9AD  B0 0B     BCS $F9BA                       A:55 X:55 Y:26 P:24 SP:F
F9AF  F0 09     BEQ $F9BA                       A:55 X:55 Y:26 P:24 SP:F
F9B1  30 07     BMI $F9BA                       A:55 X:55 Y:26 P:24 SP:F
F9B3  70 05     BVS $F9BA                       A:55 X:55 Y:26 P:24 SP:F
F9B5  C9 55     CMP #$55                        A:55 X:55 Y:26 P:24 SP:F
F9B7  D0 01     BNE $F9BA                       A:55 X:55 Y:26 P:27 SP:F
F9B9  60        RTS                             A:55 X:55 Y:26 P:27 SP:F
DDE8  C8        INY                             A:55 X:55 Y:26 P:27 SP:F
DDE9  20 BD F9  JSR $F9BD                       A:55 X:55 Y:27 P:25 SP:F
F9BD  24 01     BIT $01 = FF                    A:55 X:55 Y:27 P:25 SP:F
F9BF  38        SEC                             A:55 X:55 Y:27 P:E5 SP:F
F9C0  A9 80     LDA #$80                        A:55 X:55 Y:27 P:E5 SP:F
F9C2  60        RTS                             A:80 X:55 Y:27 P:E5 SP:F
DDEC  95 00     STA $00,X @ 55 = 55             A:80 X:55 Y:27 P:E5 SP:F
DDEE  16 00     ASL $00,X @ 55 = 80             A:80 X:55 Y:27 P:E5 SP:F
DDF0  B5 00     LDA $00,X @ 55 = 00             A:80 X:55 Y:27 P:67 SP:F
DDF2  20 C3 F9  JSR $F9C3                       A:00 X:55 Y:27 P:67 SP:F
F9C3  90 1C     BCC $F9E1                       A:00 X:55 Y:27 P:67 SP:F
F9C5  D0 1A     BNE $F9E1                       A:00 X:55 Y:27 P:67 SP:F
F9C7  30 18     BMI $F9E1                       A:00 X:55 Y:27 P:67 SP:F
F9C9  50 16     BVC $F9E1                       A:00 X:55 Y:27 P:67 SP:F
F9CB  C9 00     CMP #$00                        A:00 X:55 Y:27 P:67 SP:F
F9CD  D0 12     BNE $F9E1                       A:00 X:55 Y:27 P:67 SP:F
F9CF  B8        CLV                             A:00 X:55 Y:27 P:67 SP:F
F9D0  A9 55     LDA #$55                        A:00 X:55 Y:27 P:27 SP:F
F9D2  38        SEC                             A:55 X:55 Y:27 P:25 SP:F
F9D3  60        RTS                             A:55 X:55 Y:27 P:25 SP:F
DDF5  C8        INY                             A:55 X:55 Y:27 P:25 SP:F
DDF6  95 00     STA $00,X @ 55 = 00             A:55 X:55 Y:28 P:25 SP:F
DDF8  16 00     ASL $00,X @ 55 = 55             A:55 X:55 Y:28 P:25 SP:F
DDFA  B5 00     LDA $00,X @ 55 = AA             A:55 X:55 Y:28 P:A4 SP:F
DDFC  20 D4 F9  JSR $F9D4                       A:AA X:55 Y:28 P:A4 SP:F
F9D4  B0 0B     BCS $F9E1                       A:AA X:55 Y:28 P:A4 SP:F
F9D6  F0 09     BEQ $F9E1                       A:AA X:55 Y:28 P:A4 SP:F
F9D8  10 07     BPL $F9E1                       A:AA X:55 Y:28 P:A4 SP:F
F9DA  70 05     BVS $F9E1                       A:AA X:55 Y:28 P:A4 SP:F
F9DC  C9 AA     CMP #$AA                        A:AA X:55 Y:28 P:A4 SP:F
F9DE  D0 01     BNE $F9E1                       A:AA X:55 Y:28 P:27 SP:F
F9E0  60        RTS                             A:AA X:55 Y:28 P:27 SP:F
DDFF  C8        INY                             A:AA X:55 Y:28 P:27 SP:F
DE00  20 E4 F9  JSR $F9E4                       A:AA X:55 Y:29 P:25 SP:F
F9E4  24 01     BIT $01 = FF                    A:AA X:55 Y:29 P:25 SP:F
F9E6  38        SEC                             A:AA X:55 Y:29 P:E5 SP:F
F9E7  A9 01     LDA #$01                        A:AA X:55 Y:29 P:E5 SP:F
F9E9  60        RTS                             A:01 X:55 Y:29 P:65 SP:F
DE03  95 00     STA $00,X @ 55 = AA             A:01 X:55 Y:29 P:65 SP:F
DE05  76 00     ROR $00,X @ 55 = 01             A:01 X:55 Y:29 P:65 SP:F
DE07  B5 00     LDA $00,X @ 55 = 80             A:01 X:55 Y:29 P:E5 SP:F
DE09  20 EA F9  JSR $F9EA                       A:80 X:55 Y:29 P:E5 SP:F
F9EA  90 1C     BCC $FA08                       A:80 X:55 Y:29 P:E5 SP:F
F9EC  F0 1A     BEQ $FA08                       A:80 X:55 Y:29 P:E5 SP:F
F9EE  10 18     BPL $FA08                       A:80 X:55 Y:29 P:E5 SP:F
F9F0  50 16     BVC $FA08                       A:80 X:55 Y:29 P:E5 SP:F
F9F2  C9 80     CMP #$80                        A:80 X:55 Y:29 P:E5 SP:F
F9F4  D0 12     BNE $FA08                       A:80 X:55 Y:29 P:67 SP:F
F9F6  B8        CLV                             A:80 X:55 Y:29 P:67 SP:F
F9F7  18        CLC                             A:80 X:55 Y:29 P:27 SP:F
F9F8  A9 55     LDA #$55                        A:80 X:55 Y:29 P:26 SP:F
F9FA  60        RTS                             A:55 X:55 Y:29 P:24 SP:F
DE0C  C8        INY                             A:55 X:55 Y:29 P:24 SP:F
DE0D  95 00     STA $00,X @ 55 = 80             A:55 X:55 Y:2A P:24 SP:F
DE0F  76 00     ROR $00,X @ 55 = 55             A:55 X:55 Y:2A P:24 SP:F
DE11  B5 00     LDA $00,X @ 55 = 2A             A:55 X:55 Y:2A P:25 SP:F
DE13  20 FB F9  JSR $F9FB                       A:2A X:55 Y:2A P:25 SP:F
F9FB  90 0B     BCC $FA08                       A:2A X:55 Y:2A P:25 SP:F
F9FD  F0 09     BEQ $FA08                       A:2A X:55 Y:2A P:25 SP:F
F9FF  30 07     BMI $FA08                       A:2A X:55 Y:2A P:25 SP:F
FA01  70 05     BVS $FA08                       A:2A X:55 Y:2A P:25 SP:F
FA03  C9 2A     CMP #$2A                        A:2A X:55 Y:2A P:25 SP:F
FA05  D0 01     BNE $FA08                       A:2A X:55 Y:2A P:27 SP:F
FA07  60        RTS                             A:2A X:55 Y:2A P:27 SP:F
DE16  C8        INY                             A:2A X:55 Y:2A P:27 SP:F
DE17  20 0A FA  JSR $FA0A                       A:2A X:55 Y:2B P:25 SP:F
FA0A  24 01     BIT $01 = FF                    A:2A X:55 Y:2B P:25 SP:F
FA0C  38        SEC                             A:2A X:55 Y:2B P:E5 SP:F
FA0D  A9 80     LDA #$80                        A:2A X:55 Y:2B P:E5 SP:F
FA0F  60        RTS                             A:80 X:55 Y:2B P:E5 SP:F
DE1A  95 00     STA $00,X @ 55 = 2A             A:80 X:55 Y:2B P:E5 SP:F
DE1C  36 00     ROL $00,X @ 55 = 80             A:80 X:55 Y:2B P:E5 SP:F
DE1E  B5 00     LDA $00,X @ 55 = 01             A:80 X:55 Y:2B P:65 SP:F
DE20  20 10 FA  JSR $FA10                       A:01 X:55 Y:2B P:65 SP:F
FA10  90 1C     BCC $FA2E                       A:01 X:55 Y:2B P:65 SP:F
FA12  F0 1A     BEQ $FA2E                       A:01 X:55 Y:2B P:65 SP:F
FA14  30 18     BMI $FA2E                       A:01 X:55 Y:2B P:65 SP:F
FA16  50 16     BVC $FA2E                       A:01 X:55 Y:2B P:65 SP:F
FA18  C9 01     CMP #$01                        A:01 X:55 Y:2B P:65 SP:F
FA1A  D0 12     BNE $FA2E                       A:01 X:55 Y:2B P:67 SP:F
FA1C  B8        CLV                             A:01 X:55 Y:2B P:67 SP:F
FA1D  18        CLC                             A:01 X:55 Y:2B P:27 SP:F
FA1E  A9 55     LDA #$55                        A:01 X:55 Y:2B P:26 SP:F
FA20  60        RTS                             A:55 X:55 Y:2B P:24 SP:F
DE23  C8        INY                             A:55 X:55 Y:2B P:24 SP:F
DE24  95 00     STA $00,X @ 55 = 01             A:55 X:55 Y:2C P:24 SP:F
DE26  36 00     ROL $00,X @ 55 = 55             A:55 X:55 Y:2C P:24 SP:F
DE28  B5 00     LDA $00,X @ 55 = AA             A:55 X:55 Y:2C P:A4 SP:F
DE2A  20 21 FA  JSR $FA21                       A:AA X:55 Y:2C P:A4 SP:F
FA21  B0 0B     BCS $FA2E                       A:AA X:55 Y:2C P:A4 SP:F
FA23  F0 09     BEQ $FA2E                       A:AA X:55 Y:2C P:A4 SP:F
FA25  10 07     BPL $FA2E                       A:AA X:55 Y:2C P:A4 SP:F
FA27  70 05     BVS $FA2E                       A:AA X:55 Y:2C P:A4 SP:F
FA29  C9 AA     CMP #$AA                        A:AA X:55 Y:2C P:A4 SP:F
FA2B  D0 01     BNE $FA2E                       A:AA X:55 Y:2C P:27 SP:F
FA2D  60        RTS                             A:AA X:55 Y:2C P:27 SP:F
DE2D  A9 FF     LDA #$FF                        A:AA X:55 Y:2C P:27 SP:F
DE2F  95 00     STA $00,X @ 55 = AA             A:FF X:55 Y:2C P:A5 SP:F
DE31  85 01     STA $01 = FF                    A:FF X:55 Y:2C P:A5 SP:F
DE33  24 01     BIT $01 = FF                    A:FF X:55 Y:2C P:A5 SP:F
DE35  38        SEC                             A:FF X:55 Y:2C P:E5 SP:F
DE36  F6 00     INC $00,X @ 55 = FF             A:FF X:55 Y:2C P:E5 SP:F
DE38  D0 0C     BNE $DE46                       A:FF X:55 Y:2C P:67 SP:F
DE3A  30 0A     BMI $DE46                       A:FF X:55 Y:2C P:67 SP:F
DE3C  50 08     BVC $DE46                       A:FF X:55 Y:2C P:67 SP:F
DE3E  90 06     BCC $DE46                       A:FF X:55 Y:2C P:67 SP:F
DE40  B5 00     LDA $00,X @ 55 = 00             A:FF X:55 Y:2C P:67 SP:F
DE42  C9 00     CMP #$00                        A:00 X:55 Y:2C P:67 SP:F
DE44  F0 04     BEQ $DE4A                       A:00 X:55 Y:2C P:67 SP:F
DE4A  A9 7F     LDA #$7F                        A:00 X:55 Y:2C P:67 SP:F
DE4C  95 00     STA $00,X @ 55 = 00             A:7F X:55 Y:2C P:65 SP:F
DE4E  B8        CLV                             A:7F X:55 Y:2C P:65 SP:F
DE4F  18        CLC                             A:7F X:55 Y:2C P:25 SP:F
DE50  F6 00     INC $00,X @ 55 = 7F             A:7F X:55 Y:2C P:24 SP:F
DE52  F0 0C     BEQ $DE60                       A:7F X:55 Y:2C P:A4 SP:F
DE54  10 0A     BPL $DE60                       A:7F X:55 Y:2C P:A4 SP:F
DE56  70 08     BVS $DE60                       A:7F X:55 Y:2C P:A4 SP:F
DE58  B0 06     BCS $DE60                       A:7F X:55 Y:2C P:A4 SP:F
DE5A  B5 00     LDA $00,X @ 55 = 80             A:7F X:55 Y:2C P:A4 SP:F
DE5C  C9 80     CMP #$80                        A:80 X:55 Y:2C P:A4 SP:F
DE5E  F0 04     BEQ $DE64                       A:80 X:55 Y:2C P:27 SP:F
DE64  A9 00     LDA #$00                        A:80 X:55 Y:2C P:27 SP:F
DE66  95 00     STA $00,X @ 55 = 80             A:00 X:55 Y:2C P:27 SP:F
DE68  24 01     BIT $01 = FF                    A:00 X:55 Y:2C P:27 SP:F
DE6A  38        SEC                             A:00 X:55 Y:2C P:E7 SP:F
DE6B  D6 00     DEC $00,X @ 55 = 00             A:00 X:55 Y:2C P:E7 SP:F
DE6D  F0 0C     BEQ $DE7B                       A:00 X:55 Y:2C P:E5 SP:F
DE6F  10 0A     BPL $DE7B                       A:00 X:55 Y:2C P:E5 SP:F
DE71  50 08     BVC $DE7B                       A:00 X:55 Y:2C P:E5 SP:F
DE73  90 06     BCC $DE7B                       A:00 X:55 Y:2C P:E5 SP:F
DE75  B5 00     LDA $00,X @ 55 = FF             A:00 X:55 Y:2C P:E5 SP:F
DE77  C9 FF     CMP #$FF                        A:FF X:55 Y:2C P:E5 SP:F
DE79  F0 04     BEQ $DE7F                       A:FF X:55 Y:2C P:67 SP:F
DE7F  A9 80     LDA #$80                        A:FF X:55 Y:2C P:67 SP:F
DE81  95 00     STA $00,X @ 55 = FF             A:80 X:55 Y:2C P:E5 SP:F
DE83  B8        CLV                             A:80 X:55 Y:2C P:E5 SP:F
DE84  18        CLC                             A:80 X:55 Y:2C P:A5 SP:F
DE85  D6 00     DEC $00,X @ 55 = 80             A:80 X:55 Y:2C P:A4 SP:F
DE87  F0 0C     BEQ $DE95                       A:80 X:55 Y:2C P:24 SP:F
DE89  30 0A     BMI $DE95                       A:80 X:55 Y:2C P:24 SP:F
DE8B  70 08     BVS $DE95                       A:80 X:55 Y:2C P:24 SP:F
DE8D  B0 06     BCS $DE95                       A:80 X:55 Y:2C P:24 SP:F
DE8F  B5 00     LDA $00,X @ 55 = 7F             A:80 X:55 Y:2C P:24 SP:F
DE91  C9 7F     CMP #$7F                        A:7F X:55 Y:2C P:24 SP:F
DE93  F0 04     BEQ $DE99                       A:7F X:55 Y:2C P:27 SP:F
DE99  A9 01     LDA #$01                        A:7F X:55 Y:2C P:27 SP:F
DE9B  95 00     STA $00,X @ 55 = 7F             A:01 X:55 Y:2C P:25 SP:F
DE9D  D6 00     DEC $00,X @ 55 = 01             A:01 X:55 Y:2C P:25 SP:F
DE9F  F0 04     BEQ $DEA5                       A:01 X:55 Y:2C P:27 SP:F
DEA5  A9 33     LDA #$33                        A:01 X:55 Y:2C P:27 SP:F
DEA7  85 78     STA $78 = 7F                    A:33 X:55 Y:2C P:25 SP:F
DEA9  A9 44     LDA #$44                        A:33 X:55 Y:2C P:25 SP:F
DEAB  A0 78     LDY #$78                        A:44 X:55 Y:2C P:25 SP:F
DEAD  A2 00     LDX #$00                        A:44 X:55 Y:78 P:25 SP:F
DEAF  38        SEC                             A:44 X:00 Y:78 P:27 SP:F
DEB0  24 01     BIT $01 = FF                    A:44 X:00 Y:78 P:27 SP:F
DEB2  B6 00     LDX $00,Y @ 78 = 33             A:44 X:00 Y:78 P:E5 SP:F
DEB4  90 12     BCC $DEC8                       A:44 X:33 Y:78 P:65 SP:F
DEB6  50 10     BVC $DEC8                       A:44 X:33 Y:78 P:65 SP:F
DEB8  30 0E     BMI $DEC8                       A:44 X:33 Y:78 P:65 SP:F
DEBA  F0 0C     BEQ $DEC8                       A:44 X:33 Y:78 P:65 SP:F
DEBC  E0 33     CPX #$33                        A:44 X:33 Y:78 P:65 SP:F
DEBE  D0 08     BNE $DEC8                       A:44 X:33 Y:78 P:67 SP:F
DEC0  C0 78     CPY #$78                        A:44 X:33 Y:78 P:67 SP:F
DEC2  D0 04     BNE $DEC8                       A:44 X:33 Y:78 P:67 SP:F
DEC4  C9 44     CMP #$44                        A:44 X:33 Y:78 P:67 SP:F
DEC6  F0 04     BEQ $DECC                       A:44 X:33 Y:78 P:67 SP:F
DECC  A9 97     LDA #$97                        A:44 X:33 Y:78 P:67 SP:F
DECE  85 7F     STA $7F = 00                    A:97 X:33 Y:78 P:E5 SP:F
DED0  A9 47     LDA #$47                        A:97 X:33 Y:78 P:E5 SP:F
DED2  A0 FF     LDY #$FF                        A:47 X:33 Y:78 P:65 SP:F
DED4  A2 00     LDX #$00                        A:47 X:33 Y:FF P:E5 SP:F
DED6  18        CLC                             A:47 X:00 Y:FF P:67 SP:F
DED7  B8        CLV                             A:47 X:00 Y:FF P:66 SP:F
DED8  B6 80     LDX $80,Y @ 7F = 97             A:47 X:00 Y:FF P:26 SP:F
DEDA  B0 12     BCS $DEEE                       A:47 X:97 Y:FF P:A4 SP:F
DEDC  70 10     BVS $DEEE                       A:47 X:97 Y:FF P:A4 SP:F
DEDE  10 0E     BPL $DEEE                       A:47 X:97 Y:FF P:A4 SP:F
DEE0  F0 0C     BEQ $DEEE                       A:47 X:97 Y:FF P:A4 SP:F
DEE2  E0 97     CPX #$97                        A:47 X:97 Y:FF P:A4 SP:F
DEE4  D0 08     BNE $DEEE                       A:47 X:97 Y:FF P:27 SP:F
DEE6  C0 FF     CPY #$FF                        A:47 X:97 Y:FF P:27 SP:F
DEE8  D0 04     BNE $DEEE                       A:47 X:97 Y:FF P:27 SP:F
DEEA  C9 47     CMP #$47                        A:47 X:97 Y:FF P:27 SP:F
DEEC  F0 04     BEQ $DEF2                       A:47 X:97 Y:FF P:27 SP:F
DEF2  A9 00     LDA #$00                        A:47 X:97 Y:FF P:27 SP:F
DEF4  85 7F     STA $7F = 97                    A:00 X:97 Y:FF P:27 SP:F
DEF6  A9 47     LDA #$47                        A:00 X:97 Y:FF P:27 SP:F
DEF8  A0 FF     LDY #$FF                        A:47 X:97 Y:FF P:25 SP:F
DEFA  A2 69     LDX #$69                        A:47 X:97 Y:FF P:A5 SP:F
DEFC  18        CLC                             A:47 X:69 Y:FF P:25 SP:F
DEFD  B8        CLV                             A:47 X:69 Y:FF P:24 SP:F
DEFE  96 80     STX $80,Y @ 7F = 00             A:47 X:69 Y:FF P:24 SP:F
DF00  B0 18     BCS $DF1A                       A:47 X:69 Y:FF P:24 SP:F
DF02  70 16     BVS $DF1A                       A:47 X:69 Y:FF P:24 SP:F
DF04  30 14     BMI $DF1A                       A:47 X:69 Y:FF P:24 SP:F
DF06  F0 12     BEQ $DF1A                       A:47 X:69 Y:FF P:24 SP:F
DF08  E0 69     CPX #$69                        A:47 X:69 Y:FF P:24 SP:F
DF0A  D0 0E     BNE $DF1A                       A:47 X:69 Y:FF P:27 SP:F
DF0C  C0 FF     CPY #$FF                        A:47 X:69 Y:FF P:27 SP:F
DF0E  D0 0A     BNE $DF1A                       A:47 X:69 Y:FF P:27 SP:F
DF10  C9 47     CMP #$47                        A:47 X:69 Y:FF P:27 SP:F
DF12  D0 06     BNE $DF1A                       A:47 X:69 Y:FF P:27 SP:F
DF14  A5 7F     LDA $7F = 69                    A:47 X:69 Y:FF P:27 SP:F
DF16  C9 69     CMP #$69                        A:69 X:69 Y:FF P:25 SP:F
DF18  F0 04     BEQ $DF1E                       A:69 X:69 Y:FF P:27 SP:F
DF1E  A9 F5     LDA #$F5                        A:69 X:69 Y:FF P:27 SP:F
DF20  85 4F     STA $4F = 00                    A:F5 X:69 Y:FF P:A5 SP:F
DF22  A9 47     LDA #$47                        A:F5 X:69 Y:FF P:A5 SP:F
DF24  A0 4F     LDY #$4F                        A:47 X:69 Y:FF P:25 SP:F
DF26  24 01     BIT $01 = FF                    A:47 X:69 Y:4F P:25 SP:F
DF28  A2 00     LDX #$00                        A:47 X:69 Y:4F P:E5 SP:F
DF2A  38        SEC                             A:47 X:00 Y:4F P:67 SP:F
DF2B  96 00     STX $00,Y @ 4F = F5             A:47 X:00 Y:4F P:67 SP:F
DF2D  90 16     BCC $DF45                       A:47 X:00 Y:4F P:67 SP:F
DF2F  50 14     BVC $DF45                       A:47 X:00 Y:4F P:67 SP:F
DF31  30 12     BMI $DF45                       A:47 X:00 Y:4F P:67 SP:F
DF33  D0 10     BNE $DF45                       A:47 X:00 Y:4F P:67 SP:F
DF35  E0 00     CPX #$00                        A:47 X:00 Y:4F P:67 SP:F
DF37  D0 0C     BNE $DF45                       A:47 X:00 Y:4F P:67 SP:F
DF39  C0 4F     CPY #$4F                        A:47 X:00 Y:4F P:67 SP:F
DF3B  D0 08     BNE $DF45                       A:47 X:00 Y:4F P:67 SP:F
DF3D  C9 47     CMP #$47                        A:47 X:00 Y:4F P:67 SP:F
DF3F  D0 04     BNE $DF45                       A:47 X:00 Y:4F P:67 SP:F
DF41  A5 4F     LDA $4F = 00                    A:47 X:00 Y:4F P:67 SP:F
DF43  F0 04     BEQ $DF49                       A:00 X:00 Y:4F P:67 SP:F
DF49  60        RTS                             A:00 X:00 Y:4F P:67 SP:F
C62C  20 AA E1  JSR $E1AA                       A:00 X:00 Y:4F P:67 SP:F
E1AA  A9 FF     LDA #$FF                        A:00 X:00 Y:4F P:67 SP:F
E1AC  85 01     STA $01 = FF                    A:FF X:00 Y:4F P:E5 SP:F
E1AE  A9 AA     LDA #$AA                        A:FF X:00 Y:4F P:E5 SP:F
E1B0  8D 33 06  STA $0633 = 00                  A:AA X:00 Y:4F P:E5 SP:F
E1B3  A9 BB     LDA #$BB                        A:AA X:00 Y:4F P:E5 SP:F
E1B5  8D 89 06  STA $0689 = 00                  A:BB X:00 Y:4F P:E5 SP:F
E1B8  A2 00     LDX #$00                        A:BB X:00 Y:4F P:E5 SP:F
E1BA  A9 66     LDA #$66                        A:BB X:00 Y:4F P:67 SP:F
E1BC  24 01     BIT $01 = FF                    A:66 X:00 Y:4F P:65 SP:F
E1BE  38        SEC                             A:66 X:00 Y:4F P:E5 SP:F
E1BF  A0 00     LDY #$00                        A:66 X:00 Y:4F P:E5 SP:F
E1C1  BC 33 06  LDY $0633,X @ 0633 = AA         A:66 X:00 Y:00 P:67 SP:F
E1C4  10 12     BPL $E1D8                       A:66 X:00 Y:AA P:E5 SP:F
E1C6  F0 10     BEQ $E1D8                       A:66 X:00 Y:AA P:E5 SP:F
E1C8  50 0E     BVC $E1D8                       A:66 X:00 Y:AA P:E5 SP:F
E1CA  90 0C     BCC $E1D8                       A:66 X:00 Y:AA P:E5 SP:F
E1CC  C9 66     CMP #$66                        A:66 X:00 Y:AA P:E5 SP:F
E1CE  D0 08     BNE $E1D8                       A:66 X:00 Y:AA P:67 SP:F
E1D0  E0 00     CPX #$00                        A:66 X:00 Y:AA P:67 SP:F
E1D2  D0 04     BNE $E1D8                       A:66 X:00 Y:AA P:67 SP:F
E1D4  C0 AA     CPY #$AA                        A:66 X:00 Y:AA P:67 SP:F
E1D6  F0 04     BEQ $E1DC                       A:66 X:00 Y:AA P:67 SP:F
E1DC  A2 8A     LDX #$8A                        A:66 X:00 Y:AA P:67 SP:F
E1DE  A9 66     LDA #$66                        A:66 X:8A Y:AA P:E5 SP:F
E1E0  B8        CLV                             A:66 X:8A Y:AA P:65 SP:F
E1E1  18        CLC                             A:66 X:8A Y:AA P:25 SP:F
E1E2  A0 00     LDY #$00                        A:66 X:8A Y:AA P:24 SP:F
E1E4  BC FF 05  LDY $05FF,X @ 0689 = BB         A:66 X:8A Y:00 P:26 SP:F
E1E7  10 12     BPL $E1FB                       A:66 X:8A Y:BB P:A4 SP:F
E1E9  F0 10     BEQ $E1FB                       A:66 X:8A Y:BB P:A4 SP:F
E1EB  70 0E     BVS $E1FB                       A:66 X:8A Y:BB P:A4 SP:F
E1ED  B0 0C     BCS $E1FB                       A:66 X:8A Y:BB P:A4 SP:F
E1EF  C0 BB     CPY #$BB                        A:66 X:8A Y:BB P:A4 SP:F
E1F1  D0 08     BNE $E1FB                       A:66 X:8A Y:BB P:27 SP:F
E1F3  C9 66     CMP #$66                        A:66 X:8A Y:BB P:27 SP:F
E1F5  D0 04     BNE $E1FB                       A:66 X:8A Y:BB P:27 SP:F
E1F7  E0 8A     CPX #$8A                        A:66 X:8A Y:BB P:27 SP:F
E1F9  F0 04     BEQ $E1FF                       A:66 X:8A Y:BB P:27 SP:F
E1FF  A0 53     LDY #$53                        A:66 X:8A Y:BB P:27 SP:F
E201  A9 AA     LDA #$AA                        A:66 X:8A Y:53 P:25 SP:F
E203  A2 78     LDX #$78                        A:AA X:8A Y:53 P:A5 SP:F
E205  8D 78 06  STA $0678 = 00                  A:AA X:78 Y:53 P:25 SP:F
E208  20 B6 F7  JSR $F7B6                       A:AA X:78 Y:53 P:25 SP:F
F7B6  18        CLC                             A:AA X:78 Y:53 P:25 SP:F
F7B7  A9 FF     LDA #$FF                        A:AA X:78 Y:53 P:24 SP:F
F7B9  85 01     STA $01 = FF                    A:FF X:78 Y:53 P:A4 SP:F
F7BB  24 01     BIT $01 = FF                    A:FF X:78 Y:53 P:A4 SP:F
F7BD  A9 55     LDA #$55                        A:FF X:78 Y:53 P:E4 SP:F
F7BF  60        RTS                             A:55 X:78 Y:53 P:64 SP:F
E20B  1D 00 06  ORA $0600,X @ 0678 = AA         A:55 X:78 Y:53 P:64 SP:F
E20E  20 C0 F7  JSR $F7C0                       A:FF X:78 Y:53 P:E4 SP:F
F7C0  B0 09     BCS $F7CB                       A:FF X:78 Y:53 P:E4 SP:F
F7C2  10 07     BPL $F7CB                       A:FF X:78 Y:53 P:E4 SP:F
F7C4  C9 FF     CMP #$FF                        A:FF X:78 Y:53 P:E4 SP:F
F7C6  D0 03     BNE $F7CB                       A:FF X:78 Y:53 P:67 SP:F
F7C8  50 01     BVC $F7CB                       A:FF X:78 Y:53 P:67 SP:F
F7CA  60        RTS                             A:FF X:78 Y:53 P:67 SP:F
E211  C8        INY                             A:FF X:78 Y:53 P:67 SP:F
E212  A9 00     LDA #$00                        A:FF X:78 Y:54 P:65 SP:F
E214  8D 78 06  STA $0678 = AA                  A:00 X:78 Y:54 P:67 SP:F
E217  20 CE F7  JSR $F7CE                       A:00 X:78 Y:54 P:67 SP:F
F7CE  38        SEC                             A:00 X:78 Y:54 P:67 SP:F
F7CF  B8        CLV                             A:00 X:78 Y:54 P:67 SP:F
F7D0  A9 00     LDA #$00                        A:00 X:78 Y:54 P:27 SP:F
F7D2  60        RTS                             A:00 X:78 Y:54 P:27 SP:F
E21A  1D 00 06  ORA $0600,X @ 0678 = 00         A:00 X:78 Y:54 P:27 SP:F
E21D  20 D3 F7  JSR $F7D3                       A:00 X:78 Y:54 P:27 SP:F
F7D3  D0 07     BNE $F7DC                       A:00 X:78 Y:54 P:27 SP:F
F7D5  70 05     BVS $F7DC                       A:00 X:78 Y:54 P:27 SP:F
F7D7  90 03     BCC $F7DC                       A:00 X:78 Y:54 P:27 SP:F
F7D9  30 01     BMI $F7DC                       A:00 X:78 Y:54 P:27 SP:F
F7DB  60        RTS                             A:00 X:78 Y:54 P:27 SP:F
E220  C8        INY                             A:00 X:78 Y:54 P:27 SP:F
E221  A9 AA     LDA #$AA                        A:00 X:78 Y:55 P:25 SP:F
E223  8D 78 06  STA $0678 = 00                  A:AA X:78 Y:55 P:A5 SP:F
E226  20 DF F7  JSR $F7DF                       A:AA X:78 Y:55 P:A5 SP:F
F7DF  18        CLC                             A:AA X:78 Y:55 P:A5 SP:F
F7E0  24 01     BIT $01 = FF                    A:AA X:78 Y:55 P:A4 SP:F
F7E2  A9 55     LDA #$55                        A:AA X:78 Y:55 P:E4 SP:F
F7E4  60        RTS                             A:55 X:78 Y:55 P:64 SP:F
E229  3D 00 06  AND $0600,X @ 0678 = AA         A:55 X:78 Y:55 P:64 SP:F
E22C  20 E5 F7  JSR $F7E5                       A:00 X:78 Y:55 P:66 SP:F
F7E5  D0 07     BNE $F7EE                       A:00 X:78 Y:55 P:66 SP:F
F7E7  50 05     BVC $F7EE                       A:00 X:78 Y:55 P:66 SP:F
F7E9  B0 03     BCS $F7EE                       A:00 X:78 Y:55 P:66 SP:F
F7EB  30 01     BMI $F7EE                       A:00 X:78 Y:55 P:66 SP:F
F7ED  60        RTS                             A:00 X:78 Y:55 P:66 SP:F
E22F  C8        INY                             A:00 X:78 Y:55 P:66 SP:F
E230  A9 EF     LDA #$EF                        A:00 X:78 Y:56 P:64 SP:F
E232  8D 78 06  STA $0678 = AA                  A:EF X:78 Y:56 P:E4 SP:F
E235  20 F1 F7  JSR $F7F1                       A:EF X:78 Y:56 P:E4 SP:F
F7F1  38        SEC                             A:EF X:78 Y:56 P:E4 SP:F
F7F2  B8        CLV                             A:EF X:78 Y:56 P:E5 SP:F
F7F3  A9 F8     LDA #$F8                        A:EF X:78 Y:56 P:A5 SP:F
F7F5  60        RTS                             A:F8 X:78 Y:56 P:A5 SP:F
E238  3D 00 06  AND $0600,X @ 0678 = EF         A:F8 X:78 Y:56 P:A5 SP:F
E23B  20 F6 F7  JSR $F7F6                       A:E8 X:78 Y:56 P:A5 SP:F
F7F6  90 09     BCC $F801                       A:E8 X:78 Y:56 P:A5 SP:F
F7F8  10 07     BPL $F801                       A:E8 X:78 Y:56 P:A5 SP:F
F7FA  C9 E8     CMP #$E8                        A:E8 X:78 Y:56 P:A5 SP:F
F7FC  D0 03     BNE $F801                       A:E8 X:78 Y:56 P:27 SP:F
F7FE  70 01     BVS $F801                       A:E8 X:78 Y:56 P:27 SP:F
F800  60        RTS                             A:E8 X:78 Y:56 P:27 SP:F
E23E  C8        INY                             A:E8 X:78 Y:56 P:27 SP:F
E23F  A9 AA     LDA #$AA                        A:E8 X:78 Y:57 P:25 SP:F
E241  8D 78 06  STA $0678 = EF                  A:AA X:78 Y:57 P:A5 SP:F
E244  20 04 F8  JSR $F804                       A:AA X:78 Y:57 P:A5 SP:F
F804  18        CLC                             A:AA X:78 Y:57 P:A5 SP:F
F805  24 01     BIT $01 = FF                    A:AA X:78 Y:57 P:A4 SP:F
F807  A9 5F     LDA #$5F                        A:AA X:78 Y:57 P:E4 SP:F
F809  60        RTS                             A:5F X:78 Y:57 P:64 SP:F
E247  5D 00 06  EOR $0600,X @ 0678 = AA         A:5F X:78 Y:57 P:64 SP:F
E24A  20 0A F8  JSR $F80A                       A:F5 X:78 Y:57 P:E4 SP:F
F80A  B0 09     BCS $F815                       A:F5 X:78 Y:57 P:E4 SP:F
F80C  10 07     BPL $F815                       A:F5 X:78 Y:57 P:E4 SP:F
F80E  C9 F5     CMP #$F5                        A:F5 X:78 Y:57 P:E4 SP:F
F810  D0 03     BNE $F815                       A:F5 X:78 Y:57 P:67 SP:F
F812  50 01     BVC $F815                       A:F5 X:78 Y:57 P:67 SP:F
F814  60        RTS                             A:F5 X:78 Y:57 P:67 SP:F
E24D  C8        INY                             A:F5 X:78 Y:57 P:67 SP:F
E24E  A9 70     LDA #$70                        A:F5 X:78 Y:58 P:65 SP:F
E250  8D 78 06  STA $0678 = AA                  A:70 X:78 Y:58 P:65 SP:F
E253  20 18 F8  JSR $F818                       A:70 X:78 Y:58 P:65 SP:F
F818  38        SEC                             A:70 X:78 Y:58 P:65 SP:F
F819  B8        CLV                             A:70 X:78 Y:58 P:65 SP:F
F81A  A9 70     LDA #$70                        A:70 X:78 Y:58 P:25 SP:F
F81C  60        RTS                             A:70 X:78 Y:58 P:25 SP:F
E256  5D 00 06  EOR $0600,X @ 0678 = 70         A:70 X:78 Y:58 P:25 SP:F
E259  20 1D F8  JSR $F81D                       A:00 X:78 Y:58 P:27 SP:F
F81D  D0 07     BNE $F826                       A:00 X:78 Y:58 P:27 SP:F
F81F  70 05     BVS $F826                       A:00 X:78 Y:58 P:27 SP:F
F821  90 03     BCC $F826                       A:00 X:78 Y:58 P:27 SP:F
F823  30 01     BMI $F826                       A:00 X:78 Y:58 P:27 SP:F
F825  60        RTS                             A:00 X:78 Y:58 P:27 SP:F
E25C  C8        INY                             A:00 X:78 Y:58 P:27 SP:F
E25D  A9 69     LDA #$69                        A:00 X:78 Y:59 P:25 SP:F
E25F  8D 78 06  STA $0678 = 70                  A:69 X:78 Y:59 P:25 SP:F
E262  20 29 F8  JSR $F829                       A:69 X:78 Y:59 P:25 SP:F
F829  18        CLC                             A:69 X:78 Y:59 P:25 SP:F
F82A  24 01     BIT $01 = FF                    A:69 X:78 Y:59 P:24 SP:F
F82C  A9 00     LDA #$00                        A:69 X:78 Y:59 P:E4 SP:F
F82E  60        RTS                             A:00 X:78 Y:59 P:66 SP:F
E265  7D 00 06  ADC $0600,X @ 0678 = 69         A:00 X:78 Y:59 P:66 SP:F
E268  20 2F F8  JSR $F82F                       A:69 X:78 Y:59 P:24 SP:F
F82F  30 09     BMI $F83A                       A:69 X:78 Y:59 P:24 SP:F
F831  B0 07     BCS $F83A                       A:69 X:78 Y:59 P:24 SP:F
F833  C9 69     CMP #$69                        A:69 X:78 Y:59 P:24 SP:F
F835  D0 03     BNE $F83A                       A:69 X:78 Y:59 P:27 SP:F
F837  70 01     BVS $F83A                       A:69 X:78 Y:59 P:27 SP:F
F839  60        RTS                             A:69 X:78 Y:59 P:27 SP:F
E26B  C8        INY                             A:69 X:78 Y:59 P:27 SP:F
E26C  20 3D F8  JSR $F83D                       A:69 X:78 Y:5A P:25 SP:F
F83D  38        SEC                             A:69 X:78 Y:5A P:25 SP:F
F83E  24 01     BIT $01 = FF                    A:69 X:78 Y:5A P:25 SP:F
F840  A9 00     LDA #$00                        A:69 X:78 Y:5A P:E5 SP:F
F842  60        RTS                             A:00 X:78 Y:5A P:67 SP:F
E26F  7D 00 06  ADC $0600,X @ 0678 = 69         A:00 X:78 Y:5A P:67 SP:F
E272  20 43 F8  JSR $F843                       A:6A X:78 Y:5A P:24 SP:F
F843  30 09     BMI $F84E                       A:6A X:78 Y:5A P:24 SP:F
F845  B0 07     BCS $F84E                       A:6A X:78 Y:5A P:24 SP:F
F847  C9 6A     CMP #$6A                        A:6A X:78 Y:5A P:24 SP:F
F849  D0 03     BNE $F84E                       A:6A X:78 Y:5A P:27 SP:F
F84B  70 01     BVS $F84E                       A:6A X:78 Y:5A P:27 SP:F
F84D  60        RTS                             A:6A X:78 Y:5A P:27 SP:F
E275  C8        INY                             A:6A X:78 Y:5A P:27 SP:F
E276  A9 7F     LDA #$7F                        A:6A X:78 Y:5B P:25 SP:F
E278  8D 78 06  STA $0678 = 69                  A:7F X:78 Y:5B P:25 SP:F
E27B  20 51 F8  JSR $F851                       A:7F X:78 Y:5B P:25 SP:F
F851  38        SEC                             A:7F X:78 Y:5B P:25 SP:F
F852  B8        CLV                             A:7F X:78 Y:5B P:25 SP:F
F853  A9 7F     LDA #$7F                        A:7F X:78 Y:5B P:25 SP:F
F855  60        RTS                             A:7F X:78 Y:5B P:25 SP:F
E27E  7D 00 06  ADC $0600,X @ 0678 = 7F         A:7F X:78 Y:5B P:25 SP:F
E281  20 56 F8  JSR $F856                       A:FF X:78 Y:5B P:E4 SP:F
F856  10 09     BPL $F861                       A:FF X:78 Y:5B P:E4 SP:F
F858  B0 07     BCS $F861                       A:FF X:78 Y:5B P:E4 SP:F
F85A  C9 FF     CMP #$FF                        A:FF X:78 Y:5B P:E4 SP:F
F85C  D0 03     BNE $F861                       A:FF X:78 Y:5B P:67 SP:F
F85E  50 01     BVC $F861                       A:FF X:78 Y:5B P:67 SP:F
F860  60        RTS                             A:FF X:78 Y:5B P:67 SP:F
E284  C8        INY                             A:FF X:78 Y:5B P:67 SP:F
E285  A9 80     LDA #$80                        A:FF X:78 Y:5C P:65 SP:F
E287  8D 78 06  STA $0678 = 7F                  A:80 X:78 Y:5C P:E5 SP:F
E28A  20 64 F8  JSR $F864                       A:80 X:78 Y:5C P:E5 SP:F
F864  18        CLC                             A:80 X:78 Y:5C P:E5 SP:F
F865  24 01     BIT $01 = FF                    A:80 X:78 Y:5C P:E4 SP:F
F867  A9 7F     LDA #$7F                        A:80 X:78 Y:5C P:E4 SP:F
F869  60        RTS                             A:7F X:78 Y:5C P:64 SP:F
E28D  7D 00 06  ADC $0600,X @ 0678 = 80         A:7F X:78 Y:5C P:64 SP:F
E290  20 6A F8  JSR $F86A                       A:FF X:78 Y:5C P:A4 SP:F
F86A  10 09     BPL $F875                       A:FF X:78 Y:5C P:A4 SP:F
F86C  B0 07     BCS $F875                       A:FF X:78 Y:5C P:A4 SP:F
F86E  C9 FF     CMP #$FF                        A:FF X:78 Y:5C P:A4 SP:F
F870  D0 03     BNE $F875                       A:FF X:78 Y:5C P:27 SP:F
F872  70 01     BVS $F875                       A:FF X:78 Y:5C P:27 SP:F
F874  60        RTS                             A:FF X:78 Y:5C P:27 SP:F
E293  C8        INY                             A:FF X:78 Y:5C P:27 SP:F
E294  20 78 F8  JSR $F878                       A:FF X:78 Y:5D P:25 SP:F
F878  38        SEC                             A:FF X:78 Y:5D P:25 SP:F
F879  B8        CLV                             A:FF X:78 Y:5D P:25 SP:F
F87A  A9 7F     LDA #$7F                        A:FF X:78 Y:5D P:25 SP:F
F87C  60        RTS                             A:7F X:78 Y:5D P:25 SP:F
E297  7D 00 06  ADC $0600,X @ 0678 = 80         A:7F X:78 Y:5D P:25 SP:F
E29A  20 7D F8  JSR $F87D                       A:00 X:78 Y:5D P:27 SP:F
F87D  D0 07     BNE $F886                       A:00 X:78 Y:5D P:27 SP:F
F87F  30 05     BMI $F886                       A:00 X:78 Y:5D P:27 SP:F
F881  70 03     BVS $F886                       A:00 X:78 Y:5D P:27 SP:F
F883  90 01     BCC $F886                       A:00 X:78 Y:5D P:27 SP:F
F885  60        RTS                             A:00 X:78 Y:5D P:27 SP:F
E29D  C8        INY                             A:00 X:78 Y:5D P:27 SP:F
E29E  A9 40     LDA #$40                        A:00 X:78 Y:5E P:25 SP:F
E2A0  8D 78 06  STA $0678 = 80                  A:40 X:78 Y:5E P:25 SP:F
E2A3  20 89 F8  JSR $F889                       A:40 X:78 Y:5E P:25 SP:F
F889  24 01     BIT $01 = FF                    A:40 X:78 Y:5E P:25 SP:F
F88B  A9 40     LDA #$40                        A:40 X:78 Y:5E P:E5 SP:F
F88D  60        RTS                             A:40 X:78 Y:5E P:65 SP:F
E2A6  DD 00 06  CMP $0600,X @ 0678 = 40         A:40 X:78 Y:5E P:65 SP:F
E2A9  20 8E F8  JSR $F88E                       A:40 X:78 Y:5E P:67 SP:F
F88E  30 07     BMI $F897                       A:40 X:78 Y:5E P:67 SP:F
F890  90 05     BCC $F897                       A:40 X:78 Y:5E P:67 SP:F
F892  D0 03     BNE $F897                       A:40 X:78 Y:5E P:67 SP:F
F894  50 01     BVC $F897                       A:40 X:78 Y:5E P:67 SP:F
F896  60        RTS                             A:40 X:78 Y:5E P:67 SP:F
E2AC  C8        INY                             A:40 X:78 Y:5E P:67 SP:F
E2AD  48        PHA                             A:40 X:78 Y:5F P:65 SP:F
E2AE  A9 3F     LDA #$3F                        A:40 X:78 Y:5F P:65 SP:F
E2B0  8D 78 06  STA $0678 = 40                  A:3F X:78 Y:5F P:65 SP:F
E2B3  68        PLA                             A:3F X:78 Y:5F P:65 SP:F
E2B4  20 9A F8  JSR $F89A                       A:40 X:78 Y:5F P:65 SP:F
F89A  B8        CLV                             A:40 X:78 Y:5F P:65 SP:F
F89B  60        RTS                             A:40 X:78 Y:5F P:25 SP:F
E2B7  DD 00 06  CMP $0600,X @ 0678 = 3F         A:40 X:78 Y:5F P:25 SP:F
E2BA  20 9C F8  JSR $F89C                       A:40 X:78 Y:5F P:25 SP:F
F89C  F0 07     BEQ $F8A5                       A:40 X:78 Y:5F P:25 SP:F
F89E  30 05     BMI $F8A5                       A:40 X:78 Y:5F P:25 SP:F
F8A0  90 03     BCC $F8A5                       A:40 X:78 Y:5F P:25 SP:F
F8A2  70 01     BVS $F8A5                       A:40 X:78 Y:5F P:25 SP:F
F8A4  60        RTS                             A:40 X:78 Y:5F P:25 SP:F
E2BD  C8        INY                             A:40 X:78 Y:5F P:25 SP:F
E2BE  48        PHA                             A:40 X:78 Y:60 P:25 SP:F
E2BF  A9 41     LDA #$41                        A:40 X:78 Y:60 P:25 SP:F
E2C1  8D 78 06  STA $0678 = 3F                  A:41 X:78 Y:60 P:25 SP:F
E2C4  68        PLA                             A:41 X:78 Y:60 P:25 SP:F
E2C5  DD 00 06  CMP $0600,X @ 0678 = 41         A:40 X:78 Y:60 P:25 SP:F
E2C8  20 A8 F8  JSR $F8A8                       A:40 X:78 Y:60 P:A4 SP:F
F8A8  F0 05     BEQ $F8AF                       A:40 X:78 Y:60 P:A4 SP:F
F8AA  10 03     BPL $F8AF                       A:40 X:78 Y:60 P:A4 SP:F
F8AC  10 01     BPL $F8AF                       A:40 X:78 Y:60 P:A4 SP:F
F8AE  60        RTS                             A:40 X:78 Y:60 P:A4 SP:F
E2CB  C8        INY                             A:40 X:78 Y:60 P:A4 SP:F
E2CC  48        PHA                             A:40 X:78 Y:61 P:24 SP:F
E2CD  A9 00     LDA #$00                        A:40 X:78 Y:61 P:24 SP:F
E2CF  8D 78 06  STA $0678 = 41                  A:00 X:78 Y:61 P:26 SP:F
E2D2  68        PLA                             A:00 X:78 Y:61 P:26 SP:F
E2D3  20 B2 F8  JSR $F8B2                       A:40 X:78 Y:61 P:24 SP:F
F8B2  A9 80     LDA #$80                        A:40 X:78 Y:61 P:24 SP:F
F8B4  60        RTS                             A:80 X:78 Y:61 P:A4 SP:F
E2D6  DD 00 06  CMP $0600,X @ 0678 = 00         A:80 X:78 Y:61 P:A4 SP:F
E2D9  20 B5 F8  JSR $F8B5                       A:80 X:78 Y:61 P:A5 SP:F
F8B5  F0 05     BEQ $F8BC                       A:80 X:78 Y:61 P:A5 SP:F
F8B7  10 03     BPL $F8BC                       A:80 X:78 Y:61 P:A5 SP:F
F8B9  90 01     BCC $F8BC                       A:80 X:78 Y:61 P:A5 SP:F
F8BB  60        RTS                             A:80 X:78 Y:61 P:A5 SP:F
E2DC  C8        INY                             A:80 X:78 Y:61 P:A5 SP:F
E2DD  48        PHA                             A:80 X:78 Y:62 P:25 SP:F
E2DE  A9 80     LDA #$80                        A:80 X:78 Y:62 P:25 SP:F
E2E0  8D 78 06  STA $0678 = 00                  A:80 X:78 Y:62 P:A5 SP:F
E2E3  68        PLA                             A:80 X:78 Y:62 P:A5 SP:F
E2E4  DD 00 06  CMP $0600,X @ 0678 = 80         A:80 X:78 Y:62 P:A5 SP:F
E2E7  20 BF F8  JSR $F8BF                       A:80 X:78 Y:62 P:27 SP:F
F8BF  D0 05     BNE $F8C6                       A:80 X:78 Y:62 P:27 SP:F
F8C1  30 03     BMI $F8C6                       A:80 X:78 Y:62 P:27 SP:F
F8C3  90 01     BCC $F8C6                       A:80 X:78 Y:62 P:27 SP:F
F8C5  60        RTS                             A:80 X:78 Y:62 P:27 SP:F
E2EA  C8        INY                             A:80 X:78 Y:62 P:27 SP:F
E2EB  48        PHA                             A:80 X:78 Y:63 P:25 SP:F
E2EC  A9 81     LDA #$81                        A:80 X:78 Y:63 P:25 SP:F
E2EE  8D 78 06  STA $0678 = 80                  A:81 X:78 Y:63 P:A5 SP:F
E2F1  68        PLA                             A:81 X:78 Y:63 P:A5 SP:F
E2F2  DD 00 06  CMP $0600,X @ 0678 = 81         A:80 X:78 Y:63 P:A5 SP:F
E2F5  20 C9 F8  JSR $F8C9                       A:80 X:78 Y:63 P:A4 SP:F
F8C9  B0 05     BCS $F8D0                       A:80 X:78 Y:63 P:A4 SP:F
F8CB  F0 03     BEQ $F8D0                       A:80 X:78 Y:63 P:A4 SP:F
F8CD  10 01     BPL $F8D0                       A:80 X:78 Y:63 P:A4 SP:F
F8CF  60        RTS                             A:80 X:78 Y:63 P:A4 SP:F
E2F8  C8        INY                             A:80 X:78 Y:63 P:A4 SP:F
E2F9  48        PHA                             A:80 X:78 Y:64 P:24 SP:F
E2FA  A9 7F     LDA #$7F                        A:80 X:78 Y:64 P:24 SP:F
E2FC  8D 78 06  STA $0678 = 81                  A:7F X:78 Y:64 P:24 SP:F
E2FF  68        PLA                             A:7F X:78 Y:64 P:24 SP:F
E300  DD 00 06  CMP $0600,X @ 0678 = 7F         A:80 X:78 Y:64 P:A4 SP:F
E303  20 D3 F8  JSR $F8D3                       A:80 X:78 Y:64 P:25 SP:F
F8D3  90 05     BCC $F8DA                       A:80 X:78 Y:64 P:25 SP:F
F8D5  F0 03     BEQ $F8DA                       A:80 X:78 Y:64 P:25 SP:F
F8D7  30 01     BMI $F8DA                       A:80 X:78 Y:64 P:25 SP:F
F8D9  60        RTS                             A:80 X:78 Y:64 P:25 SP:F
E306  C8        INY                             A:80 X:78 Y:64 P:25 SP:F
E307  A9 40     LDA #$40                        A:80 X:78 Y:65 P:25 SP:F
E309  8D 78 06  STA $0678 = 7F                  A:40 X:78 Y:65 P:25 SP:F
E30C  20 31 F9  JSR $F931                       A:40 X:78 Y:65 P:25 SP:F
F931  24 01     BIT $01 = FF                    A:40 X:78 Y:65 P:25 SP:F
F933  A9 40     LDA #$40                        A:40 X:78 Y:65 P:E5 SP:F
F935  38        SEC                             A:40 X:78 Y:65 P:65 SP:F
F936  60        RTS                             A:40 X:78 Y:65 P:65 SP:F
E30F  FD 00 06  SBC $0600,X @ 0678 = 40         A:40 X:78 Y:65 P:65 SP:F
E312  20 37 F9  JSR $F937                       A:00 X:78 Y:65 P:27 SP:F
F937  30 0B     BMI $F944                       A:00 X:78 Y:65 P:27 SP:F
F939  90 09     BCC $F944                       A:00 X:78 Y:65 P:27 SP:F
F93B  D0 07     BNE $F944                       A:00 X:78 Y:65 P:27 SP:F
F93D  70 05     BVS $F944                       A:00 X:78 Y:65 P:27 SP:F
F93F  C9 00     CMP #$00                        A:00 X:78 Y:65 P:27 SP:F
F941  D0 01     BNE $F944                       A:00 X:78 Y:65 P:27 SP:F
F943  60        RTS                             A:00 X:78 Y:65 P:27 SP:F
E315  C8        INY                             A:00 X:78 Y:65 P:27 SP:F
E316  A9 3F     LDA #$3F                        A:00 X:78 Y:66 P:25 SP:F
E318  8D 78 06  STA $0678 = 40                  A:3F X:78 Y:66 P:25 SP:F
E31B  20 47 F9  JSR $F947                       A:3F X:78 Y:66 P:25 SP:F
F947  B8        CLV                             A:3F X:78 Y:66 P:25 SP:F
F948  38        SEC                             A:3F X:78 Y:66 P:25 SP:F
F949  A9 40     LDA #$40                        A:3F X:78 Y:66 P:25 SP:F
F94B  60        RTS                             A:40 X:78 Y:66 P:25 SP:F
E31E  FD 00 06  SBC $0600,X @ 0678 = 3F         A:40 X:78 Y:66 P:25 SP:F
E321  20 4C F9  JSR $F94C                       A:01 X:78 Y:66 P:25 SP:F
F94C  F0 0B     BEQ $F959                       A:01 X:78 Y:66 P:25 SP:F
F94E  30 09     BMI $F959                       A:01 X:78 Y:66 P:25 SP:F
F950  90 07     BCC $F959                       A:01 X:78 Y:66 P:25 SP:F
F952  70 05     BVS $F959                       A:01 X:78 Y:66 P:25 SP:F
F954  C9 01     CMP #$01                        A:01 X:78 Y:66 P:25 SP:F
F956  D0 01     BNE $F959                       A:01 X:78 Y:66 P:27 SP:F
F958  60        RTS                             A:01 X:78 Y:66 P:27 SP:F
E324  C8        INY                             A:01 X:78 Y:66 P:27 SP:F
E325  A9 41     LDA #$41                        A:01 X:78 Y:67 P:25 SP:F
E327  8D 78 06  STA $0678 = 3F                  A:41 X:78 Y:67 P:25 SP:F
E32A  20 5C F9  JSR $F95C                       A:41 X:78 Y:67 P:25 SP:F
F95C  A9 40     LDA #$40                        A:41 X:78 Y:67 P:25 SP:F
F95E  38        SEC                             A:40 X:78 Y:67 P:25 SP:F
F95F  24 01     BIT $01 = FF                    A:40 X:78 Y:67 P:25 SP:F
F961  60        RTS                             A:40 X:78 Y:67 P:E5 SP:F
E32D  FD 00 06  SBC $0600,X @ 0678 = 41         A:40 X:78 Y:67 P:E5 SP:F
E330  20 62 F9  JSR $F962                       A:FF X:78 Y:67 P:A4 SP:F
F962  B0 0B     BCS $F96F                       A:FF X:78 Y:67 P:A4 SP:F
F964  F0 09     BEQ $F96F                       A:FF X:78 Y:67 P:A4 SP:F
F966  10 07     BPL $F96F                       A:FF X:78 Y:67 P:A4 SP:F
F968  70 05     BVS $F96F                       A:FF X:78 Y:67 P:A4 SP:F
F96A  C9 FF     CMP #$FF                        A:FF X:78 Y:67 P:A4 SP:F
F96C  D0 01     BNE $F96F                       A:FF X:78 Y:67 P:27 SP:F
F96E  60        RTS                             A:FF X:78 Y:67 P:27 SP:F
E333  C8        INY                             A:FF X:78 Y:67 P:27 SP:F
E334  A9 00     LDA #$00                        A:FF X:78 Y:68 P:25 SP:F
E336  8D 78 06  STA $0678 = 41                  A:00 X:78 Y:68 P:27 SP:F
E339  20 72 F9  JSR $F972                       A:00 X:78 Y:68 P:27 SP:F
F972  18        CLC                             A:00 X:78 Y:68 P:27 SP:F
F973  A9 80     LDA #$80                        A:00 X:78 Y:68 P:26 SP:F
F975  60        RTS                             A:80 X:78 Y:68 P:A4 SP:F
E33C  FD 00 06  SBC $0600,X @ 0678 = 00         A:80 X:78 Y:68 P:A4 SP:F
E33F  20 76 F9  JSR $F976                       A:7F X:78 Y:68 P:65 SP:F
F976  90 05     BCC $F97D                       A:7F X:78 Y:68 P:65 SP:F
F978  C9 7F     CMP #$7F                        A:7F X:78 Y:68 P:65 SP:F
F97A  D0 01     BNE $F97D                       A:7F X:78 Y:68 P:67 SP:F
F97C  60        RTS                             A:7F X:78 Y:68 P:67 SP:F
E342  C8        INY                             A:7F X:78 Y:68 P:67 SP:F
E343  A9 7F     LDA #$7F                        A:7F X:78 Y:69 P:65 SP:F
E345  8D 78 06  STA $0678 = 00                  A:7F X:78 Y:69 P:65 SP:F
E348  20 80 F9  JSR $F980                       A:7F X:78 Y:69 P:65 SP:F
F980  38        SEC                             A:7F X:78 Y:69 P:65 SP:F
F981  A9 81     LDA #$81                        A:7F X:78 Y:69 P:65 SP:F
F983  60        RTS                             A:81 X:78 Y:69 P:E5 SP:F
E34B  FD 00 06  SBC $0600,X @ 0678 = 7F         A:81 X:78 Y:69 P:E5 SP:F
E34E  20 84 F9  JSR $F984                       A:02 X:78 Y:69 P:65 SP:F
F984  50 07     BVC $F98D                       A:02 X:78 Y:69 P:65 SP:F
F986  90 05     BCC $F98D                       A:02 X:78 Y:69 P:65 SP:F
F988  C9 02     CMP #$02                        A:02 X:78 Y:69 P:65 SP:F
F98A  D0 01     BNE $F98D                       A:02 X:78 Y:69 P:67 SP:F
F98C  60        RTS                             A:02 X:78 Y:69 P:67 SP:F
E351  A9 AA     LDA #$AA                        A:02 X:78 Y:69 P:67 SP:F
E353  8D 33 06  STA $0633 = AA                  A:AA X:78 Y:69 P:E5 SP:F
E356  A9 BB     LDA #$BB                        A:AA X:78 Y:69 P:E5 SP:F
E358  8D 89 06  STA $0689 = BB                  A:BB X:78 Y:69 P:E5 SP:F
E35B  A2 00     LDX #$00                        A:BB X:78 Y:69 P:E5 SP:F
E35D  A0 66     LDY #$66                        A:BB X:00 Y:69 P:67 SP:F
E35F  24 01     BIT $01 = FF                    A:BB X:00 Y:66 P:65 SP:F
E361  38        SEC                             A:BB X:00 Y:66 P:E5 SP:F
E362  A9 00     LDA #$00                        A:BB X:00 Y:66 P:E5 SP:F
E364  BD 33 06  LDA $0633,X @ 0633 = AA         A:00 X:00 Y:66 P:67 SP:F
E367  10 12     BPL $E37B                       A:AA X:00 Y:66 P:E5 SP:F
E369  F0 10     BEQ $E37B                       A:AA X:00 Y:66 P:E5 SP:F
E36B  50 0E     BVC $E37B                       A:AA X:00 Y:66 P:E5 SP:F
E36D  90 0C     BCC $E37B                       A:AA X:00 Y:66 P:E5 SP:F
E36F  C0 66     CPY #$66                        A:AA X:00 Y:66 P:E5 SP:F
E371  D0 08     BNE $E37B                       A:AA X:00 Y:66 P:67 SP:F
E373  E0 00     CPX #$00                        A:AA X:00 Y:66 P:67 SP:F
E375  D0 04     BNE $E37B                       A:AA X:00 Y:66 P:67 SP:F
E377  C9 AA     CMP #$AA                        A:AA X:00 Y:66 P:67 SP:F
E379  F0 04     BEQ $E37F                       A:AA X:00 Y:66 P:67 SP:F
E37F  A2 8A     LDX #$8A                        A:AA X:00 Y:66 P:67 SP:F
E381  A0 66     LDY #$66                        A:AA X:8A Y:66 P:E5 SP:F
E383  B8        CLV                             A:AA X:8A Y:66 P:65 SP:F
E384  18        CLC                             A:AA X:8A Y:66 P:25 SP:F
E385  A9 00     LDA #$00                        A:AA X:8A Y:66 P:24 SP:F
E387  BD FF 05  LDA $05FF,X @ 0689 = BB         A:00 X:8A Y:66 P:26 SP:F
E38A  10 12     BPL $E39E                       A:BB X:8A Y:66 P:A4 SP:F
E38C  F0 10     BEQ $E39E                       A:BB X:8A Y:66 P:A4 SP:F
E38E  70 0E     BVS $E39E                       A:BB X:8A Y:66 P:A4 SP:F
E390  B0 0C     BCS $E39E                       A:BB X:8A Y:66 P:A4 SP:F
E392  C9 BB     CMP #$BB                        A:BB X:8A Y:66 P:A4 SP:F
E394  D0 08     BNE $E39E                       A:BB X:8A Y:66 P:27 SP:F
E396  C0 66     CPY #$66                        A:BB X:8A Y:66 P:27 SP:F
E398  D0 04     BNE $E39E                       A:BB X:8A Y:66 P:27 SP:F
E39A  E0 8A     CPX #$8A                        A:BB X:8A Y:66 P:27 SP:F
E39C  F0 04     BEQ $E3A2                       A:BB X:8A Y:66 P:27 SP:F
E3A2  24 01     BIT $01 = FF                    A:BB X:8A Y:66 P:27 SP:F
E3A4  38        SEC                             A:BB X:8A Y:66 P:E5 SP:F
E3A5  A9 44     LDA #$44                        A:BB X:8A Y:66 P:E5 SP:F
E3A7  A2 00     LDX #$00                        A:44 X:8A Y:66 P:65 SP:F
E3A9  9D 33 06  STA $0633,X @ 0633 = AA         A:44 X:00 Y:66 P:67 SP:F
E3AC  AD 33 06  LDA $0633 = 44                  A:44 X:00 Y:66 P:67 SP:F
E3AF  90 1A     BCC $E3CB                       A:44 X:00 Y:66 P:65 SP:F
E3B1  C9 44     CMP #$44                        A:44 X:00 Y:66 P:65 SP:F
E3B3  D0 16     BNE $E3CB                       A:44 X:00 Y:66 P:67 SP:F
E3B5  50 14     BVC $E3CB                       A:44 X:00 Y:66 P:67 SP:F
E3B7  18        CLC                             A:44 X:00 Y:66 P:67 SP:F
E3B8  B8        CLV                             A:44 X:00 Y:66 P:66 SP:F
E3B9  A9 99     LDA #$99                        A:44 X:00 Y:66 P:26 SP:F
E3BB  A2 80     LDX #$80                        A:99 X:00 Y:66 P:A4 SP:F
E3BD  9D 85 05  STA $0585,X @ 0605 = 00         A:99 X:80 Y:66 P:A4 SP:F
E3C0  AD 05 06  LDA $0605 = 99                  A:99 X:80 Y:66 P:A4 SP:F
E3C3  B0 06     BCS $E3CB                       A:99 X:80 Y:66 P:A4 SP:F
E3C5  C9 99     CMP #$99                        A:99 X:80 Y:66 P:A4 SP:F
E3C7  D0 02     BNE $E3CB                       A:99 X:80 Y:66 P:27 SP:F
E3C9  50 04     BVC $E3CF                       A:99 X:80 Y:66 P:27 SP:F
E3CF  A0 6D     LDY #$6D                        A:99 X:80 Y:66 P:27 SP:F
E3D1  A2 6D     LDX #$6D                        A:99 X:80 Y:6D P:25 SP:F
E3D3  20 90 F9  JSR $F990                       A:99 X:6D Y:6D P:25 SP:F
F990  A2 55     LDX #$55                        A:99 X:6D Y:6D P:25 SP:F
F992  A9 FF     LDA #$FF                        A:99 X:55 Y:6D P:25 SP:F
F994  85 01     STA $01 = FF                    A:FF X:55 Y:6D P:A5 SP:F
F996  EA        NOP                             A:FF X:55 Y:6D P:A5 SP:F
F997  24 01     BIT $01 = FF                    A:FF X:55 Y:6D P:A5 SP:F
F999  38        SEC                             A:FF X:55 Y:6D P:E5 SP:F
F99A  A9 01     LDA #$01                        A:FF X:55 Y:6D P:E5 SP:F
F99C  60        RTS                             A:01 X:55 Y:6D P:65 SP:F
E3D6  9D 00 06  STA $0600,X @ 0655 = 00         A:01 X:55 Y:6D P:65 SP:F
E3D9  5E 00 06  LSR $0600,X @ 0655 = 01         A:01 X:55 Y:6D P:65 SP:F
E3DC  BD 00 06  LDA $0600,X @ 0655 = 00         A:01 X:55 Y:6D P:67 SP:F
E3DF  20 9D F9  JSR $F99D                       A:00 X:55 Y:6D P:67 SP:F
F99D  90 1B     BCC $F9BA                       A:00 X:55 Y:6D P:67 SP:F
F99F  D0 19     BNE $F9BA                       A:00 X:55 Y:6D P:67 SP:F
F9A1  30 17     BMI $F9BA                       A:00 X:55 Y:6D P:67 SP:F
F9A3  50 15     BVC $F9BA                       A:00 X:55 Y:6D P:67 SP:F
F9A5  C9 00     CMP #$00                        A:00 X:55 Y:6D P:67 SP:F
F9A7  D0 11     BNE $F9BA                       A:00 X:55 Y:6D P:67 SP:F
F9A9  B8        CLV                             A:00 X:55 Y:6D P:67 SP:F
F9AA  A9 AA     LDA #$AA                        A:00 X:55 Y:6D P:27 SP:F
F9AC  60        RTS                             A:AA X:55 Y:6D P:A5 SP:F
E3E2  C8        INY                             A:AA X:55 Y:6D P:A5 SP:F
E3E3  9D 00 06  STA $0600,X @ 0655 = 00         A:AA X:55 Y:6E P:25 SP:F
E3E6  5E 00 06  LSR $0600,X @ 0655 = AA         A:AA X:55 Y:6E P:25 SP:F
E3E9  BD 00 06  LDA $0600,X @ 0655 = 55         A:AA X:55 Y:6E P:24 SP:F
E3EC  20 AD F9  JSR $F9AD                       A:55 X:55 Y:6E P:24 SP:F
F9AD  B0 0B     BCS $F9BA                       A:55 X:55 Y:6E P:24 SP:F
F9AF  F0 09     BEQ $F9BA                       A:55 X:55 Y:6E P:24 SP:F
F9B1  30 07     BMI $F9BA                       A:55 X:55 Y:6E P:24 SP:F
F9B3  70 05     BVS $F9BA                       A:55 X:55 Y:6E P:24 SP:F
F9B5  C9 55     CMP #$55                        A:55 X:55 Y:6E P:24 SP:F
F9B7  D0 01     BNE $F9BA                       A:55 X:55 Y:6E P:27 SP:F
F9B9  60        RTS                             A:55 X:55 Y:6E P:27 SP:F
E3EF  C8        INY                             A:55 X:55 Y:6E P:27 SP:F
E3F0  20 BD F9  JSR $F9BD                       A:55 X:55 Y:6F P:25 SP:F
F9BD  24 01     BIT $01 = FF                    A:55 X:55 Y:6F P:25 SP:F
F9BF  38        SEC                             A:55 X:55 Y:6F P:E5 SP:F
F9C0  A9 80     LDA #$80                        A:55 X:55 Y:6F P:E5 SP:F
F9C2  60        RTS                             A:80 X:55 Y:6F P:E5 SP:F
E3F3  9D 00 06  STA $0600,X @ 0655 = 55         A:80 X:55 Y:6F P:E5 SP:F
E3F6  1E 00 06  ASL $0600,X @ 0655 = 80         A:80 X:55 Y:6F P:E5 SP:F
E3F9  BD 00 06  LDA $0600,X @ 0655 = 00         A:80 X:55 Y:6F P:67 SP:F
E3FC  20 C3 F9  JSR $F9C3                       A:00 X:55 Y:6F P:67 SP:F
F9C3  90 1C     BCC $F9E1                       A:00 X:55 Y:6F P:67 SP:F
F9C5  D0 1A     BNE $F9E1                       A:00 X:55 Y:6F P:67 SP:F
F9C7  30 18     BMI $F9E1                       A:00 X:55 Y:6F P:67 SP:F
F9C9  50 16     BVC $F9E1                       A:00 X:55 Y:6F P:67 SP:F
F9CB  C9 00     CMP #$00                        A:00 X:55 Y:6F P:67 SP:F
F9CD  D0 12     BNE $F9E1                       A:00 X:55 Y:6F P:67 SP:F
F9CF  B8        CLV                             A:00 X:55 Y:6F P:67 SP:F
F9D0  A9 55     LDA #$55                        A:00 X:55 Y:6F P:27 SP:F
F9D2  38        SEC                             A:55 X:55 Y:6F P:25 SP:F
F9D3  60        RTS                             A:55 X:55 Y:6F P:25 SP:F
E3FF  C8        INY                             A:55 X:55 Y:6F P:25 SP:F
E400  9D 00 06  STA $0600,X @ 0655 = 00         A:55 X:55 Y:70 P:25 SP:F
E403  1E 00 06  ASL $0600,X @ 0655 = 55         A:55 X:55 Y:70 P:25 SP:F
E406  BD 00 06  LDA $0600,X @ 0655 = AA         A:55 X:55 Y:70 P:A4 SP:F
E409  20 D4 F9  JSR $F9D4                       A:AA X:55 Y:70 P:A4 SP:F
F9D4  B0 0B     BCS $F9E1                       A:AA X:55 Y:70 P:A4 SP:F
F9D6  F0 09     BEQ $F9E1                       A:AA X:55 Y:70 P:A4 SP:F
F9D8  10 07     BPL $F9E1                       A:AA X:55 Y:70 P:A4 SP:F
F9DA  70 05     BVS $F9E1                       A:AA X:55 Y:70 P:A4 SP:F
F9DC  C9 AA     CMP #$AA                        A:AA X:55 Y:70 P:A4 SP:F
F9DE  D0 01     BNE $F9E1                       A:AA X:55 Y:70 P:27 SP:F
F9E0  60        RTS                             A:AA X:55 Y:70 P:27 SP:F
E40C  C8        INY                             A:AA X:55 Y:70 P:27 SP:F
E40D  20 E4 F9  JSR $F9E4                       A:AA X:55 Y:71 P:25 SP:F
F9E4  24 01     BIT $01 = FF                    A:AA X:55 Y:71 P:25 SP:F
F9E6  38        SEC                             A:AA X:55 Y:71 P:E5 SP:F
F9E7  A9 01     LDA #$01                        A:AA X:55 Y:71 P:E5 SP:F
F9E9  60        RTS                             A:01 X:55 Y:71 P:65 SP:F
E410  9D 00 06  STA $0600,X @ 0655 = AA         A:01 X:55 Y:71 P:65 SP:F
E413  7E 00 06  ROR $0600,X @ 0655 = 01         A:01 X:55 Y:71 P:65 SP:F
E416  BD 00 06  LDA $0600,X @ 0655 = 80         A:01 X:55 Y:71 P:E5 SP:F
E419  20 EA F9  JSR $F9EA                       A:80 X:55 Y:71 P:E5 SP:F
F9EA  90 1C     BCC $FA08                       A:80 X:55 Y:71 P:E5 SP:F
F9EC  F0 1A     BEQ $FA08                       A:80 X:55 Y:71 P:E5 SP:F
F9EE  10 18     BPL $FA08                       A:80 X:55 Y:71 P:E5 SP:F
F9F0  50 16     BVC $FA08                       A:80 X:55 Y:71 P:E5 SP:F
F9F2  C9 80     CMP #$80                        A:80 X:55 Y:71 P:E5 SP:F
F9F4  D0 12     BNE $FA08                       A:80 X:55 Y:71 P:67 SP:F
F9F6  B8        CLV                             A:80 X:55 Y:71 P:67 SP:F
F9F7  18        CLC                             A:80 X:55 Y:71 P:27 SP:F
F9F8  A9 55     LDA #$55                        A:80 X:55 Y:71 P:26 SP:F
F9FA  60        RTS                             A:55 X:55 Y:71 P:24 SP:F
E41C  C8        INY                             A:55 X:55 Y:71 P:24 SP:F
E41D  9D 00 06  STA $0600,X @ 0655 = 80         A:55 X:55 Y:72 P:24 SP:F
E420  7E 00 06  ROR $0600,X @ 0655 = 55         A:55 X:55 Y:72 P:24 SP:F
E423  BD 00 06  LDA $0600,X @ 0655 = 2A         A:55 X:55 Y:72 P:25 SP:F
E426  20 FB F9  JSR $F9FB                       A:2A X:55 Y:72 P:25 SP:F
F9FB  90 0B     BCC $FA08                       A:2A X:55 Y:72 P:25 SP:F
F9FD  F0 09     BEQ $FA08                       A:2A X:55 Y:72 P:25 SP:F
F9FF  30 07     BMI $FA08                       A:2A X:55 Y:72 P:25 SP:F
FA01  70 05     BVS $FA08                       A:2A X:55 Y:72 P:25 SP:F
FA03  C9 2A     CMP #$2A                        A:2A X:55 Y:72 P:25 SP:F
FA05  D0 01     BNE $FA08                       A:2A X:55 Y:72 P:27 SP:F
FA07  60        RTS                             A:2A X:55 Y:72 P:27 SP:F
E429  C8        INY                             A:2A X:55 Y:72 P:27 SP:F
E42A  20 0A FA  JSR $FA0A                       A:2A X:55 Y:73 P:25 SP:F
FA0A  24 01     BIT $01 = FF                    A:2A X:55 Y:73 P:25 SP:F
FA0C  38        SEC                             A:2A X:55 Y:73 P:E5 SP:F
FA0D  A9 80     LDA #$80                        A:2A X:55 Y:73 P:E5 SP:F
FA0F  60        RTS                             A:80 X:55 Y:73 P:E5 SP:F
E42D  9D 00 06  STA $0600,X @ 0655 = 2A         A:80 X:55 Y:73 P:E5 SP:F
E430  3E 00 06  ROL $0600,X @ 0655 = 80         A:80 X:55 Y:73 P:E5 SP:F
E433  BD 00 06  LDA $0600,X @ 0655 = 01         A:80 X:55 Y:73 P:65 SP:F
E436  20 10 FA  JSR $FA10                       A:01 X:55 Y:73 P:65 SP:F
FA10  90 1C     BCC $FA2E                       A:01 X:55 Y:73 P:65 SP:F
FA12  F0 1A     BEQ $FA2E                       A:01 X:55 Y:73 P:65 SP:F
FA14  30 18     BMI $FA2E                       A:01 X:55 Y:73 P:65 SP:F
FA16  50 16     BVC $FA2E                       A:01 X:55 Y:73 P:65 SP:F
FA18  C9 01     CMP #$01                        A:01 X:55 Y:73 P:65 SP:F
FA1A  D0 12     BNE $FA2E                       A:01 X:55 Y:73 P:67 SP:F
FA1C  B8        CLV                             A:01 X:55 Y:73 P:67 SP:F
FA1D  18        CLC                             A:01 X:55 Y:73 P:27 SP:F
FA1E  A9 55     LDA #$55                        A:01 X:55 Y:73 P:26 SP:F
FA20  60        RTS                             A:55 X:55 Y:73 P:24 SP:F
E439  C8        INY                             A:55 X:55 Y:73 P:24 SP:F
E43A  9D 00 06  STA $0600,X @ 0655 = 01         A:55 X:55 Y:74 P:24 SP:F
E43D  3E 00 06  ROL $0600,X @ 0655 = 55         A:55 X:55 Y:74 P:24 SP:F
E440  BD 00 06  LDA $0600,X @ 0655 = AA         A:55 X:55 Y:74 P:A4 SP:F
E443  20 21 FA  JSR $FA21                       A:AA X:55 Y:74 P:A4 SP:F
FA21  B0 0B     BCS $FA2E                       A:AA X:55 Y:74 P:A4 SP:F
FA23  F0 09     BEQ $FA2E                       A:AA X:55 Y:74 P:A4 SP:F
FA25  10 07     BPL $FA2E                       A:AA X:55 Y:74 P:A4 SP:F
FA27  70 05     BVS $FA2E                       A:AA X:55 Y:74 P:A4 SP:F
FA29  C9 AA     CMP #$AA                        A:AA X:55 Y:74 P:A4 SP:F
FA2B  D0 01     BNE $FA2E                       A:AA X:55 Y:74 P:27 SP:F
FA2D  60        RTS                             A:AA X:55 Y:74 P:27 SP:F
E446  A9 FF     LDA #$FF                        A:AA X:55 Y:74 P:27 SP:F
E448  9D 00 06  STA $0600,X @ 0655 = AA         A:FF X:55 Y:74 P:A5 SP:F
E44B  85 01     STA $01 = FF                    A:FF X:55 Y:74 P:A5 SP:F
E44D  24 01     BIT $01 = FF                    A:FF X:55 Y:74 P:A5 SP:F
E44F  38        SEC                             A:FF X:55 Y:74 P:E5 SP:F
E450  FE 00 06  INC $0600,X @ 0655 = FF         A:FF X:55 Y:74 P:E5 SP:F
E453  D0 0D     BNE $E462                       A:FF X:55 Y:74 P:67 SP:F
E455  30 0B     BMI $E462                       A:FF X:55 Y:74 P:67 SP:F
E457  50 09     BVC $E462                       A:FF X:55 Y:74 P:67 SP:F
E459  90 07     BCC $E462                       A:FF X:55 Y:74 P:67 SP:F
E45B  BD 00 06  LDA $0600,X @ 0655 = 00         A:FF X:55 Y:74 P:67 SP:F
E45E  C9 00     CMP #$00                        A:00 X:55 Y:74 P:67 SP:F
E460  F0 04     BEQ $E466                       A:00 X:55 Y:74 P:67 SP:F
E466  A9 7F     LDA #$7F                        A:00 X:55 Y:74 P:67 SP:F
E468  9D 00 06  STA $0600,X @ 0655 = 00         A:7F X:55 Y:74 P:65 SP:F
E46B  B8        CLV                             A:7F X:55 Y:74 P:65 SP:F
E46C  18        CLC                             A:7F X:55 Y:74 P:25 SP:F
E46D  FE 00 06  INC $0600,X @ 0655 = 7F         A:7F X:55 Y:74 P:24 SP:F
E470  F0 0D     BEQ $E47F                       A:7F X:55 Y:74 P:A4 SP:F
E472  10 0B     BPL $E47F                       A:7F X:55 Y:74 P:A4 SP:F
E474  70 09     BVS $E47F                       A:7F X:55 Y:74 P:A4 SP:F
E476  B0 07     BCS $E47F                       A:7F X:55 Y:74 P:A4 SP:F
E478  BD 00 06  LDA $0600,X @ 0655 = 80         A:7F X:55 Y:74 P:A4 SP:F
E47B  C9 80     CMP #$80                        A:80 X:55 Y:74 P:A4 SP:F
E47D  F0 04     BEQ $E483                       A:80 X:55 Y:74 P:27 SP:F
E483  A9 00     LDA #$00                        A:80 X:55 Y:74 P:27 SP:F
E485  9D 00 06  STA $0600,X @ 0655 = 80         A:00 X:55 Y:74 P:27 SP:F
E488  24 01     BIT $01 = FF                    A:00 X:55 Y:74 P:27 SP:F
E48A  38        SEC                             A:00 X:55 Y:74 P:E7 SP:F
E48B  DE 00 06  DEC $0600,X @ 0655 = 00         A:00 X:55 Y:74 P:E7 SP:F
E48E  F0 0D     BEQ $E49D                       A:00 X:55 Y:74 P:E5 SP:F
E490  10 0B     BPL $E49D                       A:00 X:55 Y:74 P:E5 SP:F
E492  50 09     BVC $E49D                       A:00 X:55 Y:74 P:E5 SP:F
E494  90 07     BCC $E49D                       A:00 X:55 Y:74 P:E5 SP:F
E496  BD 00 06  LDA $0600,X @ 0655 = FF         A:00 X:55 Y:74 P:E5 SP:F
E499  C9 FF     CMP #$FF                        A:FF X:55 Y:74 P:E5 SP:F
E49B  F0 04     BEQ $E4A1                       A:FF X:55 Y:74 P:67 SP:F
E4A1  A9 80     LDA #$80                        A:FF X:55 Y:74 P:67 SP:F
E4A3  9D 00 06  STA $0600,X @ 0655 = FF         A:80 X:55 Y:74 P:E5 SP:F
E4A6  B8        CLV                             A:80 X:55 Y:74 P:E5 SP:F
E4A7  18        CLC                             A:80 X:55 Y:74 P:A5 SP:F
E4A8  DE 00 06  DEC $0600,X @ 0655 = 80         A:80 X:55 Y:74 P:A4 SP:F
E4AB  F0 0D     BEQ $E4BA                       A:80 X:55 Y:74 P:24 SP:F
E4AD  30 0B     BMI $E4BA                       A:80 X:55 Y:74 P:24 SP:F
E4AF  70 09     BVS $E4BA                       A:80 X:55 Y:74 P:24 SP:F
E4B1  B0 07     BCS $E4BA                       A:80 X:55 Y:74 P:24 SP:F
E4B3  BD 00 06  LDA $0600,X @ 0655 = 7F         A:80 X:55 Y:74 P:24 SP:F
E4B6  C9 7F     CMP #$7F                        A:7F X:55 Y:74 P:24 SP:F
E4B8  F0 04     BEQ $E4BE                       A:7F X:55 Y:74 P:27 SP:F
E4BE  A9 01     LDA #$01                        A:7F X:55 Y:74 P:27 SP:F
E4C0  9D 00 06  STA $0600,X @ 0655 = 7F         A:01 X:55 Y:74 P:25 SP:F
E4C3  DE 00 06  DEC $0600,X @ 0655 = 01         A:01 X:55 Y:74 P:25 SP:F
E4C6  F0 04     BEQ $E4CC                       A:01 X:55 Y:74 P:27 SP:F
E4CC  A9 33     LDA #$33                        A:01 X:55 Y:74 P:27 SP:F
E4CE  8D 78 06  STA $0678 = 7F                  A:33 X:55 Y:74 P:25 SP:F
E4D1  A9 44     LDA #$44                        A:33 X:55 Y:74 P:25 SP:F
E4D3  A0 78     LDY #$78                        A:44 X:55 Y:74 P:25 SP:F
E4D5  A2 00     LDX #$00                        A:44 X:55 Y:78 P:25 SP:F
E4D7  38        SEC                             A:44 X:00 Y:78 P:27 SP:F
E4D8  24 01     BIT $01 = FF                    A:44 X:00 Y:78 P:27 SP:F
E4DA  BE 00 06  LDX $0600,Y @ 0678 = 33         A:44 X:00 Y:78 P:E5 SP:F
E4DD  90 12     BCC $E4F1                       A:44 X:33 Y:78 P:65 SP:F
E4DF  50 10     BVC $E4F1                       A:44 X:33 Y:78 P:65 SP:F
E4E1  30 0E     BMI $E4F1                       A:44 X:33 Y:78 P:65 SP:F
E4E3  F0 0C     BEQ $E4F1                       A:44 X:33 Y:78 P:65 SP:F
E4E5  E0 33     CPX #$33                        A:44 X:33 Y:78 P:65 SP:F
E4E7  D0 08     BNE $E4F1                       A:44 X:33 Y:78 P:67 SP:F
E4E9  C0 78     CPY #$78                        A:44 X:33 Y:78 P:67 SP:F
E4EB  D0 04     BNE $E4F1                       A:44 X:33 Y:78 P:67 SP:F
E4ED  C9 44     CMP #$44                        A:44 X:33 Y:78 P:67 SP:F
E4EF  F0 04     BEQ $E4F5                       A:44 X:33 Y:78 P:67 SP:F
E4F5  A9 97     LDA #$97                        A:44 X:33 Y:78 P:67 SP:F
E4F7  8D 7F 06  STA $067F = 00                  A:97 X:33 Y:78 P:E5 SP:F
E4FA  A9 47     LDA #$47                        A:97 X:33 Y:78 P:E5 SP:F
E4FC  A0 FF     LDY #$FF                        A:47 X:33 Y:78 P:65 SP:F
E4FE  A2 00     LDX #$00                        A:47 X:33 Y:FF P:E5 SP:F
E500  18        CLC                             A:47 X:00 Y:FF P:67 SP:F
E501  B8        CLV                             A:47 X:00 Y:FF P:66 SP:F
E502  BE 80 05  LDX $0580,Y @ 067F = 97         A:47 X:00 Y:FF P:26 SP:F
E505  B0 12     BCS $E519                       A:47 X:97 Y:FF P:A4 SP:F
E507  70 10     BVS $E519                       A:47 X:97 Y:FF P:A4 SP:F
E509  10 0E     BPL $E519                       A:47 X:97 Y:FF P:A4 SP:F
E50B  F0 0C     BEQ $E519                       A:47 X:97 Y:FF P:A4 SP:F
E50D  E0 97     CPX #$97                        A:47 X:97 Y:FF P:A4 SP:F
E50F  D0 08     BNE $E519                       A:47 X:97 Y:FF P:27 SP:F
E511  C0 FF     CPY #$FF                        A:47 X:97 Y:FF P:27 SP:F
E513  D0 04     BNE $E519                       A:47 X:97 Y:FF P:27 SP:F
E515  C9 47     CMP #$47                        A:47 X:97 Y:FF P:27 SP:F
E517  F0 04     BEQ $E51D                       A:47 X:97 Y:FF P:27 SP:F
E51D  60        RTS                             A:47 X:97 Y:FF P:27 SP:F
C62F  20 A3 C6  JSR $C6A3                       A:47 X:97 Y:FF P:27 SP:F
C6A3  A0 4E     LDY #$4E                        A:47 X:97 Y:FF P:27 SP:F
C6A5  A9 FF     LDA #$FF                        A:47 X:97 Y:4E P:25 SP:F
C6A7  85 01     STA $01 = FF                    A:FF X:97 Y:4E P:A5 SP:F
C6A9  20 B0 C6  JSR $C6B0                       A:FF X:97 Y:4E P:A5 SP:F
C6B0  A9 FF     LDA #$FF                        A:FF X:97 Y:4E P:A5 SP:F
C6B2  48        PHA                             A:FF X:97 Y:4E P:A5 SP:F
C6B3  A9 AA     LDA #$AA                        A:FF X:97 Y:4E P:A5 SP:F
C6B5  D0 05     BNE $C6BC                       A:AA X:97 Y:4E P:A5 SP:F
C6BC  28        PLP                             A:AA X:97 Y:4E P:A5 SP:F
C6BD  04 A9    *NOP $A9 = 00                    A:AA X:97 Y:4E P:EF SP:F
C6BF  44 A9    *NOP $A9 = 00                    A:AA X:97 Y:4E P:EF SP:F
C6C1  64 A9    *NOP $A9 = 00                    A:AA X:97 Y:4E P:EF SP:F
C6C3  EA        NOP                             A:AA X:97 Y:4E P:EF SP:F
C6C4  EA        NOP                             A:AA X:97 Y:4E P:EF SP:F
C6C5  EA        NOP                             A:AA X:97 Y:4E P:EF SP:F
C6C6  EA        NOP                             A:AA X:97 Y:4E P:EF SP:F
C6C7  08        PHP                             A:AA X:97 Y:4E P:EF SP:F
C6C8  48        PHA                             A:AA X:97 Y:4E P:EF SP:F
C6C9  0C A9 A9 *NOP $A9A9 = A9                  A:AA X:97 Y:4E P:EF SP:F
C6CC  EA        NOP                             A:AA X:97 Y:4E P:EF SP:F
C6CD  EA        NOP                             A:AA X:97 Y:4E P:EF SP:F
C6CE  EA        NOP                             A:AA X:97 Y:4E P:EF SP:F
C6CF  EA        NOP                             A:AA X:97 Y:4E P:EF SP:F
C6D0  08        PHP                             A:AA X:97 Y:4E P:EF SP:F
C6D1  48        PHA                             A:AA X:97 Y:4E P:EF SP:F
C6D2  14 A9    *NOP $A9,X @ 40 = 00             A:AA X:97 Y:4E P:EF SP:F
C6D4  34 A9    *NOP $A9,X @ 40 = 00             A:AA X:97 Y:4E P:EF SP:F
C6D6  54 A9    *NOP $A9,X @ 40 = 00             A:AA X:97 Y:4E P:EF SP:F
C6D8  74 A9    *NOP $A9,X @ 40 = 00             A:AA X:97 Y:4E P:EF SP:F
C6DA  D4 A9    *NOP $A9,X @ 40 = 00             A:AA X:97 Y:4E P:EF SP:F
C6DC  F4 A9    *NOP $A9,X @ 40 = 00             A:AA X:97 Y:4E P:EF SP:F
C6DE  EA        NOP                             A:AA X:97 Y:4E P:EF SP:F
C6DF  EA        NOP                             A:AA X:97 Y:4E P:EF SP:F
C6E0  EA        NOP                             A:AA X:97 Y:4E P:EF SP:F
C6E1  EA        NOP                             A:AA X:97 Y:4E P:EF SP:F
C6E2  08        PHP                             A:AA X:97 Y:4E P:EF SP:F
C6E3  48        PHA                             A:AA X:97 Y:4E P:EF SP:F
C6E4  1A       *NOP                             A:AA X:97 Y:4E P:EF SP:F
C6E5  3A       *NOP                             A:AA X:97 Y:4E P:EF SP:F
C6E6  5A       *NOP                             A:AA X:97 Y:4E P:EF SP:F
C6E7  7A       *NOP                             A:AA X:97 Y:4E P:EF SP:F
C6E8  DA       *NOP                             A:AA X:97 Y:4E P:EF SP:F
C6E9  FA       *NOP                             A:AA X:97 Y:4E P:EF SP:F
C6EA  80 89    *NOP #$89                        A:AA X:97 Y:4E P:EF SP:F
C6EC  EA        NOP                             A:AA X:97 Y:4E P:EF SP:F
C6ED  EA        NOP                             A:AA X:97 Y:4E P:EF SP:F
C6EE  EA        NOP                             A:AA X:97 Y:4E P:EF SP:F
C6EF  EA        NOP                             A:AA X:97 Y:4E P:EF SP:F
C6F0  08        PHP                             A:AA X:97 Y:4E P:EF SP:F
C6F1  48        PHA                             A:AA X:97 Y:4E P:EF SP:F
C6F2  1C A9 A9 *NOP $A9A9,X @ AA40 = 00         A:AA X:97 Y:4E P:EF SP:F
C6F5  3C A9 A9 *NOP $A9A9,X @ AA40 = 00         A:AA X:97 Y:4E P:EF SP:F
C6F8  5C A9 A9 *NOP $A9A9,X @ AA40 = 00         A:AA X:97 Y:4E P:EF SP:F
C6FB  7C A9 A9 *NOP $A9A9,X @ AA40 = 00         A:AA X:97 Y:4E P:EF SP:F
C6FE  DC A9 A9 *NOP $A9A9,X @ AA40 = 00         A:AA X:97 Y:4E P:EF SP:F
C701  FC A9 A9 *NOP $A9A9,X @ AA40 = 00         A:AA X:97 Y:4E P:EF SP:F
C704  EA        NOP                             A:AA X:97 Y:4E P:EF SP:F
C705  EA        NOP                             A:AA X:97 Y:4E P:EF SP:F
C706  EA        NOP                             A:AA X:97 Y:4E P:EF SP:F
C707  EA        NOP                             A:AA X:97 Y:4E P:EF SP:F
C708  08        PHP                             A:AA X:97 Y:4E P:EF SP:F
C709  48        PHA                             A:AA X:97 Y:4E P:EF SP:F
C70A  A2 05     LDX #$05                        A:AA X:97 Y:4E P:EF SP:E
C70C  68        PLA                             A:AA X:05 Y:4E P:6D SP:E
C70D  C9 55     CMP #$55                        A:AA X:05 Y:4E P:ED SP:F
C70F  F0 0A     BEQ $C71B                       A:AA X:05 Y:4E P:6D SP:F
C711  C9 AA     CMP #$AA                        A:AA X:05 Y:4E P:6D SP:F
C713  F0 06     BEQ $C71B                       A:AA X:05 Y:4E P:6F SP:F
C71B  68        PLA                             A:AA X:05 Y:4E P:6F SP:F
C71C  29 CB     AND #$CB                        A:FF X:05 Y:4E P:ED SP:F
C71E  C9 00     CMP #$00                        A:CB X:05 Y:4E P:ED SP:F
C720  F0 06     BEQ $C728                       A:CB X:05 Y:4E P:ED SP:F
C722  C9 CB     CMP #$CB                        A:CB X:05 Y:4E P:ED SP:F
C724  F0 02     BEQ $C728                       A:CB X:05 Y:4E P:6F SP:F
C728  C8        INY                             A:CB X:05 Y:4E P:6F SP:F
C729  CA        DEX                             A:CB X:05 Y:4F P:6D SP:F
C72A  D0 E0     BNE $C70C                       A:CB X:04 Y:4F P:6D SP:F
C70C  68        PLA                             A:CB X:04 Y:4F P:6D SP:F
C70D  C9 55     CMP #$55                        A:AA X:04 Y:4F P:ED SP:F
C70F  F0 0A     BEQ $C71B                       A:AA X:04 Y:4F P:6D SP:F
C711  C9 AA     CMP #$AA                        A:AA X:04 Y:4F P:6D SP:F
C713  F0 06     BEQ $C71B                       A:AA X:04 Y:4F P:6F SP:F
C71B  68        PLA                             A:AA X:04 Y:4F P:6F SP:F
C71C  29 CB     AND #$CB                        A:FF X:04 Y:4F P:ED SP:F
C71E  C9 00     CMP #$00                        A:CB X:04 Y:4F P:ED SP:F
C720  F0 06     BEQ $C728                       A:CB X:04 Y:4F P:ED SP:F
C722  C9 CB     CMP #$CB                        A:CB X:04 Y:4F P:ED SP:F
C724  F0 02     BEQ $C728                       A:CB X:04 Y:4F P:6F SP:F
C728  C8        INY                             A:CB X:04 Y:4F P:6F SP:F
C729  CA        DEX                             A:CB X:04 Y:50 P:6D SP:F
C72A  D0 E0     BNE $C70C                       A:CB X:03 Y:50 P:6D SP:F
C70C  68        PLA                             A:CB X:03 Y:50 P:6D SP:F
C70D  C9 55     CMP #$55                        A:AA X:03 Y:50 P:ED SP:F
C70F  F0 0A     BEQ $C71B                       A:AA X:03 Y:50 P:6D SP:F
C711  C9 AA     CMP #$AA                        A:AA X:03 Y:50 P:6D SP:F
C713  F0 06     BEQ $C71B                       A:AA X:03 Y:50 P:6F SP:F
C71B  68        PLA                             A:AA X:03 Y:50 P:6F SP:F
C71C  29 CB     AND #$CB                        A:FF X:03 Y:50 P:ED SP:F
C71E  C9 00     CMP #$00                        A:CB X:03 Y:50 P:ED SP:F
C720  F0 06     BEQ $C728                       A:CB X:03 Y:50 P:ED SP:F
C722  C9 CB     CMP #$CB                        A:CB X:03 Y:50 P:ED SP:F
C724  F0 02     BEQ $C728                       A:CB X:03 Y:50 P:6F SP:F
C728  C8        INY                             A:CB X:03 Y:50 P:6F SP:F
C729  CA        DEX                             A:CB X:03 Y:51 P:6D SP:F
C72A  D0 E0     BNE $C70C                       A:CB X:02 Y:51 P:6D SP:F
C70C  68        PLA                             A:CB X:02 Y:51 P:6D SP:F
C70D  C9 55     CMP #$55                        A:AA X:02 Y:51 P:ED SP:F
C70F  F0 0A     BEQ $C71B                       A:AA X:02 Y:51 P:6D SP:F
C711  C9 AA     CMP #$AA                        A:AA X:02 Y:51 P:6D SP:F
C713  F0 06     BEQ $C71B                       A:AA X:02 Y:51 P:6F SP:F
C71B  68        PLA                             A:AA X:02 Y:51 P:6F SP:F
C71C  29 CB     AND #$CB                        A:FF X:02 Y:51 P:ED SP:F
C71E  C9 00     CMP #$00                        A:CB X:02 Y:51 P:ED SP:F
C720  F0 06     BEQ $C728                       A:CB X:02 Y:51 P:ED SP:F
C722  C9 CB     CMP #$CB                        A:CB X:02 Y:51 P:ED SP:F
C724  F0 02     BEQ $C728                       A:CB X:02 Y:51 P:6F SP:F
C728  C8        INY                             A:CB X:02 Y:51 P:6F SP:F
C729  CA        DEX                             A:CB X:02 Y:52 P:6D SP:F
C72A  D0 E0     BNE $C70C                       A:CB X:01 Y:52 P:6D SP:F
C70C  68        PLA                             A:CB X:01 Y:52 P:6D SP:F
C70D  C9 55     CMP #$55                        A:AA X:01 Y:52 P:ED SP:F
C70F  F0 0A     BEQ $C71B                       A:AA X:01 Y:52 P:6D SP:F
C711  C9 AA     CMP #$AA                        A:AA X:01 Y:52 P:6D SP:F
C713  F0 06     BEQ $C71B                       A:AA X:01 Y:52 P:6F SP:F
C71B  68        PLA                             A:AA X:01 Y:52 P:6F SP:F
C71C  29 CB     AND #$CB                        A:FF X:01 Y:52 P:ED SP:F
C71E  C9 00     CMP #$00                        A:CB X:01 Y:52 P:ED SP:F
C720  F0 06     BEQ $C728                       A:CB X:01 Y:52 P:ED SP:F
C722  C9 CB     CMP #$CB                        A:CB X:01 Y:52 P:ED SP:F
C724  F0 02     BEQ $C728                       A:CB X:01 Y:52 P:6F SP:F
C728  C8        INY                             A:CB X:01 Y:52 P:6F SP:F
C729  CA        DEX                             A:CB X:01 Y:53 P:6D SP:F
C72A  D0 E0     BNE $C70C                       A:CB X:00 Y:53 P:6F SP:F
C72C  60        RTS                             A:CB X:00 Y:53 P:6F SP:F
C6AC  20 B7 C6  JSR $C6B7                       A:CB X:00 Y:53 P:6F SP:F
C6B7  A9 34     LDA #$34                        A:CB X:00 Y:53 P:6F SP:F
C6B9  48        PHA                             A:34 X:00 Y:53 P:6D SP:F
C6BA  A9 55     LDA #$55                        A:34 X:00 Y:53 P:6D SP:F
C6BC  28        PLP                             A:55 X:00 Y:53 P:6D SP:F
C6BD  04 A9    *NOP $A9 = 00                    A:55 X:00 Y:53 P:24 SP:F
C6BF  44 A9    *NOP $A9 = 00                    A:55 X:00 Y:53 P:24 SP:F
C6C1  64 A9    *NOP $A9 = 00                    A:55 X:00 Y:53 P:24 SP:F
C6C3  EA        NOP                             A:55 X:00 Y:53 P:24 SP:F
C6C4  EA        NOP                             A:55 X:00 Y:53 P:24 SP:F
C6C5  EA        NOP                             A:55 X:00 Y:53 P:24 SP:F
C6C6  EA        NOP                             A:55 X:00 Y:53 P:24 SP:F
C6C7  08        PHP                             A:55 X:00 Y:53 P:24 SP:F
C6C8  48        PHA                             A:55 X:00 Y:53 P:24 SP:F
C6C9  0C A9 A9 *NOP $A9A9 = A9                  A:55 X:00 Y:53 P:24 SP:F
C6CC  EA        NOP                             A:55 X:00 Y:53 P:24 SP:F
C6CD  EA        NOP                             A:55 X:00 Y:53 P:24 SP:F
C6CE  EA        NOP                             A:55 X:00 Y:53 P:24 SP:F
C6CF  EA        NOP                             A:55 X:00 Y:53 P:24 SP:F
C6D0  08        PHP                             A:55 X:00 Y:53 P:24 SP:F
C6D1  48        PHA                             A:55 X:00 Y:53 P:24 SP:F
C6D2  14 A9    *NOP $A9,X @ A9 = 00             A:55 X:00 Y:53 P:24 SP:F
C6D4  34 A9    *NOP $A9,X @ A9 = 00             A:55 X:00 Y:53 P:24 SP:F
C6D6  54 A9    *NOP $A9,X @ A9 = 00             A:55 X:00 Y:53 P:24 SP:F
C6D8  74 A9    *NOP $A9,X @ A9 = 00             A:55 X:00 Y:53 P:24 SP:F
C6DA  D4 A9    *NOP $A9,X @ A9 = 00             A:55 X:00 Y:53 P:24 SP:F
C6DC  F4 A9    *NOP $A9,X @ A9 = 00             A:55 X:00 Y:53 P:24 SP:F
C6DE  EA        NOP                             A:55 X:00 Y:53 P:24 SP:F
C6DF  EA        NOP                             A:55 X:00 Y:53 P:24 SP:F
C6E0  EA        NOP                             A:55 X:00 Y:53 P:24 SP:F
C6E1  EA        NOP                             A:55 X:00 Y:53 P:24 SP:F
C6E2  08        PHP                             A:55 X:00 Y:53 P:24 SP:F
C6E3  48        PHA                             A:55 X:00 Y:53 P:24 SP:F
C6E4  1A       *NOP                             A:55 X:00 Y:53 P:24 SP:F
C6E5  3A       *NOP                             A:55 X:00 Y:53 P:24 SP:F
C6E6  5A       *NOP                             A:55 X:00 Y:53 P:24 SP:F
C6E7  7A       *NOP                             A:55 X:00 Y:53 P:24 SP:F
C6E8  DA       *NOP                             A:55 X:00 Y:53 P:24 SP:F
C6E9  FA       *NOP                             A:55 X:00 Y:53 P:24 SP:F
C6EA  80 89    *NOP #$89                        A:55 X:00 Y:53 P:24 SP:F
C6EC  EA        NOP                             A:55 X:00 Y:53 P:24 SP:F
C6ED  EA        NOP                             A:55 X:00 Y:53 P:24 SP:F
C6EE  EA        NOP                             A:55 X:00 Y:53 P:24 SP:F
C6EF  EA        NOP                             A:55 X:00 Y:53 P:24 SP:F
C6F0  08        PHP                             A:55 X:00 Y:53 P:24 SP:F
C6F1  48        PHA                             A:55 X:00 Y:53 P:24 SP:F
C6F2  1C A9 A9 *NOP $A9A9,X @ A9A9 = A9         A:55 X:00 Y:53 P:24 SP:F
C6F5  3C A9 A9 *NOP $A9A9,X @ A9A9 = A9         A:55 X:00 Y:53 P:24 SP:F
C6F8  5C A9 A9 *NOP $A9A9,X @ A9A9 = A9         A:55 X:00 Y:53 P:24 SP:F
C6FB  7C A9 A9 *NOP $A9A9,X @ A9A9 = A9         A:55 X:00 Y:53 P:24 SP:F
C6FE  DC A9 A9 *NOP $A9A9,X @ A9A9 = A9         A:55 X:00 Y:53 P:24 SP:F
C701  FC A9 A9 *NOP $A9A9,X @ A9A9 = A9         A:55 X:00 Y:53 P:24 SP:F
C704  EA        NOP                             A:55 X:00 Y:53 P:24 SP:F
C705  EA        NOP                             A:55 X:00 Y:53 P:24 SP:F
C706  EA        NOP                             A:55 X:00 Y:53 P:24 SP:F
C707  EA        NOP                             A:55 X:00 Y:53 P:24 SP:F
C708  08        PHP                             A:55 X:00 Y:53 P:24 SP:F
C709  48        PHA                             A:55 X:00 Y:53 P:24 SP:F
C70A  A2 05     LDX #$05                        A:55 X:00 Y:53 P:24 SP:E
C70C  68        PLA                             A:55 X:05 Y:53 P:24 SP:E
C70D  C9 55     CMP #$55                        A:55 X:05 Y:53 P:24 SP:F
C70F  F0 0A     BEQ $C71B                       A:55 X:05 Y:53 P:27 SP:F
C71B  68        PLA                             A:55 X:05 Y:53 P:27 SP:F
C71C  29 CB     AND #$CB                        A:34 X:05 Y:53 P:25 SP:F
C71E  C9 00     CMP #$00                        A:00 X:05 Y:53 P:27 SP:F
C720  F0 06     BEQ $C728                       A:00 X:05 Y:53 P:27 SP:F
C728  C8        INY                             A:00 X:05 Y:53 P:27 SP:F
C729  CA        DEX                             A:00 X:05 Y:54 P:25 SP:F
C72A  D0 E0     BNE $C70C                       A:00 X:04 Y:54 P:25 SP:F
C70C  68        PLA                             A:00 X:04 Y:54 P:25 SP:F
C70D  C9 55     CMP #$55                        A:55 X:04 Y:54 P:25 SP:F
C70F  F0 0A     BEQ $C71B                       A:55 X:04 Y:54 P:27 SP:F
C71B  68        PLA                             A:55 X:04 Y:54 P:27 SP:F
C71C  29 CB     AND #$CB                        A:34 X:04 Y:54 P:25 SP:F
C71E  C9 00     CMP #$00                        A:00 X:04 Y:54 P:27 SP:F
C720  F0 06     BEQ $C728                       A:00 X:04 Y:54 P:27 SP:F
C728  C8        INY                             A:00 X:04 Y:54 P:27 SP:F
C729  CA        DEX                             A:00 X:04 Y:55 P:25 SP:F
C72A  D0 E0     BNE $C70C                       A:00 X:03 Y:55 P:25 SP:F
C70C  68        PLA                             A:00 X:03 Y:55 P:25 SP:F
C70D  C9 55     CMP #$55                        A:55 X:03 Y:55 P:25 SP:F
C70F  F0 0A     BEQ $C71B                       A:55 X:03 Y:55 P:27 SP:F
C71B  68        PLA                             A:55 X:03 Y:55 P:27 SP:F
C71C  29 CB     AND #$CB                        A:34 X:03 Y:55 P:25 SP:F
C71E  C9 00     CMP #$00                        A:00 X:03 Y:55 P:27 SP:F
C720  F0 06     BEQ $C728                       A:00 X:03 Y:55 P:27 SP:F
C728  C8        INY                             A:00 X:03 Y:55 P:27 SP:F
C729  CA        DEX                             A:00 X:03 Y:56 P:25 SP:F
C72A  D0 E0     BNE $C70C                       A:00 X:02 Y:56 P:25 SP:F
C70C  68        PLA                             A:00 X:02 Y:56 P:25 SP:F
C70D  C9 55     CMP #$55                        A:55 X:02 Y:56 P:25 SP:F
C70F  F0 0A     BEQ $C71B                       A:55 X:02 Y:56 P:27 SP:F
C71B  68        PLA                             A:55 X:02 Y:56 P:27 SP:F
C71C  29 CB     AND #$CB                        A:34 X:02 Y:56 P:25 SP:F
C71E  C9 00     CMP #$00                        A:00 X:02 Y:56 P:27 SP:F
C720  F0 06     BEQ $C728                       A:00 X:02 Y:56 P:27 SP:F
C728  C8        INY                             A:00 X:02 Y:56 P:27 SP:F
C729  CA        DEX                             A:00 X:02 Y:57 P:25 SP:F
C72A  D0 E0     BNE $C70C                       A:00 X:01 Y:57 P:25 SP:F
C70C  68        PLA                             A:00 X:01 Y:57 P:25 SP:F
C70D  C9 55     CMP #$55                        A:55 X:01 Y:57 P:25 SP:F
C70F  F0 0A     BEQ $C71B                       A:55 X:01 Y:57 P:27 SP:F
C71B  68        PLA                             A:55 X:01 Y:57 P:27 SP:F
C71C  29 CB     AND #$CB                        A:34 X:01 Y:57 P:25 SP:F
C71E  C9 00     CMP #$00                        A:00 X:01 Y:57 P:27 SP:F
C720  F0 06     BEQ $C728                       A:00 X:01 Y:57 P:27 SP:F
C728  C8        INY                             A:00 X:01 Y:57 P:27 SP:F
C729  CA        DEX                             A:00 X:01 Y:58 P:25 SP:F
C72A  D0 E0     BNE $C70C                       A:00 X:00 Y:58 P:27 SP:F
C72C  60        RTS                             A:00 X:00 Y:58 P:27 SP:F
C6AF  60        RTS                             A:00 X:00 Y:58 P:27 SP:F
C632  20 1E E5  JSR $E51E                       A:00 X:00 Y:58 P:27 SP:F
E51E  A9 55     LDA #$55                        A:00 X:00 Y:58 P:27 SP:F
E520  8D 80 05  STA $0580 = 00                  A:55 X:00 Y:58 P:25 SP:F
E523  A9 AA     LDA #$AA                        A:55 X:00 Y:58 P:25 SP:F
E525  8D 32 04  STA $0432 = 00                  A:AA X:00 Y:58 P:A5 SP:F
E528  A9 80     LDA #$80                        A:AA X:00 Y:58 P:A5 SP:F
E52A  85 43     STA $43 = 00                    A:80 X:00 Y:58 P:A5 SP:F
E52C  A9 05     LDA #$05                        A:80 X:00 Y:58 P:A5 SP:F
E52E  85 44     STA $44 = 00                    A:05 X:00 Y:58 P:25 SP:F
E530  A9 32     LDA #$32                        A:05 X:00 Y:58 P:25 SP:F
E532  85 45     STA $45 = 00                    A:32 X:00 Y:58 P:25 SP:F
E534  A9 04     LDA #$04                        A:32 X:00 Y:58 P:25 SP:F
E536  85 46     STA $46 = 00                    A:04 X:00 Y:58 P:25 SP:F
E538  A2 03     LDX #$03                        A:04 X:00 Y:58 P:25 SP:F
E53A  A0 77     LDY #$77                        A:04 X:03 Y:58 P:25 SP:F
E53C  A9 FF     LDA #$FF                        A:04 X:03 Y:77 P:25 SP:F
E53E  85 01     STA $01 = FF                    A:FF X:03 Y:77 P:A5 SP:F
E540  24 01     BIT $01 = FF                    A:FF X:03 Y:77 P:A5 SP:F
E542  38        SEC                             A:FF X:03 Y:77 P:E5 SP:F
E543  A9 00     LDA #$00                        A:FF X:03 Y:77 P:E5 SP:F
E545  A3 40    *LAX ($40,X) @ 43 = 0580 = 55    A:00 X:03 Y:77 P:67 SP:F
E547  EA        NOP                             A:55 X:55 Y:77 P:65 SP:F
E548  EA        NOP                             A:55 X:55 Y:77 P:65 SP:F
E549  EA        NOP                             A:55 X:55 Y:77 P:65 SP:F
E54A  EA        NOP                             A:55 X:55 Y:77 P:65 SP:F
E54B  F0 12     BEQ $E55F                       A:55 X:55 Y:77 P:65 SP:F
E54D  30 10     BMI $E55F                       A:55 X:55 Y:77 P:65 SP:F
E54F  50 0E     BVC $E55F                       A:55 X:55 Y:77 P:65 SP:F
E551  90 0C     BCC $E55F                       A:55 X:55 Y:77 P:65 SP:F
E553  C9 55     CMP #$55                        A:55 X:55 Y:77 P:65 SP:F
E555  D0 08     BNE $E55F                       A:55 X:55 Y:77 P:67 SP:F
E557  E0 55     CPX #$55                        A:55 X:55 Y:77 P:67 SP:F
E559  D0 04     BNE $E55F                       A:55 X:55 Y:77 P:67 SP:F
E55B  C0 77     CPY #$77                        A:55 X:55 Y:77 P:67 SP:F
E55D  F0 04     BEQ $E563                       A:55 X:55 Y:77 P:67 SP:F
E563  A2 05     LDX #$05                        A:55 X:55 Y:77 P:67 SP:F
E565  A0 33     LDY #$33                        A:55 X:05 Y:77 P:65 SP:F
E567  B8        CLV                             A:55 X:05 Y:33 P:65 SP:F
E568  18        CLC                             A:55 X:05 Y:33 P:25 SP:F
E569  A9 00     LDA #$00                        A:55 X:05 Y:33 P:24 SP:F
E56B  A3 40    *LAX ($40,X) @ 45 = 0432 = AA    A:00 X:05 Y:33 P:26 SP:F
E56D  EA        NOP                             A:AA X:AA Y:33 P:A4 SP:F
E56E  EA        NOP                             A:AA X:AA Y:33 P:A4 SP:F
E56F  EA        NOP                             A:AA X:AA Y:33 P:A4 SP:F
E570  EA        NOP                             A:AA X:AA Y:33 P:A4 SP:F
E571  F0 12     BEQ $E585                       A:AA X:AA Y:33 P:A4 SP:F
E573  10 10     BPL $E585                       A:AA X:AA Y:33 P:A4 SP:F
E575  70 0E     BVS $E585                       A:AA X:AA Y:33 P:A4 SP:F
E577  B0 0C     BCS $E585                       A:AA X:AA Y:33 P:A4 SP:F
E579  C9 AA     CMP #$AA                        A:AA X:AA Y:33 P:A4 SP:F
E57B  D0 08     BNE $E585                       A:AA X:AA Y:33 P:27 SP:F
E57D  E0 AA     CPX #$AA                        A:AA X:AA Y:33 P:27 SP:F
E57F  D0 04     BNE $E585                       A:AA X:AA Y:33 P:27 SP:F
E581  C0 33     CPY #$33                        A:AA X:AA Y:33 P:27 SP:F
E583  F0 04     BEQ $E589                       A:AA X:AA Y:33 P:27 SP:F
E589  A9 87     LDA #$87                        A:AA X:AA Y:33 P:27 SP:F
E58B  85 67     STA $67 = 00                    A:87 X:AA Y:33 P:A5 SP:F
E58D  A9 32     LDA #$32                        A:87 X:AA Y:33 P:A5 SP:F
E58F  85 68     STA $68 = 00                    A:32 X:AA Y:33 P:25 SP:F
E591  A0 57     LDY #$57                        A:32 X:AA Y:33 P:25 SP:F
E593  24 01     BIT $01 = FF                    A:32 X:AA Y:57 P:25 SP:F
E595  38        SEC                             A:32 X:AA Y:57 P:E5 SP:F
E596  A9 00     LDA #$00                        A:32 X:AA Y:57 P:E5 SP:F
E598  A7 67    *LAX $67 = 87                    A:00 X:AA Y:57 P:67 SP:F
E59A  EA        NOP                             A:87 X:87 Y:57 P:E5 SP:F
E59B  EA        NOP                             A:87 X:87 Y:57 P:E5 SP:F
E59C  EA        NOP                             A:87 X:87 Y:57 P:E5 SP:F
E59D  EA        NOP                             A:87 X:87 Y:57 P:E5 SP:F
E59E  F0 12     BEQ $E5B2                       A:87 X:87 Y:57 P:E5 SP:F
E5A0  10 10     BPL $E5B2                       A:87 X:87 Y:57 P:E5 SP:F
E5A2  50 0E     BVC $E5B2                       A:87 X:87 Y:57 P:E5 SP:F
E5A4  90 0C     BCC $E5B2                       A:87 X:87 Y:57 P:E5 SP:F
E5A6  C9 87     CMP #$87                        A:87 X:87 Y:57 P:E5 SP:F
E5A8  D0 08     BNE $E5B2                       A:87 X:87 Y:57 P:67 SP:F
E5AA  E0 87     CPX #$87                        A:87 X:87 Y:57 P:67 SP:F
E5AC  D0 04     BNE $E5B2                       A:87 X:87 Y:57 P:67 SP:F
E5AE  C0 57     CPY #$57                        A:87 X:87 Y:57 P:67 SP:F
E5B0  F0 04     BEQ $E5B6                       A:87 X:87 Y:57 P:67 SP:F
E5B6  A0 53     LDY #$53                        A:87 X:87 Y:57 P:67 SP:F
E5B8  B8        CLV                             A:87 X:87 Y:53 P:65 SP:F
E5B9  18        CLC                             A:87 X:87 Y:53 P:25 SP:F
E5BA  A9 00     LDA #$00                        A:87 X:87 Y:53 P:24 SP:F
E5BC  A7 68    *LAX $68 = 32                    A:00 X:87 Y:53 P:26 SP:F
E5BE  EA        NOP                             A:32 X:32 Y:53 P:24 SP:F
E5BF  EA        NOP                             A:32 X:32 Y:53 P:24 SP:F
E5C0  EA        NOP                             A:32 X:32 Y:53 P:24 SP:F
E5C1  EA        NOP                             A:32 X:32 Y:53 P:24 SP:F
E5C2  F0 12     BEQ $E5D6                       A:32 X:32 Y:53 P:24 SP:F
E5C4  30 10     BMI $E5D6                       A:32 X:32 Y:53 P:24 SP:F
E5C6  70 0E     BVS $E5D6                       A:32 X:32 Y:53 P:24 SP:F
E5C8  B0 0C     BCS $E5D6                       A:32 X:32 Y:53 P:24 SP:F
E5CA  C9 32     CMP #$32                        A:32 X:32 Y:53 P:24 SP:F
E5CC  D0 08     BNE $E5D6                       A:32 X:32 Y:53 P:27 SP:F
E5CE  E0 32     CPX #$32                        A:32 X:32 Y:53 P:27 SP:F
E5D0  D0 04     BNE $E5D6                       A:32 X:32 Y:53 P:27 SP:F
E5D2  C0 53     CPY #$53                        A:32 X:32 Y:53 P:27 SP:F
E5D4  F0 04     BEQ $E5DA                       A:32 X:32 Y:53 P:27 SP:F
E5DA  A9 87     LDA #$87                        A:32 X:32 Y:53 P:27 SP:F
E5DC  8D 77 05  STA $0577 = 00                  A:87 X:32 Y:53 P:A5 SP:F
E5DF  A9 32     LDA #$32                        A:87 X:32 Y:53 P:A5 SP:F
E5E1  8D 78 05  STA $0578 = 00                  A:32 X:32 Y:53 P:25 SP:F
E5E4  A0 57     LDY #$57                        A:32 X:32 Y:53 P:25 SP:F
E5E6  24 01     BIT $01 = FF                    A:32 X:32 Y:57 P:25 SP:F
E5E8  38        SEC                             A:32 X:32 Y:57 P:E5 SP:F
E5E9  A9 00     LDA #$00                        A:32 X:32 Y:57 P:E5 SP:F
E5EB  AF 77 05 *LAX $0577 = 87                  A:00 X:32 Y:57 P:67 SP:F
E5EE  EA        NOP                             A:87 X:87 Y:57 P:E5 SP:F
E5EF  EA        NOP                             A:87 X:87 Y:57 P:E5 SP:F
E5F0  EA        NOP                             A:87 X:87 Y:57 P:E5 SP:F
E5F1  EA        NOP                             A:87 X:87 Y:57 P:E5 SP:F
E5F2  F0 12     BEQ $E606                       A:87 X:87 Y:57 P:E5 SP:F
E5F4  10 10     BPL $E606                       A:87 X:87 Y:57 P:E5 SP:F
E5F6  50 0E     BVC $E606                       A:87 X:87 Y:57 P:E5 SP:F
E5F8  90 0C     BCC $E606                       A:87 X:87 Y:57 P:E5 SP:F
E5FA  C9 87     CMP #$87                        A:87 X:87 Y:57 P:E5 SP:F
E5FC  D0 08     BNE $E606                       A:87 X:87 Y:57 P:67 SP:F
E5FE  E0 87     CPX #$87                        A:87 X:87 Y:57 P:67 SP:F
E600  D0 04     BNE $E606                       A:87 X:87 Y:57 P:67 SP:F
E602  C0 57     CPY #$57                        A:87 X:87 Y:57 P:67 SP:F
E604  F0 04     BEQ $E60A                       A:87 X:87 Y:57 P:67 SP:F
E60A  A0 53     LDY #$53                        A:87 X:87 Y:57 P:67 SP:F
E60C  B8        CLV                             A:87 X:87 Y:53 P:65 SP:F
E60D  18        CLC                             A:87 X:87 Y:53 P:25 SP:F
E60E  A9 00     LDA #$00                        A:87 X:87 Y:53 P:24 SP:F
E610  AF 78 05 *LAX $0578 = 32                  A:00 X:87 Y:53 P:26 SP:F
E613  EA        NOP                             A:32 X:32 Y:53 P:24 SP:F
E614  EA        NOP                             A:32 X:32 Y:53 P:24 SP:F
E615  EA        NOP                             A:32 X:32 Y:53 P:24 SP:F
E616  EA        NOP                             A:32 X:32 Y:53 P:24 SP:F
E617  F0 12     BEQ $E62B                       A:32 X:32 Y:53 P:24 SP:F
E619  30 10     BMI $E62B                       A:32 X:32 Y:53 P:24 SP:F
E61B  70 0E     BVS $E62B                       A:32 X:32 Y:53 P:24 SP:F
E61D  B0 0C     BCS $E62B                       A:32 X:32 Y:53 P:24 SP:F
E61F  C9 32     CMP #$32                        A:32 X:32 Y:53 P:24 SP:F
E621  D0 08     BNE $E62B                       A:32 X:32 Y:53 P:27 SP:F
E623  E0 32     CPX #$32                        A:32 X:32 Y:53 P:27 SP:F
E625  D0 04     BNE $E62B                       A:32 X:32 Y:53 P:27 SP:F
E627  C0 53     CPY #$53                        A:32 X:32 Y:53 P:27 SP:F
E629  F0 04     BEQ $E62F                       A:32 X:32 Y:53 P:27 SP:F
E62F  A9 FF     LDA #$FF                        A:32 X:32 Y:53 P:27 SP:F
E631  85 43     STA $43 = 80                    A:FF X:32 Y:53 P:A5 SP:F
E633  A9 04     LDA #$04                        A:FF X:32 Y:53 P:A5 SP:F
E635  85 44     STA $44 = 05                    A:04 X:32 Y:53 P:25 SP:F
E637  A9 32     LDA #$32                        A:04 X:32 Y:53 P:25 SP:F
E639  85 45     STA $45 = 32                    A:32 X:32 Y:53 P:25 SP:F
E63B  A9 04     LDA #$04                        A:32 X:32 Y:53 P:25 SP:F
E63D  85 46     STA $46 = 04                    A:04 X:32 Y:53 P:25 SP:F
E63F  A9 55     LDA #$55                        A:04 X:32 Y:53 P:25 SP:F
E641  8D 80 05  STA $0580 = 55                  A:55 X:32 Y:53 P:25 SP:F
E644  A9 AA     LDA #$AA                        A:55 X:32 Y:53 P:25 SP:F
E646  8D 32 04  STA $0432 = AA                  A:AA X:32 Y:53 P:A5 SP:F
E649  A2 03     LDX #$03                        A:AA X:32 Y:53 P:A5 SP:F
E64B  A0 81     LDY #$81                        A:AA X:03 Y:53 P:25 SP:F
E64D  24 01     BIT $01 = FF                    A:AA X:03 Y:81 P:A5 SP:F
E64F  38        SEC                             A:AA X:03 Y:81 P:E5 SP:F
E650  A9 00     LDA #$00                        A:AA X:03 Y:81 P:E5 SP:F
E652  B3 43    *LAX ($43),Y = 04FF @ 0580 = 55  A:00 X:03 Y:81 P:67 SP:F
E654  EA        NOP                             A:55 X:55 Y:81 P:65 SP:F
E655  EA        NOP                             A:55 X:55 Y:81 P:65 SP:F
E656  EA        NOP                             A:55 X:55 Y:81 P:65 SP:F
E657  EA        NOP                             A:55 X:55 Y:81 P:65 SP:F
E658  F0 12     BEQ $E66C                       A:55 X:55 Y:81 P:65 SP:F
E65A  30 10     BMI $E66C                       A:55 X:55 Y:81 P:65 SP:F
E65C  50 0E     BVC $E66C                       A:55 X:55 Y:81 P:65 SP:F
E65E  90 0C     BCC $E66C                       A:55 X:55 Y:81 P:65 SP:F
E660  C9 55     CMP #$55                        A:55 X:55 Y:81 P:65 SP:F
E662  D0 08     BNE $E66C                       A:55 X:55 Y:81 P:67 SP:F
E664  E0 55     CPX #$55                        A:55 X:55 Y:81 P:67 SP:F
E666  D0 04     BNE $E66C                       A:55 X:55 Y:81 P:67 SP:F
E668  C0 81     CPY #$81                        A:55 X:55 Y:81 P:67 SP:F
E66A  F0 04     BEQ $E670                       A:55 X:55 Y:81 P:67 SP:F
E670  A2 05     LDX #$05                        A:55 X:55 Y:81 P:67 SP:F
E672  A0 00     LDY #$00                        A:55 X:05 Y:81 P:65 SP:F
E674  B8        CLV                             A:55 X:05 Y:00 P:67 SP:F
E675  18        CLC                             A:55 X:05 Y:00 P:27 SP:F
E676  A9 00     LDA #$00                        A:55 X:05 Y:00 P:26 SP:F
E678  B3 45    *LAX ($45),Y = 0432 @ 0432 = AA  A:00 X:05 Y:00 P:26 SP:F
E67A  EA        NOP                             A:AA X:AA Y:00 P:A4 SP:F
E67B  EA        NOP                             A:AA X:AA Y:00 P:A4 SP:F
E67C  EA        NOP                             A:AA X:AA Y:00 P:A4 SP:F
E67D  EA        NOP                             A:AA X:AA Y:00 P:A4 SP:F
E67E  F0 12     BEQ $E692                       A:AA X:AA Y:00 P:A4 SP:F
E680  10 10     BPL $E692                       A:AA X:AA Y:00 P:A4 SP:F
E682  70 0E     BVS $E692                       A:AA X:AA Y:00 P:A4 SP:F
E684  B0 0C     BCS $E692                       A:AA X:AA Y:00 P:A4 SP:F
E686  C9 AA     CMP #$AA                        A:AA X:AA Y:00 P:A4 SP:F
E688  D0 08     BNE $E692                       A:AA X:AA Y:00 P:27 SP:F
E68A  E0 AA     CPX #$AA                        A:AA X:AA Y:00 P:27 SP:F
E68C  D0 04     BNE $E692                       A:AA X:AA Y:00 P:27 SP:F
E68E  C0 00     CPY #$00                        A:AA X:AA Y:00 P:27 SP:F
E690  F0 04     BEQ $E696                       A:AA X:AA Y:00 P:27 SP:F
E696  A9 87     LDA #$87                        A:AA X:AA Y:00 P:27 SP:F
E698  85 67     STA $67 = 87                    A:87 X:AA Y:00 P:A5 SP:F
E69A  A9 32     LDA #$32                        A:87 X:AA Y:00 P:A5 SP:F
E69C  85 68     STA $68 = 32                    A:32 X:AA Y:00 P:25 SP:F
E69E  A0 57     LDY #$57                        A:32 X:AA Y:00 P:25 SP:F
E6A0  24 01     BIT $01 = FF                    A:32 X:AA Y:57 P:25 SP:F
E6A2  38        SEC                             A:32 X:AA Y:57 P:E5 SP:F
E6A3  A9 00     LDA #$00                        A:32 X:AA Y:57 P:E5 SP:F
E6A5  B7 10    *LAX $10,Y @ 67 = 87             A:00 X:AA Y:57 P:67 SP:F
E6A7  EA        NOP                             A:87 X:87 Y:57 P:E5 SP:F
E6A8  EA        NOP                             A:87 X:87 Y:57 P:E5 SP:F
E6A9  EA        NOP                             A:87 X:87 Y:57 P:E5 SP:F
E6AA  EA        NOP                             A:87 X:87 Y:57 P:E5 SP:F
E6AB  F0 12     BEQ $E6BF                       A:87 X:87 Y:57 P:E5 SP:F
E6AD  10 10     BPL $E6BF                       A:87 X:87 Y:57 P:E5 SP:F
E6AF  50 0E     BVC $E6BF                       A:87 X:87 Y:57 P:E5 SP:F
E6B1  90 0C     BCC $E6BF                       A:87 X:87 Y:57 P:E5 SP:F
E6B3  C9 87     CMP #$87                        A:87 X:87 Y:57 P:E5 SP:F
E6B5  D0 08     BNE $E6BF                       A:87 X:87 Y:57 P:67 SP:F
E6B7  E0 87     CPX #$87                        A:87 X:87 Y:57 P:67 SP:F
E6B9  D0 04     BNE $E6BF                       A:87 X:87 Y:57 P:67 SP:F
E6BB  C0 57     CPY #$57                        A:87 X:87 Y:57 P:67 SP:F
E6BD  F0 04     BEQ $E6C3                       A:87 X:87 Y:57 P:67 SP:F
E6C3  A0 FF     LDY #$FF                        A:87 X:87 Y:57 P:67 SP:F
E6C5  B8        CLV                             A:87 X:87 Y:FF P:E5 SP:F
E6C6  18        CLC                             A:87 X:87 Y:FF P:A5 SP:F
E6C7  A9 00     LDA #$00                        A:87 X:87 Y:FF P:A4 SP:F
E6C9  B7 69    *LAX $69,Y @ 68 = 32             A:00 X:87 Y:FF P:26 SP:F
E6CB  EA        NOP                             A:32 X:32 Y:FF P:24 SP:F
E6CC  EA        NOP                             A:32 X:32 Y:FF P:24 SP:F
E6CD  EA        NOP                             A:32 X:32 Y:FF P:24 SP:F
E6CE  EA        NOP                             A:32 X:32 Y:FF P:24 SP:F
E6CF  F0 12     BEQ $E6E3                       A:32 X:32 Y:FF P:24 SP:F
E6D1  30 10     BMI $E6E3                       A:32 X:32 Y:FF P:24 SP:F
E6D3  70 0E     BVS $E6E3                       A:32 X:32 Y:FF P:24 SP:F
E6D5  B0 0C     BCS $E6E3                       A:32 X:32 Y:FF P:24 SP:F
E6D7  C9 32     CMP #$32                        A:32 X:32 Y:FF P:24 SP:F
E6D9  D0 08     BNE $E6E3                       A:32 X:32 Y:FF P:27 SP:F
E6DB  E0 32     CPX #$32                        A:32 X:32 Y:FF P:27 SP:F
E6DD  D0 04     BNE $E6E3                       A:32 X:32 Y:FF P:27 SP:F
E6DF  C0 FF     CPY #$FF                        A:32 X:32 Y:FF P:27 SP:F
E6E1  F0 04     BEQ $E6E7                       A:32 X:32 Y:FF P:27 SP:F
E6E7  A9 87     LDA #$87                        A:32 X:32 Y:FF P:27 SP:F
E6E9  8D 87 05  STA $0587 = 00                  A:87 X:32 Y:FF P:A5 SP:F
E6EC  A9 32     LDA #$32                        A:87 X:32 Y:FF P:A5 SP:F
E6EE  8D 88 05  STA $0588 = 00                  A:32 X:32 Y:FF P:25 SP:F
E6F1  A0 30     LDY #$30                        A:32 X:32 Y:FF P:25 SP:F
E6F3  24 01     BIT $01 = FF                    A:32 X:32 Y:30 P:25 SP:F
E6F5  38        SEC                             A:32 X:32 Y:30 P:E5 SP:F
E6F6  A9 00     LDA #$00                        A:32 X:32 Y:30 P:E5 SP:F
E6F8  BF 57 05 *LAX $0557,Y @ 0587 = 87         A:00 X:32 Y:30 P:67 SP:F
E6FB  EA        NOP                             A:87 X:87 Y:30 P:E5 SP:F
E6FC  EA        NOP                             A:87 X:87 Y:30 P:E5 SP:F
E6FD  EA        NOP                             A:87 X:87 Y:30 P:E5 SP:F
E6FE  EA        NOP                             A:87 X:87 Y:30 P:E5 SP:F
E6FF  F0 12     BEQ $E713                       A:87 X:87 Y:30 P:E5 SP:F
E701  10 10     BPL $E713                       A:87 X:87 Y:30 P:E5 SP:F
E703  50 0E     BVC $E713                       A:87 X:87 Y:30 P:E5 SP:F
E705  90 0C     BCC $E713                       A:87 X:87 Y:30 P:E5 SP:F
E707  C9 87     CMP #$87                        A:87 X:87 Y:30 P:E5 SP:F
E709  D0 08     BNE $E713                       A:87 X:87 Y:30 P:67 SP:F
E70B  E0 87     CPX #$87                        A:87 X:87 Y:30 P:67 SP:F
E70D  D0 04     BNE $E713                       A:87 X:87 Y:30 P:67 SP:F
E70F  C0 30     CPY #$30                        A:87 X:87 Y:30 P:67 SP:F
E711  F0 04     BEQ $E717                       A:87 X:87 Y:30 P:67 SP:F
E717  A0 40     LDY #$40                        A:87 X:87 Y:30 P:67 SP:F
E719  B8        CLV                             A:87 X:87 Y:40 P:65 SP:F
E71A  18        CLC                             A:87 X:87 Y:40 P:25 SP:F
E71B  A9 00     LDA #$00                        A:87 X:87 Y:40 P:24 SP:F
E71D  BF 48 05 *LAX $0548,Y @ 0588 = 32         A:00 X:87 Y:40 P:26 SP:F
E720  EA        NOP                             A:32 X:32 Y:40 P:24 SP:F
E721  EA        NOP                             A:32 X:32 Y:40 P:24 SP:F
E722  EA        NOP                             A:32 X:32 Y:40 P:24 SP:F
E723  EA        NOP                             A:32 X:32 Y:40 P:24 SP:F
E724  F0 12     BEQ $E738                       A:32 X:32 Y:40 P:24 SP:F
E726  30 10     BMI $E738                       A:32 X:32 Y:40 P:24 SP:F
E728  70 0E     BVS $E738                       A:32 X:32 Y:40 P:24 SP:F
E72A  B0 0C     BCS $E738                       A:32 X:32 Y:40 P:24 SP:F
E72C  C9 32     CMP #$32                        A:32 X:32 Y:40 P:24 SP:F
E72E  D0 08     BNE $E738                       A:32 X:32 Y:40 P:27 SP:F
E730  E0 32     CPX #$32                        A:32 X:32 Y:40 P:27 SP:F
E732  D0 04     BNE $E738                       A:32 X:32 Y:40 P:27 SP:F
E734  C0 40     CPY #$40                        A:32 X:32 Y:40 P:27 SP:F
E736  F0 04     BEQ $E73C                       A:32 X:32 Y:40 P:27 SP:F
E73C  60        RTS                             A:32 X:32 Y:40 P:27 SP:F
C635  20 3D E7  JSR $E73D                       A:32 X:32 Y:40 P:27 SP:F
E73D  A9 C0     LDA #$C0                        A:32 X:32 Y:40 P:27 SP:F
E73F  85 01     STA $01 = FF                    A:C0 X:32 Y:40 P:A5 SP:F
E741  A9 00     LDA #$00                        A:C0 X:32 Y:40 P:A5 SP:F
E743  8D 89 04  STA $0489 = 00                  A:00 X:32 Y:40 P:27 SP:F
E746  A9 89     LDA #$89                        A:00 X:32 Y:40 P:27 SP:F
E748  85 60     STA $60 = 00                    A:89 X:32 Y:40 P:A5 SP:F
E74A  A9 04     LDA #$04                        A:89 X:32 Y:40 P:A5 SP:F
E74C  85 61     STA $61 = 00                    A:04 X:32 Y:40 P:25 SP:F
E74E  A0 44     LDY #$44                        A:04 X:32 Y:40 P:25 SP:F
E750  A2 17     LDX #$17                        A:04 X:32 Y:44 P:25 SP:F
E752  A9 3E     LDA #$3E                        A:04 X:17 Y:44 P:25 SP:F
E754  24 01     BIT $01 = C0                    A:3E X:17 Y:44 P:25 SP:F
E756  18        CLC                             A:3E X:17 Y:44 P:E7 SP:F
E757  83 49    *SAX ($49,X) @ 60 = 0489 = 00    A:3E X:17 Y:44 P:E6 SP:F
E759  EA        NOP                             A:3E X:17 Y:44 P:E6 SP:F
E75A  EA        NOP                             A:3E X:17 Y:44 P:E6 SP:F
E75B  EA        NOP                             A:3E X:17 Y:44 P:E6 SP:F
E75C  EA        NOP                             A:3E X:17 Y:44 P:E6 SP:F
E75D  D0 19     BNE $E778                       A:3E X:17 Y:44 P:E6 SP:F
E75F  B0 17     BCS $E778                       A:3E X:17 Y:44 P:E6 SP:F
E761  50 15     BVC $E778                       A:3E X:17 Y:44 P:E6 SP:F
E763  10 13     BPL $E778                       A:3E X:17 Y:44 P:E6 SP:F
E765  C9 3E     CMP #$3E                        A:3E X:17 Y:44 P:E6 SP:F
E767  D0 0F     BNE $E778                       A:3E X:17 Y:44 P:67 SP:F
E769  C0 44     CPY #$44                        A:3E X:17 Y:44 P:67 SP:F
E76B  D0 0B     BNE $E778                       A:3E X:17 Y:44 P:67 SP:F
E76D  E0 17     CPX #$17                        A:3E X:17 Y:44 P:67 SP:F
E76F  D0 07     BNE $E778                       A:3E X:17 Y:44 P:67 SP:F
E771  AD 89 04  LDA $0489 = 16                  A:3E X:17 Y:44 P:67 SP:F
E774  C9 16     CMP #$16                        A:16 X:17 Y:44 P:65 SP:F
E776  F0 04     BEQ $E77C                       A:16 X:17 Y:44 P:67 SP:F
E77C  A0 44     LDY #$44                        A:16 X:17 Y:44 P:67 SP:F
E77E  A2 7A     LDX #$7A                        A:16 X:17 Y:44 P:65 SP:F
E780  A9 66     LDA #$66                        A:16 X:7A Y:44 P:65 SP:F
E782  38        SEC                             A:66 X:7A Y:44 P:65 SP:F
E783  B8        CLV                             A:66 X:7A Y:44 P:65 SP:F
E784  83 E6    *SAX ($E6,X) @ 60 = 0489 = 16    A:66 X:7A Y:44 P:25 SP:F
E786  EA        NOP                             A:66 X:7A Y:44 P:25 SP:F
E787  EA        NOP                             A:66 X:7A Y:44 P:25 SP:F
E788  EA        NOP                             A:66 X:7A Y:44 P:25 SP:F
E789  EA        NOP                             A:66 X:7A Y:44 P:25 SP:F
E78A  F0 19     BEQ $E7A5                       A:66 X:7A Y:44 P:25 SP:F
E78C  90 17     BCC $E7A5                       A:66 X:7A Y:44 P:25 SP:F
E78E  70 15     BVS $E7A5                       A:66 X:7A Y:44 P:25 SP:F
E790  30 13     BMI $E7A5                       A:66 X:7A Y:44 P:25 SP:F
E792  C9 66     CMP #$66                        A:66 X:7A Y:44 P:25 SP:F
E794  D0 0F     BNE $E7A5                       A:66 X:7A Y:44 P:27 SP:F
E796  C0 44     CPY #$44                        A:66 X:7A Y:44 P:27 SP:F
E798  D0 0B     BNE $E7A5                       A:66 X:7A Y:44 P:27 SP:F
E79A  E0 7A     CPX #$7A                        A:66 X:7A Y:44 P:27 SP:F
E79C  D0 07     BNE $E7A5                       A:66 X:7A Y:44 P:27 SP:F
E79E  AD 89 04  LDA $0489 = 62                  A:66 X:7A Y:44 P:27 SP:F
E7A1  C9 62     CMP #$62                        A:62 X:7A Y:44 P:25 SP:F
E7A3  F0 04     BEQ $E7A9                       A:62 X:7A Y:44 P:27 SP:F
E7A9  A9 FF     LDA #$FF                        A:62 X:7A Y:44 P:27 SP:F
E7AB  85 49     STA $49 = 00                    A:FF X:7A Y:44 P:A5 SP:F
E7AD  A0 44     LDY #$44                        A:FF X:7A Y:44 P:A5 SP:F
E7AF  A2 AA     LDX #$AA                        A:FF X:7A Y:44 P:25 SP:F
E7B1  A9 55     LDA #$55                        A:FF X:AA Y:44 P:A5 SP:F
E7B3  24 01     BIT $01 = C0                    A:55 X:AA Y:44 P:25 SP:F
E7B5  18        CLC                             A:55 X:AA Y:44 P:E5 SP:F
E7B6  87 49    *SAX $49 = FF                    A:55 X:AA Y:44 P:E4 SP:F
E7B8  EA        NOP                             A:55 X:AA Y:44 P:E4 SP:F
E7B9  EA        NOP                             A:55 X:AA Y:44 P:E4 SP:F
E7BA  EA        NOP                             A:55 X:AA Y:44 P:E4 SP:F
E7BB  EA        NOP                             A:55 X:AA Y:44 P:E4 SP:F
E7BC  F0 18     BEQ $E7D6                       A:55 X:AA Y:44 P:E4 SP:F
E7BE  B0 16     BCS $E7D6                       A:55 X:AA Y:44 P:E4 SP:F
E7C0  50 14     BVC $E7D6                       A:55 X:AA Y:44 P:E4 SP:F
E7C2  10 12     BPL $E7D6                       A:55 X:AA Y:44 P:E4 SP:F
E7C4  C9 55     CMP #$55                        A:55 X:AA Y:44 P:E4 SP:F
E7C6  D0 0E     BNE $E7D6                       A:55 X:AA Y:44 P:67 SP:F
E7C8  C0 44     CPY #$44                        A:55 X:AA Y:44 P:67 SP:F
E7CA  D0 0A     BNE $E7D6                       A:55 X:AA Y:44 P:67 SP:F
E7CC  E0 AA     CPX #$AA                        A:55 X:AA Y:44 P:67 SP:F
E7CE  D0 06     BNE $E7D6                       A:55 X:AA Y:44 P:67 SP:F
E7D0  A5 49     LDA $49 = 00                    A:55 X:AA Y:44 P:67 SP:F
E7D2  C9 00     CMP #$00                        A:00 X:AA Y:44 P:67 SP:F
E7D4  F0 04     BEQ $E7DA                       A:00 X:AA Y:44 P:67 SP:F
E7DA  A9 00     LDA #$00                        A:00 X:AA Y:44 P:67 SP:F
E7DC  85 56     STA $56 = 00                    A:00 X:AA Y:44 P:67 SP:F
E7DE  A0 58     LDY #$58                        A:00 X:AA Y:44 P:67 SP:F
E7E0  A2 EF     LDX #$EF                        A:00 X:AA Y:58 P:65 SP:F
E7E2  A9 66     LDA #$66                        A:00 X:EF Y:58 P:E5 SP:F
E7E4  38        SEC                             A:66 X:EF Y:58 P:65 SP:F
E7E5  B8        CLV                             A:66 X:EF Y:58 P:65 SP:F
E7E6  87 56    *SAX $56 = 00                    A:66 X:EF Y:58 P:25 SP:F
E7E8  EA        NOP                             A:66 X:EF Y:58 P:25 SP:F
E7E9  EA        NOP                             A:66 X:EF Y:58 P:25 SP:F
E7EA  EA        NOP                             A:66 X:EF Y:58 P:25 SP:F
E7EB  EA        NOP                             A:66 X:EF Y:58 P:25 SP:F
E7EC  F0 18     BEQ $E806                       A:66 X:EF Y:58 P:25 SP:F
E7EE  90 16     BCC $E806                       A:66 X:EF Y:58 P:25 SP:F
E7F0  70 14     BVS $E806                       A:66 X:EF Y:58 P:25 SP:F
E7F2  30 12     BMI $E806                       A:66 X:EF Y:58 P:25 SP:F
E7F4  C9 66     CMP #$66                        A:66 X:EF Y:58 P:25 SP:F
E7F6  D0 0E     BNE $E806                       A:66 X:EF Y:58 P:27 SP:F
E7F8  C0 58     CPY #$58                        A:66 X:EF Y:58 P:27 SP:F
E7FA  D0 0A     BNE $E806                       A:66 X:EF Y:58 P:27 SP:F
E7FC  E0 EF     CPX #$EF                        A:66 X:EF Y:58 P:27 SP:F
E7FE  D0 06     BNE $E806                       A:66 X:EF Y:58 P:27 SP:F
E800  A5 56     LDA $56 = 66                    A:66 X:EF Y:58 P:27 SP:F
E802  C9 66     CMP #$66                        A:66 X:EF Y:58 P:25 SP:F
E804  F0 04     BEQ $E80A                       A:66 X:EF Y:58 P:27 SP:F
E80A  A9 FF     LDA #$FF                        A:66 X:EF Y:58 P:27 SP:F
E80C  8D 49 05  STA $0549 = 00                  A:FF X:EF Y:58 P:A5 SP:F
E80F  A0 E5     LDY #$E5                        A:FF X:EF Y:58 P:A5 SP:F
E811  A2 AF     LDX #$AF                        A:FF X:EF Y:E5 P:A5 SP:F
E813  A9 F5     LDA #$F5                        A:FF X:AF Y:E5 P:A5 SP:F
E815  24 01     BIT $01 = C0                    A:F5 X:AF Y:E5 P:A5 SP:F
E817  18        CLC                             A:F5 X:AF Y:E5 P:E5 SP:F
E818  8F 49 05 *SAX $0549 = FF                  A:F5 X:AF Y:E5 P:E4 SP:F
E81B  EA        NOP                             A:F5 X:AF Y:E5 P:E4 SP:F
E81C  EA        NOP                             A:F5 X:AF Y:E5 P:E4 SP:F
E81D  EA        NOP                             A:F5 X:AF Y:E5 P:E4 SP:F
E81E  EA        NOP                             A:F5 X:AF Y:E5 P:E4 SP:F
E81F  F0 19     BEQ $E83A                       A:F5 X:AF Y:E5 P:E4 SP:F
E821  B0 17     BCS $E83A                       A:F5 X:AF Y:E5 P:E4 SP:F
E823  50 15     BVC $E83A                       A:F5 X:AF Y:E5 P:E4 SP:F
E825  10 13     BPL $E83A                       A:F5 X:AF Y:E5 P:E4 SP:F
E827  C9 F5     CMP #$F5                        A:F5 X:AF Y:E5 P:E4 SP:F
E829  D0 0F     BNE $E83A                       A:F5 X:AF Y:E5 P:67 SP:F
E82B  C0 E5     CPY #$E5                        A:F5 X:AF Y:E5 P:67 SP:F
E82D  D0 0B     BNE $E83A                       A:F5 X:AF Y:E5 P:67 SP:F
E82F  E0 AF     CPX #$AF                        A:F5 X:AF Y:E5 P:67 SP:F
E831  D0 07     BNE $E83A                       A:F5 X:AF Y:E5 P:67 SP:F
E833  AD 49 05  LDA $0549 = A5                  A:F5 X:AF Y:E5 P:67 SP:F
E836  C9 A5     CMP #$A5                        A:A5 X:AF Y:E5 P:E5 SP:F
E838  F0 04     BEQ $E83E                       A:A5 X:AF Y:E5 P:67 SP:F
E83E  A9 00     LDA #$00                        A:A5 X:AF Y:E5 P:67 SP:F
E840  8D 56 05  STA $0556 = 00                  A:00 X:AF Y:E5 P:67 SP:F
E843  A0 58     LDY #$58                        A:00 X:AF Y:E5 P:67 SP:F
E845  A2 B3     LDX #$B3                        A:00 X:AF Y:58 P:65 SP:F
E847  A9 97     LDA #$97                        A:00 X:B3 Y:58 P:E5 SP:F
E849  38        SEC                             A:97 X:B3 Y:58 P:E5 SP:F
E84A  B8        CLV                             A:97 X:B3 Y:58 P:E5 SP:F
E84B  8F 56 05 *SAX $0556 = 00                  A:97 X:B3 Y:58 P:A5 SP:F
E84E  EA        NOP                             A:97 X:B3 Y:58 P:A5 SP:F
E84F  EA        NOP                             A:97 X:B3 Y:58 P:A5 SP:F
E850  EA        NOP                             A:97 X:B3 Y:58 P:A5 SP:F
E851  EA        NOP                             A:97 X:B3 Y:58 P:A5 SP:F
E852  F0 19     BEQ $E86D                       A:97 X:B3 Y:58 P:A5 SP:F
E854  90 17     BCC $E86D                       A:97 X:B3 Y:58 P:A5 SP:F
E856  70 15     BVS $E86D                       A:97 X:B3 Y:58 P:A5 SP:F
E858  10 13     BPL $E86D                       A:97 X:B3 Y:58 P:A5 SP:F
E85A  C9 97     CMP #$97                        A:97 X:B3 Y:58 P:A5 SP:F
E85C  D0 0F     BNE $E86D                       A:97 X:B3 Y:58 P:27 SP:F
E85E  C0 58     CPY #$58                        A:97 X:B3 Y:58 P:27 SP:F
E860  D0 0B     BNE $E86D                       A:97 X:B3 Y:58 P:27 SP:F
E862  E0 B3     CPX #$B3                        A:97 X:B3 Y:58 P:27 SP:F
E864  D0 07     BNE $E86D                       A:97 X:B3 Y:58 P:27 SP:F
E866  AD 56 05  LDA $0556 = 93                  A:97 X:B3 Y:58 P:27 SP:F
E869  C9 93     CMP #$93                        A:93 X:B3 Y:58 P:A5 SP:F
E86B  F0 04     BEQ $E871                       A:93 X:B3 Y:58 P:27 SP:F
E871  A9 FF     LDA #$FF                        A:93 X:B3 Y:58 P:27 SP:F
E873  85 49     STA $49 = 00                    A:FF X:B3 Y:58 P:A5 SP:F
E875  A0 FF     LDY #$FF                        A:FF X:B3 Y:58 P:A5 SP:F
E877  A2 AA     LDX #$AA                        A:FF X:B3 Y:FF P:A5 SP:F
E879  A9 55     LDA #$55                        A:FF X:AA Y:FF P:A5 SP:F
E87B  24 01     BIT $01 = C0                    A:55 X:AA Y:FF P:25 SP:F
E87D  18        CLC                             A:55 X:AA Y:FF P:E5 SP:F
E87E  97 4A    *SAX $4A,Y @ 49 = FF             A:55 X:AA Y:FF P:E4 SP:F
E880  EA        NOP                             A:55 X:AA Y:FF P:E4 SP:F
E881  EA        NOP                             A:55 X:AA Y:FF P:E4 SP:F
E882  EA        NOP                             A:55 X:AA Y:FF P:E4 SP:F
E883  EA        NOP                             A:55 X:AA Y:FF P:E4 SP:F
E884  F0 18     BEQ $E89E                       A:55 X:AA Y:FF P:E4 SP:F
E886  B0 16     BCS $E89E                       A:55 X:AA Y:FF P:E4 SP:F
E888  50 14     BVC $E89E                       A:55 X:AA Y:FF P:E4 SP:F
E88A  10 12     BPL $E89E                       A:55 X:AA Y:FF P:E4 SP:F
E88C  C9 55     CMP #$55                        A:55 X:AA Y:FF P:E4 SP:F
E88E  D0 0E     BNE $E89E                       A:55 X:AA Y:FF P:67 SP:F
E890  C0 FF     CPY #$FF                        A:55 X:AA Y:FF P:67 SP:F
E892  D0 0A     BNE $E89E                       A:55 X:AA Y:FF P:67 SP:F
E894  E0 AA     CPX #$AA                        A:55 X:AA Y:FF P:67 SP:F
E896  D0 06     BNE $E89E                       A:55 X:AA Y:FF P:67 SP:F
E898  A5 49     LDA $49 = 00                    A:55 X:AA Y:FF P:67 SP:F
E89A  C9 00     CMP #$00                        A:00 X:AA Y:FF P:67 SP:F
E89C  F0 04     BEQ $E8A2                       A:00 X:AA Y:FF P:67 SP:F
E8A2  A9 00     LDA #$00                        A:00 X:AA Y:FF P:67 SP:F
E8A4  85 56     STA $56 = 66                    A:00 X:AA Y:FF P:67 SP:F
E8A6  A0 06     LDY #$06                        A:00 X:AA Y:FF P:67 SP:F
E8A8  A2 EF     LDX #$EF                        A:00 X:AA Y:06 P:65 SP:F
E8AA  A9 66     LDA #$66                        A:00 X:EF Y:06 P:E5 SP:F
E8AC  38        SEC                             A:66 X:EF Y:06 P:65 SP:F
E8AD  B8        CLV                             A:66 X:EF Y:06 P:65 SP:F
E8AE  97 50    *SAX $50,Y @ 56 = 00             A:66 X:EF Y:06 P:25 SP:F
E8B0  EA        NOP                             A:66 X:EF Y:06 P:25 SP:F
E8B1  EA        NOP                             A:66 X:EF Y:06 P:25 SP:F
E8B2  EA        NOP                             A:66 X:EF Y:06 P:25 SP:F
E8B3  EA        NOP                             A:66 X:EF Y:06 P:25 SP:F
E8B4  F0 18     BEQ $E8CE                       A:66 X:EF Y:06 P:25 SP:F
E8B6  90 16     BCC $E8CE                       A:66 X:EF Y:06 P:25 SP:F
E8B8  70 14     BVS $E8CE                       A:66 X:EF Y:06 P:25 SP:F
E8BA  30 12     BMI $E8CE                       A:66 X:EF Y:06 P:25 SP:F
E8BC  C9 66     CMP #$66                        A:66 X:EF Y:06 P:25 SP:F
E8BE  D0 0E     BNE $E8CE                       A:66 X:EF Y:06 P:27 SP:F
E8C0  C0 06     CPY #$06                        A:66 X:EF Y:06 P:27 SP:F
E8C2  D0 0A     BNE $E8CE                       A:66 X:EF Y:06 P:27 SP:F
E8C4  E0 EF     CPX #$EF                        A:66 X:EF Y:06 P:27 SP:F
E8C6  D0 06     BNE $E8CE                       A:66 X:EF Y:06 P:27 SP:F
E8C8  A5 56     LDA $56 = 66                    A:66 X:EF Y:06 P:27 SP:F
E8CA  C9 66     CMP #$66                        A:66 X:EF Y:06 P:25 SP:F
E8CC  F0 04     BEQ $E8D2                       A:66 X:EF Y:06 P:27 SP:F
E8D2  60        RTS                             A:66 X:EF Y:06 P:27 SP:F
C638  20 D3 E8  JSR $E8D3                       A:66 X:EF Y:06 P:27 SP:F
E8D3  A0 90     LDY #$90                        A:66 X:EF Y:06 P:27 SP:F
E8D5  20 31 F9  JSR $F931                       A:66 X:EF Y:90 P:A5 SP:F
F931  24 01     BIT $01 = C0                    A:66 X:EF Y:90 P:A5 SP:F
F933  A9 40     LDA #$40                        A:66 X:EF Y:90 P:E5 SP:F
F935  38        SEC                             A:40 X:EF Y:90 P:65 SP:F
F936  60        RTS                             A:40 X:EF Y:90 P:65 SP:F
E8D8  EB 40    *SBC #$40                        A:40 X:EF Y:90 P:65 SP:F
E8DA  EA        NOP                             A:00 X:EF Y:90 P:27 SP:F
E8DB  EA        NOP                             A:00 X:EF Y:90 P:27 SP:F
E8DC  EA        NOP                             A:00 X:EF Y:90 P:27 SP:F
E8DD  EA        NOP                             A:00 X:EF Y:90 P:27 SP:F
E8DE  20 37 F9  JSR $F937                       A:00 X:EF Y:90 P:27 SP:F
F937  30 0B     BMI $F944                       A:00 X:EF Y:90 P:27 SP:F
F939  90 09     BCC $F944                       A:00 X:EF Y:90 P:27 SP:F
F93B  D0 07     BNE $F944                       A:00 X:EF Y:90 P:27 SP:F
F93D  70 05     BVS $F944                       A:00 X:EF Y:90 P:27 SP:F
F93F  C9 00     CMP #$00                        A:00 X:EF Y:90 P:27 SP:F
F941  D0 01     BNE $F944                       A:00 X:EF Y:90 P:27 SP:F
F943  60        RTS                             A:00 X:EF Y:90 P:27 SP:F
E8E1  C8        INY                             A:00 X:EF Y:90 P:27 SP:F
E8E2  20 47 F9  JSR $F947                       A:00 X:EF Y:91 P:A5 SP:F
F947  B8        CLV                             A:00 X:EF Y:91 P:A5 SP:F
F948  38        SEC                             A:00 X:EF Y:91 P:A5 SP:F
F949  A9 40     LDA #$40                        A:00 X:EF Y:91 P:A5 SP:F
F94B  60        RTS                             A:40 X:EF Y:91 P:25 SP:F
E8E5  EB 3F    *SBC #$3F                        A:40 X:EF Y:91 P:25 SP:F
E8E7  EA        NOP                             A:01 X:EF Y:91 P:25 SP:F
E8E8  EA        NOP                             A:01 X:EF Y:91 P:25 SP:F
E8E9  EA        NOP                             A:01 X:EF Y:91 P:25 SP:F
E8EA  EA        NOP                             A:01 X:EF Y:91 P:25 SP:F
E8EB  20 4C F9  JSR $F94C                       A:01 X:EF Y:91 P:25 SP:F
F94C  F0 0B     BEQ $F959                       A:01 X:EF Y:91 P:25 SP:F
F94E  30 09     BMI $F959                       A:01 X:EF Y:91 P:25 SP:F
F950  90 07     BCC $F959                       A:01 X:EF Y:91 P:25 SP:F
F952  70 05     BVS $F959                       A:01 X:EF Y:91 P:25 SP:F
F954  C9 01     CMP #$01                        A:01 X:EF Y:91 P:25 SP:F
F956  D0 01     BNE $F959                       A:01 X:EF Y:91 P:27 SP:F
F958  60        RTS                             A:01 X:EF Y:91 P:27 SP:F
E8EE  C8        INY                             A:01 X:EF Y:91 P:27 SP:F
E8EF  20 5C F9  JSR $F95C                       A:01 X:EF Y:92 P:A5 SP:F
F95C  A9 40     LDA #$40                        A:01 X:EF Y:92 P:A5 SP:F
F95E  38        SEC                             A:40 X:EF Y:92 P:25 SP:F
F95F  24 01     BIT $01 = C0                    A:40 X:EF Y:92 P:25 SP:F
F961  60        RTS                             A:40 X:EF Y:92 P:E5 SP:F
E8F2  EB 41    *SBC #$41                        A:40 X:EF Y:92 P:E5 SP:F
E8F4  EA        NOP                             A:FF X:EF Y:92 P:A4 SP:F
E8F5  EA        NOP                             A:FF X:EF Y:92 P:A4 SP:F
E8F6  EA        NOP                             A:FF X:EF Y:92 P:A4 SP:F
E8F7  EA        NOP                             A:FF X:EF Y:92 P:A4 SP:F
E8F8  20 62 F9  JSR $F962                       A:FF X:EF Y:92 P:A4 SP:F
F962  B0 0B     BCS $F96F                       A:FF X:EF Y:92 P:A4 SP:F
F964  F0 09     BEQ $F96F                       A:FF X:EF Y:92 P:A4 SP:F
F966  10 07     BPL $F96F                       A:FF X:EF Y:92 P:A4 SP:F
F968  70 05     BVS $F96F                       A:FF X:EF Y:92 P:A4 SP:F
F96A  C9 FF     CMP #$FF                        A:FF X:EF Y:92 P:A4 SP:F
F96C  D0 01     BNE $F96F                       A:FF X:EF Y:92 P:27 SP:F
F96E  60        RTS                             A:FF X:EF Y:92 P:27 SP:F
E8FB  C8        INY                             A:FF X:EF Y:92 P:27 SP:F
E8FC  20 72 F9  JSR $F972                       A:FF X:EF Y:93 P:A5 SP:F
F972  18        CLC                             A:FF X:EF Y:93 P:A5 SP:F
F973  A9 80     LDA #$80                        A:FF X:EF Y:93 P:A4 SP:F
F975  60        RTS                             A:80 X:EF Y:93 P:A4 SP:F
E8FF  EB 00    *SBC #$00                        A:80 X:EF Y:93 P:A4 SP:F
E901  EA        NOP                             A:7F X:EF Y:93 P:65 SP:F
E902  EA        NOP                             A:7F X:EF Y:93 P:65 SP:F
E903  EA        NOP                             A:7F X:EF Y:93 P:65 SP:F
E904  EA        NOP                             A:7F X:EF Y:93 P:65 SP:F
E905  20 76 F9  JSR $F976                       A:7F X:EF Y:93 P:65 SP:F
F976  90 05     BCC $F97D                       A:7F X:EF Y:93 P:65 SP:F
F978  C9 7F     CMP #$7F                        A:7F X:EF Y:93 P:65 SP:F
F97A  D0 01     BNE $F97D                       A:7F X:EF Y:93 P:67 SP:F
F97C  60        RTS                             A:7F X:EF Y:93 P:67 SP:F
E908  C8        INY                             A:7F X:EF Y:93 P:67 SP:F
E909  20 80 F9  JSR $F980                       A:7F X:EF Y:94 P:E5 SP:F
F980  38        SEC                             A:7F X:EF Y:94 P:E5 SP:F
F981  A9 81     LDA #$81                        A:7F X:EF Y:94 P:E5 SP:F
F983  60        RTS                             A:81 X:EF Y:94 P:E5 SP:F
E90C  EB 7F    *SBC #$7F                        A:81 X:EF Y:94 P:E5 SP:F
E90E  EA        NOP                             A:02 X:EF Y:94 P:65 SP:F
E90F  EA        NOP                             A:02 X:EF Y:94 P:65 SP:F
E910  EA        NOP                             A:02 X:EF Y:94 P:65 SP:F
E911  EA        NOP                             A:02 X:EF Y:94 P:65 SP:F
E912  20 84 F9  JSR $F984                       A:02 X:EF Y:94 P:65 SP:F
F984  50 07     BVC $F98D                       A:02 X:EF Y:94 P:65 SP:F
F986  90 05     BCC $F98D                       A:02 X:EF Y:94 P:65 SP:F
F988  C9 02     CMP #$02                        A:02 X:EF Y:94 P:65 SP:F
F98A  D0 01     BNE $F98D                       A:02 X:EF Y:94 P:67 SP:F
F98C  60        RTS                             A:02 X:EF Y:94 P:67 SP:F
E915  60        RTS                             A:02 X:EF Y:94 P:67 SP:F
C63B  20 16 E9  JSR $E916                       A:02 X:EF Y:94 P:67 SP:F
E916  A9 FF     LDA #$FF                        A:02 X:EF Y:94 P:67 SP:F
E918  85 01     STA $01 = C0                    A:FF X:EF Y:94 P:E5 SP:F
E91A  A0 95     LDY #$95                        A:FF X:EF Y:94 P:E5 SP:F
E91C  A2 02     LDX #$02                        A:FF X:EF Y:95 P:E5 SP:F
E91E  A9 47     LDA #$47                        A:FF X:02 Y:95 P:65 SP:F
E920  85 47     STA $47 = 00                    A:47 X:02 Y:95 P:65 SP:F
E922  A9 06     LDA #$06                        A:47 X:02 Y:95 P:65 SP:F
E924  85 48     STA $48 = 00                    A:06 X:02 Y:95 P:65 SP:F
E926  A9 EB     LDA #$EB                        A:06 X:02 Y:95 P:65 SP:F
E928  8D 47 06  STA $0647 = 00                  A:EB X:02 Y:95 P:E5 SP:F
E92B  20 31 FA  JSR $FA31                       A:EB X:02 Y:95 P:E5 SP:F
FA31  24 01     BIT $01 = FF                    A:EB X:02 Y:95 P:E5 SP:F
FA33  18        CLC                             A:EB X:02 Y:95 P:E5 SP:F
FA34  A9 40     LDA #$40                        A:EB X:02 Y:95 P:E4 SP:F
FA36  60        RTS                             A:40 X:02 Y:95 P:64 SP:F
E92E  C3 45    *DCP ($45,X) @ 47 = 0647 = EB    A:40 X:02 Y:95 P:64 SP:F
E930  EA        NOP                             A:40 X:02 Y:95 P:64 SP:F
E931  EA        NOP                             A:40 X:02 Y:95 P:64 SP:F
E932  EA        NOP                             A:40 X:02 Y:95 P:64 SP:F
E933  EA        NOP                             A:40 X:02 Y:95 P:64 SP:F
E934  20 37 FA  JSR $FA37                       A:40 X:02 Y:95 P:64 SP:F
FA37  50 2C     BVC $FA65                       A:40 X:02 Y:95 P:64 SP:F
FA39  B0 2A     BCS $FA65                       A:40 X:02 Y:95 P:64 SP:F
FA3B  30 28     BMI $FA65                       A:40 X:02 Y:95 P:64 SP:F
FA3D  C9 40     CMP #$40                        A:40 X:02 Y:95 P:64 SP:F
FA3F  D0 24     BNE $FA65                       A:40 X:02 Y:95 P:67 SP:F
FA41  60        RTS                             A:40 X:02 Y:95 P:67 SP:F
E937  AD 47 06  LDA $0647 = EA                  A:40 X:02 Y:95 P:67 SP:F
E93A  C9 EA     CMP #$EA                        A:EA X:02 Y:95 P:E5 SP:F
E93C  F0 02     BEQ $E940                       A:EA X:02 Y:95 P:67 SP:F
E940  C8        INY                             A:EA X:02 Y:95 P:67 SP:F
E941  A9 00     LDA #$00                        A:EA X:02 Y:96 P:E5 SP:F
E943  8D 47 06  STA $0647 = EA                  A:00 X:02 Y:96 P:67 SP:F
E946  20 42 FA  JSR $FA42                       A:00 X:02 Y:96 P:67 SP:F
FA42  B8        CLV                             A:00 X:02 Y:96 P:67 SP:F
FA43  38        SEC                             A:00 X:02 Y:96 P:27 SP:F
FA44  A9 FF     LDA #$FF                        A:00 X:02 Y:96 P:27 SP:F
FA46  60        RTS                             A:FF X:02 Y:96 P:A5 SP:F
E949  C3 45    *DCP ($45,X) @ 47 = 0647 = 00    A:FF X:02 Y:96 P:A5 SP:F
E94B  EA        NOP                             A:FF X:02 Y:96 P:27 SP:F
E94C  EA        NOP                             A:FF X:02 Y:96 P:27 SP:F
E94D  EA        NOP                             A:FF X:02 Y:96 P:27 SP:F
E94E  EA        NOP                             A:FF X:02 Y:96 P:27 SP:F
E94F  20 47 FA  JSR $FA47                       A:FF X:02 Y:96 P:27 SP:F
FA47  70 1C     BVS $FA65                       A:FF X:02 Y:96 P:27 SP:F
FA49  D0 1A     BNE $FA65                       A:FF X:02 Y:96 P:27 SP:F
FA4B  30 18     BMI $FA65                       A:FF X:02 Y:96 P:27 SP:F
FA4D  90 16     BCC $FA65                       A:FF X:02 Y:96 P:27 SP:F
FA4F  C9 FF     CMP #$FF                        A:FF X:02 Y:96 P:27 SP:F
FA51  D0 12     BNE $FA65                       A:FF X:02 Y:96 P:27 SP:F
FA53  60        RTS                             A:FF X:02 Y:96 P:27 SP:F
E952  AD 47 06  LDA $0647 = FF                  A:FF X:02 Y:96 P:27 SP:F
E955  C9 FF     CMP #$FF                        A:FF X:02 Y:96 P:A5 SP:F
E957  F0 02     BEQ $E95B                       A:FF X:02 Y:96 P:27 SP:F
E95B  C8        INY                             A:FF X:02 Y:96 P:27 SP:F
E95C  A9 37     LDA #$37                        A:FF X:02 Y:97 P:A5 SP:F
E95E  8D 47 06  STA $0647 = FF                  A:37 X:02 Y:97 P:25 SP:F
E961  20 54 FA  JSR $FA54                       A:37 X:02 Y:97 P:25 SP:F
FA54  24 01     BIT $01 = FF                    A:37 X:02 Y:97 P:25 SP:F
FA56  A9 F0     LDA #$F0                        A:37 X:02 Y:97 P:E5 SP:F
FA58  60        RTS                             A:F0 X:02 Y:97 P:E5 SP:F
E964  C3 45    *DCP ($45,X) @ 47 = 0647 = 37    A:F0 X:02 Y:97 P:E5 SP:F
E966  EA        NOP                             A:F0 X:02 Y:97 P:E5 SP:F
E967  EA        NOP                             A:F0 X:02 Y:97 P:E5 SP:F
E968  EA        NOP                             A:F0 X:02 Y:97 P:E5 SP:F
E969  EA        NOP                             A:F0 X:02 Y:97 P:E5 SP:F
E96A  20 59 FA  JSR $FA59                       A:F0 X:02 Y:97 P:E5 SP:F
FA59  50 0A     BVC $FA65                       A:F0 X:02 Y:97 P:E5 SP:F
FA5B  F0 08     BEQ $FA65                       A:F0 X:02 Y:97 P:E5 SP:F
FA5D  10 06     BPL $FA65                       A:F0 X:02 Y:97 P:E5 SP:F
FA5F  90 04     BCC $FA65                       A:F0 X:02 Y:97 P:E5 SP:F
FA61  C9 F0     CMP #$F0                        A:F0 X:02 Y:97 P:E5 SP:F
FA63  F0 02     BEQ $FA67                       A:F0 X:02 Y:97 P:67 SP:F
FA67  60        RTS                             A:F0 X:02 Y:97 P:67 SP:F
E96D  AD 47 06  LDA $0647 = 36                  A:F0 X:02 Y:97 P:67 SP:F
E970  C9 36     CMP #$36                        A:36 X:02 Y:97 P:65 SP:F
E972  F0 02     BEQ $E976                       A:36 X:02 Y:97 P:67 SP:F
E976  C8        INY                             A:36 X:02 Y:97 P:67 SP:F
E977  A9 EB     LDA #$EB                        A:36 X:02 Y:98 P:E5 SP:F
E979  85 47     STA $47 = 47                    A:EB X:02 Y:98 P:E5 SP:F
E97B  20 31 FA  JSR $FA31                       A:EB X:02 Y:98 P:E5 SP:F
FA31  24 01     BIT $01 = FF                    A:EB X:02 Y:98 P:E5 SP:F
FA33  18        CLC                             A:EB X:02 Y:98 P:E5 SP:F
FA34  A9 40     LDA #$40                        A:EB X:02 Y:98 P:E4 SP:F
FA36  60        RTS                             A:40 X:02 Y:98 P:64 SP:F
E97E  C7 47    *DCP $47 = EB                    A:40 X:02 Y:98 P:64 SP:F
E980  EA        NOP                             A:40 X:02 Y:98 P:64 SP:F
E981  EA        NOP                             A:40 X:02 Y:98 P:64 SP:F
E982  EA        NOP                             A:40 X:02 Y:98 P:64 SP:F
E983  EA        NOP                             A:40 X:02 Y:98 P:64 SP:F
E984  20 37 FA  JSR $FA37                       A:40 X:02 Y:98 P:64 SP:F
FA37  50 2C     BVC $FA65                       A:40 X:02 Y:98 P:64 SP:F
FA39  B0 2A     BCS $FA65                       A:40 X:02 Y:98 P:64 SP:F
FA3B  30 28     BMI $FA65                       A:40 X:02 Y:98 P:64 SP:F
FA3D  C9 40     CMP #$40                        A:40 X:02 Y:98 P:64 SP:F
FA3F  D0 24     BNE $FA65                       A:40 X:02 Y:98 P:67 SP:F
FA41  60        RTS                             A:40 X:02 Y:98 P:67 SP:F
E987  A5 47     LDA $47 = EA                    A:40 X:02 Y:98 P:67 SP:F
E989  C9 EA     CMP #$EA                        A:EA X:02 Y:98 P:E5 SP:F
E98B  F0 02     BEQ $E98F                       A:EA X:02 Y:98 P:67 SP:F
E98F  C8        INY                             A:EA X:02 Y:98 P:67 SP:F
E990  A9 00     LDA #$00                        A:EA X:02 Y:99 P:E5 SP:F
E992  85 47     STA $47 = EA                    A:00 X:02 Y:99 P:67 SP:F
E994  20 42 FA  JSR $FA42                       A:00 X:02 Y:99 P:67 SP:F
FA42  B8        CLV                             A:00 X:02 Y:99 P:67 SP:F
FA43  38        SEC                             A:00 X:02 Y:99 P:27 SP:F
FA44  A9 FF     LDA #$FF                        A:00 X:02 Y:99 P:27 SP:F
FA46  60        RTS                             A:FF X:02 Y:99 P:A5 SP:F
E997  C7 47    *DCP $47 = 00                    A:FF X:02 Y:99 P:A5 SP:F
E999  EA        NOP                             A:FF X:02 Y:99 P:27 SP:F
E99A  EA        NOP                             A:FF X:02 Y:99 P:27 SP:F
E99B  EA        NOP                             A:FF X:02 Y:99 P:27 SP:F
E99C  EA        NOP                             A:FF X:02 Y:99 P:27 SP:F
E99D  20 47 FA  JSR $FA47                       A:FF X:02 Y:99 P:27 SP:F
FA47  70 1C     BVS $FA65                       A:FF X:02 Y:99 P:27 SP:F
FA49  D0 1A     BNE $FA65                       A:FF X:02 Y:99 P:27 SP:F
FA4B  30 18     BMI $FA65                       A:FF X:02 Y:99 P:27 SP:F
FA4D  90 16     BCC $FA65                       A:FF X:02 Y:99 P:27 SP:F
FA4F  C9 FF     CMP #$FF                        A:FF X:02 Y:99 P:27 SP:F
FA51  D0 12     BNE $FA65                       A:FF X:02 Y:99 P:27 SP:F
FA53  60        RTS                             A:FF X:02 Y:99 P:27 SP:F
E9A0  A5 47     LDA $47 = FF                    A:FF X:02 Y:99 P:27 SP:F
E9A2  C9 FF     CMP #$FF                        A:FF X:02 Y:99 P:A5 SP:F
E9A4  F0 02     BEQ $E9A8                       A:FF X:02 Y:99 P:27 SP:F
E9A8  C8        INY                             A:FF X:02 Y:99 P:27 SP:F
E9A9  A9 37     LDA #$37                        A:FF X:02 Y:9A P:A5 SP:F
E9AB  85 47     STA $47 = FF                    A:37 X:02 Y:9A P:25 SP:F
E9AD  20 54 FA  JSR $FA54                       A:37 X:02 Y:9A P:25 SP:F
FA54  24 01     BIT $01 = FF                    A:37 X:02 Y:9A P:25 SP:F
FA56  A9 F0     LDA #$F0                        A:37 X:02 Y:9A P:E5 SP:F
FA58  60        RTS                             A:F0 X:02 Y:9A P:E5 SP:F
E9B0  C7 47    *DCP $47 = 37                    A:F0 X:02 Y:9A P:E5 SP:F
E9B2  EA        NOP                             A:F0 X:02 Y:9A P:E5 SP:F
E9B3  EA        NOP                             A:F0 X:02 Y:9A P:E5 SP:F
E9B4  EA        NOP                             A:F0 X:02 Y:9A P:E5 SP:F
E9B5  EA        NOP                             A:F0 X:02 Y:9A P:E5 SP:F
E9B6  20 59 FA  JSR $FA59                       A:F0 X:02 Y:9A P:E5 SP:F
FA59  50 0A     BVC $FA65                       A:F0 X:02 Y:9A P:E5 SP:F
FA5B  F0 08     BEQ $FA65                       A:F0 X:02 Y:9A P:E5 SP:F
FA5D  10 06     BPL $FA65                       A:F0 X:02 Y:9A P:E5 SP:F
FA5F  90 04     BCC $FA65                       A:F0 X:02 Y:9A P:E5 SP:F
FA61  C9 F0     CMP #$F0                        A:F0 X:02 Y:9A P:E5 SP:F
FA63  F0 02     BEQ $FA67                       A:F0 X:02 Y:9A P:67 SP:F
FA67  60        RTS                             A:F0 X:02 Y:9A P:67 SP:F
E9B9  A5 47     LDA $47 = 36                    A:F0 X:02 Y:9A P:67 SP:F
E9BB  C9 36     CMP #$36                        A:36 X:02 Y:9A P:65 SP:F
E9BD  F0 02     BEQ $E9C1                       A:36 X:02 Y:9A P:67 SP:F
E9C1  C8        INY                             A:36 X:02 Y:9A P:67 SP:F
E9C2  A9 EB     LDA #$EB                        A:36 X:02 Y:9B P:E5 SP:F
E9C4  8D 47 06  STA $0647 = 36                  A:EB X:02 Y:9B P:E5 SP:F
E9C7  20 31 FA  JSR $FA31                       A:EB X:02 Y:9B P:E5 SP:F
FA31  24 01     BIT $01 = FF                    A:EB X:02 Y:9B P:E5 SP:F
FA33  18        CLC                             A:EB X:02 Y:9B P:E5 SP:F
FA34  A9 40     LDA #$40                        A:EB X:02 Y:9B P:E4 SP:F
FA36  60        RTS                             A:40 X:02 Y:9B P:64 SP:F
E9CA  CF 47 06 *DCP $0647 = EB                  A:40 X:02 Y:9B P:64 SP:F
E9CD  EA        NOP                             A:40 X:02 Y:9B P:64 SP:F
E9CE  EA        NOP                             A:40 X:02 Y:9B P:64 SP:F
E9CF  EA        NOP                             A:40 X:02 Y:9B P:64 SP:F
E9D0  EA        NOP                             A:40 X:02 Y:9B P:64 SP:F
E9D1  20 37 FA  JSR $FA37                       A:40 X:02 Y:9B P:64 SP:F
FA37  50 2C     BVC $FA65                       A:40 X:02 Y:9B P:64 SP:F
FA39  B0 2A     BCS $FA65                       A:40 X:02 Y:9B P:64 SP:F
FA3B  30 28     BMI $FA65                       A:40 X:02 Y:9B P:64 SP:F
FA3D  C9 40     CMP #$40                        A:40 X:02 Y:9B P:64 SP:F
FA3F  D0 24     BNE $FA65                       A:40 X:02 Y:9B P:67 SP:F
FA41  60        RTS                             A:40 X:02 Y:9B P:67 SP:F
E9D4  AD 47 06  LDA $0647 = EA                  A:40 X:02 Y:9B P:67 SP:F
E9D7  C9 EA     CMP #$EA                        A:EA X:02 Y:9B P:E5 SP:F
E9D9  F0 02     BEQ $E9DD                       A:EA X:02 Y:9B P:67 SP:F
E9DD  C8        INY                             A:EA X:02 Y:9B P:67 SP:F
E9DE  A9 00     LDA #$00                        A:EA X:02 Y:9C P:E5 SP:F
E9E0  8D 47 06  STA $0647 = EA                  A:00 X:02 Y:9C P:67 SP:F
E9E3  20 42 FA  JSR $FA42                       A:00 X:02 Y:9C P:67 SP:F
FA42  B8        CLV                             A:00 X:02 Y:9C P:67 SP:F
FA43  38        SEC                             A:00 X:02 Y:9C P:27 SP:F
FA44  A9 FF     LDA #$FF                        A:00 X:02 Y:9C P:27 SP:F
FA46  60        RTS                             A:FF X:02 Y:9C P:A5 SP:F
E9E6  CF 47 06 *DCP $0647 = 00                  A:FF X:02 Y:9C P:A5 SP:F
E9E9  EA        NOP                             A:FF X:02 Y:9C P:27 SP:F
E9EA  EA        NOP                             A:FF X:02 Y:9C P:27 SP:F
E9EB  EA        NOP                             A:FF X:02 Y:9C P:27 SP:F
E9EC  EA        NOP                             A:FF X:02 Y:9C P:27 SP:F
E9ED  20 47 FA  JSR $FA47                       A:FF X:02 Y:9C P:27 SP:F
FA47  70 1C     BVS $FA65                       A:FF X:02 Y:9C P:27 SP:F
FA49  D0 1A     BNE $FA65                       A:FF X:02 Y:9C P:27 SP:F
FA4B  30 18     BMI $FA65                       A:FF X:02 Y:9C P:27 SP:F
FA4D  90 16     BCC $FA65                       A:FF X:02 Y:9C P:27 SP:F
FA4F  C9 FF     CMP #$FF                        A:FF X:02 Y:9C P:27 SP:F
FA51  D0 12     BNE $FA65                       A:FF X:02 Y:9C P:27 SP:F
FA53  60        RTS                             A:FF X:02 Y:9C P:27 SP:F
E9F0  AD 47 06  LDA $0647 = FF                  A:FF X:02 Y:9C P:27 SP:F
E9F3  C9 FF     CMP #$FF                        A:FF X:02 Y:9C P:A5 SP:F
E9F5  F0 02     BEQ $E9F9                       A:FF X:02 Y:9C P:27 SP:F
E9F9  C8        INY                             A:FF X:02 Y:9C P:27 SP:F
E9FA  A9 37     LDA #$37                        A:FF X:02 Y:9D P:A5 SP:F
E9FC  8D 47 06  STA $0647 = FF                  A:37 X:02 Y:9D P:25 SP:F
E9FF  20 54 FA  JSR $FA54                       A:37 X:02 Y:9D P:25 SP:F
FA54  24 01     BIT $01 = FF                    A:37 X:02 Y:9D P:25 SP:F
FA56  A9 F0     LDA #$F0                        A:37 X:02 Y:9D P:E5 SP:F
FA58  60        RTS                             A:F0 X:02 Y:9D P:E5 SP:F
EA02  CF 47 06 *DCP $0647 = 37                  A:F0 X:02 Y:9D P:E5 SP:F
EA05  EA        NOP                             A:F0 X:02 Y:9D P:E5 SP:F
EA06  EA        NOP                             A:F0 X:02 Y:9D P:E5 SP:F
EA07  EA        NOP                             A:F0 X:02 Y:9D P:E5 SP:F
EA08  EA        NOP                             A:F0 X:02 Y:9D P:E5 SP:F
EA09  20 59 FA  JSR $FA59                       A:F0 X:02 Y:9D P:E5 SP:F
FA59  50 0A     BVC $FA65                       A:F0 X:02 Y:9D P:E5 SP:F
FA5B  F0 08     BEQ $FA65                       A:F0 X:02 Y:9D P:E5 SP:F
FA5D  10 06     BPL $FA65                       A:F0 X:02 Y:9D P:E5 SP:F
FA5F  90 04     BCC $FA65                       A:F0 X:02 Y:9D P:E5 SP:F
FA61  C9 F0     CMP #$F0                        A:F0 X:02 Y:9D P:E5 SP:F
FA63  F0 02     BEQ $FA67                       A:F0 X:02 Y:9D P:67 SP:F
FA67  60        RTS                             A:F0 X:02 Y:9D P:67 SP:F
EA0C  AD 47 06  LDA $0647 = 36                  A:F0 X:02 Y:9D P:67 SP:F
EA0F  C9 36     CMP #$36                        A:36 X:02 Y:9D P:65 SP:F
EA11  F0 02     BEQ $EA15                       A:36 X:02 Y:9D P:67 SP:F
EA15  A9 EB     LDA #$EB                        A:36 X:02 Y:9D P:67 SP:F
EA17  8D 47 06  STA $0647 = 36                  A:EB X:02 Y:9D P:E5 SP:F
EA1A  A9 48     LDA #$48                        A:EB X:02 Y:9D P:E5 SP:F
EA1C  85 45     STA $45 = 32                    A:48 X:02 Y:9D P:65 SP:F
EA1E  A9 05     LDA #$05                        A:48 X:02 Y:9D P:65 SP:F
EA20  85 46     STA $46 = 04                    A:05 X:02 Y:9D P:65 SP:F
EA22  A0 FF     LDY #$FF                        A:05 X:02 Y:9D P:65 SP:F
EA24  20 31 FA  JSR $FA31                       A:05 X:02 Y:FF P:E5 SP:F
FA31  24 01     BIT $01 = FF                    A:05 X:02 Y:FF P:E5 SP:F
FA33  18        CLC                             A:05 X:02 Y:FF P:E5 SP:F
FA34  A9 40     LDA #$40                        A:05 X:02 Y:FF P:E4 SP:F
FA36  60        RTS                             A:40 X:02 Y:FF P:64 SP:F
EA27  D3 45    *DCP ($45),Y = 0548 @ 0647 = EB  A:40 X:02 Y:FF P:64 SP:F
EA29  EA        NOP                             A:40 X:02 Y:FF P:64 SP:F
EA2A  EA        NOP                             A:40 X:02 Y:FF P:64 SP:F
EA2B  08        PHP                             A:40 X:02 Y:FF P:64 SP:F
EA2C  48        PHA                             A:40 X:02 Y:FF P:64 SP:F
EA2D  A0 9E     LDY #$9E                        A:40 X:02 Y:FF P:64 SP:F
EA2F  68        PLA                             A:40 X:02 Y:9E P:E4 SP:F
EA30  28        PLP                             A:40 X:02 Y:9E P:64 SP:F
EA31  20 37 FA  JSR $FA37                       A:40 X:02 Y:9E P:64 SP:F
FA37  50 2C     BVC $FA65                       A:40 X:02 Y:9E P:64 SP:F
FA39  B0 2A     BCS $FA65                       A:40 X:02 Y:9E P:64 SP:F
FA3B  30 28     BMI $FA65                       A:40 X:02 Y:9E P:64 SP:F
FA3D  C9 40     CMP #$40                        A:40 X:02 Y:9E P:64 SP:F
FA3F  D0 24     BNE $FA65                       A:40 X:02 Y:9E P:67 SP:F
FA41  60        RTS                             A:40 X:02 Y:9E P:67 SP:F
EA34  AD 47 06  LDA $0647 = EA                  A:40 X:02 Y:9E P:67 SP:F
EA37  C9 EA     CMP #$EA                        A:EA X:02 Y:9E P:E5 SP:F
EA39  F0 02     BEQ $EA3D                       A:EA X:02 Y:9E P:67 SP:F
EA3D  A0 FF     LDY #$FF                        A:EA X:02 Y:9E P:67 SP:F
EA3F  A9 00     LDA #$00                        A:EA X:02 Y:FF P:E5 SP:F
EA41  8D 47 06  STA $0647 = EA                  A:00 X:02 Y:FF P:67 SP:F
EA44  20 42 FA  JSR $FA42                       A:00 X:02 Y:FF P:67 SP:F
FA42  B8        CLV                             A:00 X:02 Y:FF P:67 SP:F
FA43  38        SEC                             A:00 X:02 Y:FF P:27 SP:F
FA44  A9 FF     LDA #$FF                        A:00 X:02 Y:FF P:27 SP:F
FA46  60        RTS                             A:FF X:02 Y:FF P:A5 SP:F
EA47  D3 45    *DCP ($45),Y = 0548 @ 0647 = 00  A:FF X:02 Y:FF P:A5 SP:F
EA49  EA        NOP                             A:FF X:02 Y:FF P:27 SP:F
EA4A  EA        NOP                             A:FF X:02 Y:FF P:27 SP:F
EA4B  08        PHP                             A:FF X:02 Y:FF P:27 SP:F
EA4C  48        PHA                             A:FF X:02 Y:FF P:27 SP:F
EA4D  A0 9F     LDY #$9F                        A:FF X:02 Y:FF P:27 SP:F
EA4F  68        PLA                             A:FF X:02 Y:9F P:A5 SP:F
EA50  28        PLP                             A:FF X:02 Y:9F P:A5 SP:F
EA51  20 47 FA  JSR $FA47                       A:FF X:02 Y:9F P:27 SP:F
FA47  70 1C     BVS $FA65                       A:FF X:02 Y:9F P:27 SP:F
FA49  D0 1A     BNE $FA65                       A:FF X:02 Y:9F P:27 SP:F
FA4B  30 18     BMI $FA65                       A:FF X:02 Y:9F P:27 SP:F
FA4D  90 16     BCC $FA65                       A:FF X:02 Y:9F P:27 SP:F
FA4F  C9 FF     CMP #$FF                        A:FF X:02 Y:9F P:27 SP:F
FA51  D0 12     BNE $FA65                       A:FF X:02 Y:9F P:27 SP:F
FA53  60        RTS                             A:FF X:02 Y:9F P:27 SP:F
EA54  AD 47 06  LDA $0647 = FF                  A:FF X:02 Y:9F P:27 SP:F
EA57  C9 FF     CMP #$FF                        A:FF X:02 Y:9F P:A5 SP:F
EA59  F0 02     BEQ $EA5D                       A:FF X:02 Y:9F P:27 SP:F
EA5D  A0 FF     LDY #$FF                        A:FF X:02 Y:9F P:27 SP:F
EA5F  A9 37     LDA #$37                        A:FF X:02 Y:FF P:A5 SP:F
EA61  8D 47 06  STA $0647 = FF                  A:37 X:02 Y:FF P:25 SP:F
EA64  20 54 FA  JSR $FA54                       A:37 X:02 Y:FF P:25 SP:F
FA54  24 01     BIT $01 = FF                    A:37 X:02 Y:FF P:25 SP:F
FA56  A9 F0     LDA #$F0                        A:37 X:02 Y:FF P:E5 SP:F
FA58  60        RTS                             A:F0 X:02 Y:FF P:E5 SP:F
EA67  D3 45    *DCP ($45),Y = 0548 @ 0647 = 37  A:F0 X:02 Y:FF P:E5 SP:F
EA69  EA        NOP                             A:F0 X:02 Y:FF P:E5 SP:F
EA6A  EA        NOP                             A:F0 X:02 Y:FF P:E5 SP:F
EA6B  08        PHP                             A:F0 X:02 Y:FF P:E5 SP:F
EA6C  48        PHA                             A:F0 X:02 Y:FF P:E5 SP:F
EA6D  A0 A0     LDY #$A0                        A:F0 X:02 Y:FF P:E5 SP:F
EA6F  68        PLA                             A:F0 X:02 Y:A0 P:E5 SP:F
EA70  28        PLP                             A:F0 X:02 Y:A0 P:E5 SP:F
EA71  20 59 FA  JSR $FA59                       A:F0 X:02 Y:A0 P:E5 SP:F
FA59  50 0A     BVC $FA65                       A:F0 X:02 Y:A0 P:E5 SP:F
FA5B  F0 08     BEQ $FA65                       A:F0 X:02 Y:A0 P:E5 SP:F
FA5D  10 06     BPL $FA65                       A:F0 X:02 Y:A0 P:E5 SP:F
FA5F  90 04     BCC $FA65                       A:F0 X:02 Y:A0 P:E5 SP:F
FA61  C9 F0     CMP #$F0                        A:F0 X:02 Y:A0 P:E5 SP:F
FA63  F0 02     BEQ $FA67                       A:F0 X:02 Y:A0 P:67 SP:F
FA67  60        RTS                             A:F0 X:02 Y:A0 P:67 SP:F
EA74  AD 47 06  LDA $0647 = 36                  A:F0 X:02 Y:A0 P:67 SP:F
EA77  C9 36     CMP #$36                        A:36 X:02 Y:A0 P:65 SP:F
EA79  F0 02     BEQ $EA7D                       A:36 X:02 Y:A0 P:67 SP:F
EA7D  A0 A1     LDY #$A1                        A:36 X:02 Y:A0 P:67 SP:F
EA7F  A2 FF     LDX #$FF                        A:36 X:02 Y:A1 P:E5 SP:F
EA81  A9 EB     LDA #$EB                        A:36 X:FF Y:A1 P:E5 SP:F
EA83  85 47     STA $47 = 36                    A:EB X:FF Y:A1 P:E5 SP:F
EA85  20 31 FA  JSR $FA31                       A:EB X:FF Y:A1 P:E5 SP:F
FA31  24 01     BIT $01 = FF                    A:EB X:FF Y:A1 P:E5 SP:F
FA33  18        CLC                             A:EB X:FF Y:A1 P:E5 SP:F
FA34  A9 40     LDA #$40                        A:EB X:FF Y:A1 P:E4 SP:F
FA36  60        RTS                             A:40 X:FF Y:A1 P:64 SP:F
EA88  D7 48    *DCP $48,X @ 47 = EB             A:40 X:FF Y:A1 P:64 SP:F
EA8A  EA        NOP                             A:40 X:FF Y:A1 P:64 SP:F
EA8B  EA        NOP                             A:40 X:FF Y:A1 P:64 SP:F
EA8C  EA        NOP                             A:40 X:FF Y:A1 P:64 SP:F
EA8D  EA        NOP                             A:40 X:FF Y:A1 P:64 SP:F
EA8E  20 37 FA  JSR $FA37                       A:40 X:FF Y:A1 P:64 SP:F
FA37  50 2C     BVC $FA65                       A:40 X:FF Y:A1 P:64 SP:F
FA39  B0 2A     BCS $FA65                       A:40 X:FF Y:A1 P:64 SP:F
FA3B  30 28     BMI $FA65                       A:40 X:FF Y:A1 P:64 SP:F
FA3D  C9 40     CMP #$40                        A:40 X:FF Y:A1 P:64 SP:F
FA3F  D0 24     BNE $FA65                       A:40 X:FF Y:A1 P:67 SP:F
FA41  60        RTS                             A:40 X:FF Y:A1 P:67 SP:F
EA91  A5 47     LDA $47 = EA                    A:40 X:FF Y:A1 P:67 SP:F
EA93  C9 EA     CMP #$EA                        A:EA X:FF Y:A1 P:E5 SP:F
EA95  F0 02     BEQ $EA99                       A:EA X:FF Y:A1 P:67 SP:F
EA99  C8        INY                             A:EA X:FF Y:A1 P:67 SP:F
EA9A  A9 00     LDA #$00                        A:EA X:FF Y:A2 P:E5 SP:F
EA9C  85 47     STA $47 = EA                    A:00 X:FF Y:A2 P:67 SP:F
EA9E  20 42 FA  JSR $FA42                       A:00 X:FF Y:A2 P:67 SP:F
FA42  B8        CLV                             A:00 X:FF Y:A2 P:67 SP:F
FA43  38        SEC                             A:00 X:FF Y:A2 P:27 SP:F
FA44  A9 FF     LDA #$FF                        A:00 X:FF Y:A2 P:27 SP:F
FA46  60        RTS                             A:FF X:FF Y:A2 P:A5 SP:F
EAA1  D7 48    *DCP $48,X @ 47 = 00             A:FF X:FF Y:A2 P:A5 SP:F
EAA3  EA        NOP                             A:FF X:FF Y:A2 P:27 SP:F
EAA4  EA        NOP                             A:FF X:FF Y:A2 P:27 SP:F
EAA5  EA        NOP                             A:FF X:FF Y:A2 P:27 SP:F
EAA6  EA        NOP                             A:FF X:FF Y:A2 P:27 SP:F
EAA7  20 47 FA  JSR $FA47                       A:FF X:FF Y:A2 P:27 SP:F
FA47  70 1C     BVS $FA65                       A:FF X:FF Y:A2 P:27 SP:F
FA49  D0 1A     BNE $FA65                       A:FF X:FF Y:A2 P:27 SP:F
FA4B  30 18     BMI $FA65                       A:FF X:FF Y:A2 P:27 SP:F
FA4D  90 16     BCC $FA65                       A:FF X:FF Y:A2 P:27 SP:F
FA4F  C9 FF     CMP #$FF                        A:FF X:FF Y:A2 P:27 SP:F
FA51  D0 12     BNE $FA65                       A:FF X:FF Y:A2 P:27 SP:F
FA53  60        RTS                             A:FF X:FF Y:A2 P:27 SP:F
EAAA  A5 47     LDA $47 = FF                    A:FF X:FF Y:A2 P:27 SP:F
EAAC  C9 FF     CMP #$FF                        A:FF X:FF Y:A2 P:A5 SP:F
EAAE  F0 02     BEQ $EAB2                       A:FF X:FF Y:A2 P:27 SP:F
EAB2  C8        INY                             A:FF X:FF Y:A2 P:27 SP:F
EAB3  A9 37     LDA #$37                        A:FF X:FF Y:A3 P:A5 SP:F
EAB5  85 47     STA $47 = FF                    A:37 X:FF Y:A3 P:25 SP:F
EAB7  20 54 FA  JSR $FA54                       A:37 X:FF Y:A3 P:25 SP:F
FA54  24 01     BIT $01 = FF                    A:37 X:FF Y:A3 P:25 SP:F
FA56  A9 F0     LDA #$F0                        A:37 X:FF Y:A3 P:E5 SP:F
FA58  60        RTS                             A:F0 X:FF Y:A3 P:E5 SP:F
EABA  D7 48    *DCP $48,X @ 47 = 37             A:F0 X:FF Y:A3 P:E5 SP:F
EABC  EA        NOP                             A:F0 X:FF Y:A3 P:E5 SP:F
EABD  EA        NOP                             A:F0 X:FF Y:A3 P:E5 SP:F
EABE  EA        NOP                             A:F0 X:FF Y:A3 P:E5 SP:F
EABF  EA        NOP                             A:F0 X:FF Y:A3 P:E5 SP:F
EAC0  20 59 FA  JSR $FA59                       A:F0 X:FF Y:A3 P:E5 SP:F
FA59  50 0A     BVC $FA65                       A:F0 X:FF Y:A3 P:E5 SP:F
FA5B  F0 08     BEQ $FA65                       A:F0 X:FF Y:A3 P:E5 SP:F
FA5D  10 06     BPL $FA65                       A:F0 X:FF Y:A3 P:E5 SP:F
FA5F  90 04     BCC $FA65                       A:F0 X:FF Y:A3 P:E5 SP:F
FA61  C9 F0     CMP #$F0                        A:F0 X:FF Y:A3 P:E5 SP:F
FA63  F0 02     BEQ $FA67                       A:F0 X:FF Y:A3 P:67 SP:F
FA67  60        RTS                             A:F0 X:FF Y:A3 P:67 SP:F
EAC3  A5 47     LDA $47 = 36                    A:F0 X:FF Y:A3 P:67 SP:F
EAC5  C9 36     CMP #$36                        A:36 X:FF Y:A3 P:65 SP:F
EAC7  F0 02     BEQ $EACB                       A:36 X:FF Y:A3 P:67 SP:F
EACB  A9 EB     LDA #$EB                        A:36 X:FF Y:A3 P:67 SP:F
EACD  8D 47 06  STA $0647 = 36                  A:EB X:FF Y:A3 P:E5 SP:F
EAD0  A0 FF     LDY #$FF                        A:EB X:FF Y:A3 P:E5 SP:F
EAD2  20 31 FA  JSR $FA31                       A:EB X:FF Y:FF P:E5 SP:F
FA31  24 01     BIT $01 = FF                    A:EB X:FF Y:FF P:E5 SP:F
FA33  18        CLC                             A:EB X:FF Y:FF P:E5 SP:F
FA34  A9 40     LDA #$40                        A:EB X:FF Y:FF P:E4 SP:F
FA36  60        RTS                             A:40 X:FF Y:FF P:64 SP:F
EAD5  DB 48 05 *DCP $0548,Y @ 0647 = EB         A:40 X:FF Y:FF P:64 SP:F
EAD8  EA        NOP                             A:40 X:FF Y:FF P:64 SP:F
EAD9  EA        NOP                             A:40 X:FF Y:FF P:64 SP:F
EADA  08        PHP                             A:40 X:FF Y:FF P:64 SP:F
EADB  48        PHA                             A:40 X:FF Y:FF P:64 SP:F
EADC  A0 A4     LDY #$A4                        A:40 X:FF Y:FF P:64 SP:F
EADE  68        PLA                             A:40 X:FF Y:A4 P:E4 SP:F
EADF  28        PLP                             A:40 X:FF Y:A4 P:64 SP:F
EAE0  20 37 FA  JSR $FA37                       A:40 X:FF Y:A4 P:64 SP:F
FA37  50 2C     BVC $FA65                       A:40 X:FF Y:A4 P:64 SP:F
FA39  B0 2A     BCS $FA65                       A:40 X:FF Y:A4 P:64 SP:F
FA3B  30 28     BMI $FA65                       A:40 X:FF Y:A4 P:64 SP:F
FA3D  C9 40     CMP #$40                        A:40 X:FF Y:A4 P:64 SP:F
FA3F  D0 24     BNE $FA65                       A:40 X:FF Y:A4 P:67 SP:F
FA41  60        RTS                             A:40 X:FF Y:A4 P:67 SP:F
EAE3  AD 47 06  LDA $0647 = EA                  A:40 X:FF Y:A4 P:67 SP:F
EAE6  C9 EA     CMP #$EA                        A:EA X:FF Y:A4 P:E5 SP:F
EAE8  F0 02     BEQ $EAEC                       A:EA X:FF Y:A4 P:67 SP:F
EAEC  A0 FF     LDY #$FF                        A:EA X:FF Y:A4 P:67 SP:F
EAEE  A9 00     LDA #$00                        A:EA X:FF Y:FF P:E5 SP:F
EAF0  8D 47 06  STA $0647 = EA                  A:00 X:FF Y:FF P:67 SP:F
EAF3  20 42 FA  JSR $FA42                       A:00 X:FF Y:FF P:67 SP:F
FA42  B8        CLV                             A:00 X:FF Y:FF P:67 SP:F
FA43  38        SEC                             A:00 X:FF Y:FF P:27 SP:F
FA44  A9 FF     LDA #$FF                        A:00 X:FF Y:FF P:27 SP:F
FA46  60        RTS                             A:FF X:FF Y:FF P:A5 SP:F
EAF6  DB 48 05 *DCP $0548,Y @ 0647 = 00         A:FF X:FF Y:FF P:A5 SP:F
EAF9  EA        NOP                             A:FF X:FF Y:FF P:27 SP:F
EAFA  EA        NOP                             A:FF X:FF Y:FF P:27 SP:F
EAFB  08        PHP                             A:FF X:FF Y:FF P:27 SP:F
EAFC  48        PHA                             A:FF X:FF Y:FF P:27 SP:F
EAFD  A0 A5     LDY #$A5                        A:FF X:FF Y:FF P:27 SP:F
EAFF  68        PLA                             A:FF X:FF Y:A5 P:A5 SP:F
EB00  28        PLP                             A:FF X:FF Y:A5 P:A5 SP:F
EB01  20 47 FA  JSR $FA47                       A:FF X:FF Y:A5 P:27 SP:F
FA47  70 1C     BVS $FA65                       A:FF X:FF Y:A5 P:27 SP:F
FA49  D0 1A     BNE $FA65                       A:FF X:FF Y:A5 P:27 SP:F
FA4B  30 18     BMI $FA65                       A:FF X:FF Y:A5 P:27 SP:F
FA4D  90 16     BCC $FA65                       A:FF X:FF Y:A5 P:27 SP:F
FA4F  C9 FF     CMP #$FF                        A:FF X:FF Y:A5 P:27 SP:F
FA51  D0 12     BNE $FA65                       A:FF X:FF Y:A5 P:27 SP:F
FA53  60        RTS                             A:FF X:FF Y:A5 P:27 SP:F
EB04  AD 47 06  LDA $0647 = FF                  A:FF X:FF Y:A5 P:27 SP:F
EB07  C9 FF     CMP #$FF                        A:FF X:FF Y:A5 P:A5 SP:F
EB09  F0 02     BEQ $EB0D                       A:FF X:FF Y:A5 P:27 SP:F
EB0D  A0 FF     LDY #$FF                        A:FF X:FF Y:A5 P:27 SP:F
EB0F  A9 37     LDA #$37                        A:FF X:FF Y:FF P:A5 SP:F
EB11  8D 47 06  STA $0647 = FF                  A:37 X:FF Y:FF P:25 SP:F
EB14  20 54 FA  JSR $FA54                       A:37 X:FF Y:FF P:25 SP:F
FA54  24 01     BIT $01 = FF                    A:37 X:FF Y:FF P:25 SP:F
FA56  A9 F0     LDA #$F0                        A:37 X:FF Y:FF P:E5 SP:F
FA58  60        RTS                             A:F0 X:FF Y:FF P:E5 SP:F
EB17  DB 48 05 *DCP $0548,Y @ 0647 = 37         A:F0 X:FF Y:FF P:E5 SP:F
EB1A  EA        NOP                             A:F0 X:FF Y:FF P:E5 SP:F
EB1B  EA        NOP                             A:F0 X:FF Y:FF P:E5 SP:F
EB1C  08        PHP                             A:F0 X:FF Y:FF P:E5 SP:F
EB1D  48        PHA                             A:F0 X:FF Y:FF P:E5 SP:F
EB1E  A0 A6     LDY #$A6                        A:F0 X:FF Y:FF P:E5 SP:F
EB20  68        PLA                             A:F0 X:FF Y:A6 P:E5 SP:F
EB21  28        PLP                             A:F0 X:FF Y:A6 P:E5 SP:F
EB22  20 59 FA  JSR $FA59                       A:F0 X:FF Y:A6 P:E5 SP:F
FA59  50 0A     BVC $FA65                       A:F0 X:FF Y:A6 P:E5 SP:F
FA5B  F0 08     BEQ $FA65                       A:F0 X:FF Y:A6 P:E5 SP:F
FA5D  10 06     BPL $FA65                       A:F0 X:FF Y:A6 P:E5 SP:F
FA5F  90 04     BCC $FA65                       A:F0 X:FF Y:A6 P:E5 SP:F
FA61  C9 F0     CMP #$F0                        A:F0 X:FF Y:A6 P:E5 SP:F
FA63  F0 02     BEQ $FA67                       A:F0 X:FF Y:A6 P:67 SP:F
FA67  60        RTS                             A:F0 X:FF Y:A6 P:67 SP:F
EB25  AD 47 06  LDA $0647 = 36                  A:F0 X:FF Y:A6 P:67 SP:F
EB28  C9 36     CMP #$36                        A:36 X:FF Y:A6 P:65 SP:F
EB2A  F0 02     BEQ $EB2E                       A:36 X:FF Y:A6 P:67 SP:F
EB2E  A0 A7     LDY #$A7                        A:36 X:FF Y:A6 P:67 SP:F
EB30  A2 FF     LDX #$FF                        A:36 X:FF Y:A7 P:E5 SP:F
EB32  A9 EB     LDA #$EB                        A:36 X:FF Y:A7 P:E5 SP:F
EB34  8D 47 06  STA $0647 = 36                  A:EB X:FF Y:A7 P:E5 SP:F
EB37  20 31 FA  JSR $FA31                       A:EB X:FF Y:A7 P:E5 SP:F
FA31  24 01     BIT $01 = FF                    A:EB X:FF Y:A7 P:E5 SP:F
FA33  18        CLC                             A:EB X:FF Y:A7 P:E5 SP:F
FA34  A9 40     LDA #$40                        A:EB X:FF Y:A7 P:E4 SP:F
FA36  60        RTS                             A:40 X:FF Y:A7 P:64 SP:F
EB3A  DF 48 05 *DCP $0548,X @ 0647 = EB         A:40 X:FF Y:A7 P:64 SP:F
EB3D  EA        NOP                             A:40 X:FF Y:A7 P:64 SP:F
EB3E  EA        NOP                             A:40 X:FF Y:A7 P:64 SP:F
EB3F  EA        NOP                             A:40 X:FF Y:A7 P:64 SP:F
EB40  EA        NOP                             A:40 X:FF Y:A7 P:64 SP:F
EB41  20 37 FA  JSR $FA37                       A:40 X:FF Y:A7 P:64 SP:F
FA37  50 2C     BVC $FA65                       A:40 X:FF Y:A7 P:64 SP:F
FA39  B0 2A     BCS $FA65                       A:40 X:FF Y:A7 P:64 SP:F
FA3B  30 28     BMI $FA65                       A:40 X:FF Y:A7 P:64 SP:F
FA3D  C9 40     CMP #$40                        A:40 X:FF Y:A7 P:64 SP:F
FA3F  D0 24     BNE $FA65                       A:40 X:FF Y:A7 P:67 SP:F
FA41  60        RTS                             A:40 X:FF Y:A7 P:67 SP:F
EB44  AD 47 06  LDA $0647 = EA                  A:40 X:FF Y:A7 P:67 SP:F
EB47  C9 EA     CMP #$EA                        A:EA X:FF Y:A7 P:E5 SP:F
EB49  F0 02     BEQ $EB4D                       A:EA X:FF Y:A7 P:67 SP:F
EB4D  C8        INY                             A:EA X:FF Y:A7 P:67 SP:F
EB4E  A9 00     LDA #$00                        A:EA X:FF Y:A8 P:E5 SP:F
EB50  8D 47 06  STA $0647 = EA                  A:00 X:FF Y:A8 P:67 SP:F
EB53  20 42 FA  JSR $FA42                       A:00 X:FF Y:A8 P:67 SP:F
FA42  B8        CLV                             A:00 X:FF Y:A8 P:67 SP:F
FA43  38        SEC                             A:00 X:FF Y:A8 P:27 SP:F
FA44  A9 FF     LDA #$FF                        A:00 X:FF Y:A8 P:27 SP:F
FA46  60        RTS                             A:FF X:FF Y:A8 P:A5 SP:F
EB56  DF 48 05 *DCP $0548,X @ 0647 = 00         A:FF X:FF Y:A8 P:A5 SP:F
EB59  EA        NOP                             A:FF X:FF Y:A8 P:27 SP:F
EB5A  EA        NOP                             A:FF X:FF Y:A8 P:27 SP:F
EB5B  EA        NOP                             A:FF X:FF Y:A8 P:27 SP:F
EB5C  EA        NOP                             A:FF X:FF Y:A8 P:27 SP:F
EB5D  20 47 FA  JSR $FA47                       A:FF X:FF Y:A8 P:27 SP:F
FA47  70 1C     BVS $FA65                       A:FF X:FF Y:A8 P:27 SP:F
FA49  D0 1A     BNE $FA65                       A:FF X:FF Y:A8 P:27 SP:F
FA4B  30 18     BMI $FA65                       A:FF X:FF Y:A8 P:27 SP:F
FA4D  90 16     BCC $FA65                       A:FF X:FF Y:A8 P:27 SP:F
FA4F  C9 FF     CMP #$FF                        A:FF X:FF Y:A8 P:27 SP:F
FA51  D0 12     BNE $FA65                       A:FF X:FF Y:A8 P:27 SP:F
FA53  60        RTS                             A:FF X:FF Y:A8 P:27 SP:F
EB60  AD 47 06  LDA $0647 = FF                  A:FF X:FF Y:A8 P:27 SP:F
EB63  C9 FF     CMP #$FF                        A:FF X:FF Y:A8 P:A5 SP:F
EB65  F0 02     BEQ $EB69                       A:FF X:FF Y:A8 P:27 SP:F
EB69  C8        INY                             A:FF X:FF Y:A8 P:27 SP:F
EB6A  A9 37     LDA #$37                        A:FF X:FF Y:A9 P:A5 SP:F
EB6C  8D 47 06  STA $0647 = FF                  A:37 X:FF Y:A9 P:25 SP:F
EB6F  20 54 FA  JSR $FA54                       A:37 X:FF Y:A9 P:25 SP:F
FA54  24 01     BIT $01 = FF                    A:37 X:FF Y:A9 P:25 SP:F
FA56  A9 F0     LDA #$F0                        A:37 X:FF Y:A9 P:E5 SP:F
FA58  60        RTS                             A:F0 X:FF Y:A9 P:E5 SP:F
EB72  DF 48 05 *DCP $0548,X @ 0647 = 37         A:F0 X:FF Y:A9 P:E5 SP:F
EB75  EA        NOP                             A:F0 X:FF Y:A9 P:E5 SP:F
EB76  EA        NOP                             A:F0 X:FF Y:A9 P:E5 SP:F
EB77  EA        NOP                             A:F0 X:FF Y:A9 P:E5 SP:F
EB78  EA        NOP                             A:F0 X:FF Y:A9 P:E5 SP:F
EB79  20 59 FA  JSR $FA59                       A:F0 X:FF Y:A9 P:E5 SP:F
FA59  50 0A     BVC $FA65                       A:F0 X:FF Y:A9 P:E5 SP:F
FA5B  F0 08     BEQ $FA65                       A:F0 X:FF Y:A9 P:E5 SP:F
FA5D  10 06     BPL $FA65                       A:F0 X:FF Y:A9 P:E5 SP:F
FA5F  90 04     BCC $FA65                       A:F0 X:FF Y:A9 P:E5 SP:F
FA61  C9 F0     CMP #$F0                        A:F0 X:FF Y:A9 P:E5 SP:F
FA63  F0 02     BEQ $FA67                       A:F0 X:FF Y:A9 P:67 SP:F
FA67  60        RTS                             A:F0 X:FF Y:A9 P:67 SP:F
EB7C  AD 47 06  LDA $0647 = 36                  A:F0 X:FF Y:A9 P:67 SP:F
EB7F  C9 36     CMP #$36                        A:36 X:FF Y:A9 P:65 SP:F
EB81  F0 02     BEQ $EB85                       A:36 X:FF Y:A9 P:67 SP:F
EB85  60        RTS                             A:36 X:FF Y:A9 P:67 SP:F
C63E  20 86 EB  JSR $EB86                       A:36 X:FF Y:A9 P:67 SP:F
EB86  A9 FF     LDA #$FF                        A:36 X:FF Y:A9 P:67 SP:F
EB88  85 01     STA $01 = FF                    A:FF X:FF Y:A9 P:E5 SP:F
EB8A  A0 AA     LDY #$AA                        A:FF X:FF Y:A9 P:E5 SP:F
EB8C  A2 02     LDX #$02                        A:FF X:FF Y:AA P:E5 SP:F
EB8E  A9 47     LDA #$47                        A:FF X:02 Y:AA P:65 SP:F
EB90  85 47     STA $47 = 36                    A:47 X:02 Y:AA P:65 SP:F
EB92  A9 06     LDA #$06                        A:47 X:02 Y:AA P:65 SP:F
EB94  85 48     STA $48 = 06                    A:06 X:02 Y:AA P:65 SP:F
EB96  A9 EB     LDA #$EB                        A:06 X:02 Y:AA P:65 SP:F
EB98  8D 47 06  STA $0647 = 36                  A:EB X:02 Y:AA P:E5 SP:F
EB9B  20 B1 FA  JSR $FAB1                       A:EB X:02 Y:AA P:E5 SP:F
FAB1  24 01     BIT $01 = FF                    A:EB X:02 Y:AA P:E5 SP:F
FAB3  18        CLC                             A:EB X:02 Y:AA P:E5 SP:F
FAB4  A9 40     LDA #$40                        A:EB X:02 Y:AA P:E4 SP:F
FAB6  60        RTS                             A:40 X:02 Y:AA P:64 SP:F
EB9E  E3 45    *ISB ($45,X) @ 47 = 0647 = EB    A:40 X:02 Y:AA P:64 SP:F
EBA0  EA        NOP                             A:53 X:02 Y:AA P:24 SP:F
EBA1  EA        NOP                             A:53 X:02 Y:AA P:24 SP:F
EBA2  EA        NOP                             A:53 X:02 Y:AA P:24 SP:F
EBA3  EA        NOP                             A:53 X:02 Y:AA P:24 SP:F
EBA4  20 B7 FA  JSR $FAB7                       A:53 X:02 Y:AA P:24 SP:F
FAB7  70 2D     BVS $FAE6                       A:53 X:02 Y:AA P:24 SP:F
FAB9  B0 2B     BCS $FAE6                       A:53 X:02 Y:AA P:24 SP:F
FABB  30 29     BMI $FAE6                       A:53 X:02 Y:AA P:24 SP:F
FABD  C9 53     CMP #$53                        A:53 X:02 Y:AA P:24 SP:F
FABF  D0 25     BNE $FAE6                       A:53 X:02 Y:AA P:27 SP:F
FAC1  60        RTS                             A:53 X:02 Y:AA P:27 SP:F
EBA7  AD 47 06  LDA $0647 = EC                  A:53 X:02 Y:AA P:27 SP:F
EBAA  C9 EC     CMP #$EC                        A:EC X:02 Y:AA P:A5 SP:F
EBAC  F0 02     BEQ $EBB0                       A:EC X:02 Y:AA P:27 SP:F
EBB0  C8        INY                             A:EC X:02 Y:AA P:27 SP:F
EBB1  A9 FF     LDA #$FF                        A:EC X:02 Y:AB P:A5 SP:F
EBB3  8D 47 06  STA $0647 = EC                  A:FF X:02 Y:AB P:A5 SP:F
EBB6  20 C2 FA  JSR $FAC2                       A:FF X:02 Y:AB P:A5 SP:F
FAC2  B8        CLV                             A:FF X:02 Y:AB P:A5 SP:F
FAC3  38        SEC                             A:FF X:02 Y:AB P:A5 SP:F
FAC4  A9 FF     LDA #$FF                        A:FF X:02 Y:AB P:A5 SP:F
FAC6  60        RTS                             A:FF X:02 Y:AB P:A5 SP:F
EBB9  E3 45    *ISB ($45,X) @ 47 = 0647 = FF    A:FF X:02 Y:AB P:A5 SP:F
EBBB  EA        NOP                             A:FF X:02 Y:AB P:A5 SP:F
EBBC  EA        NOP                             A:FF X:02 Y:AB P:A5 SP:F
EBBD  EA        NOP                             A:FF X:02 Y:AB P:A5 SP:F
EBBE  EA        NOP                             A:FF X:02 Y:AB P:A5 SP:F
EBBF  20 C7 FA  JSR $FAC7                       A:FF X:02 Y:AB P:A5 SP:F
FAC7  70 1D     BVS $FAE6                       A:FF X:02 Y:AB P:A5 SP:F
FAC9  F0 1B     BEQ $FAE6                       A:FF X:02 Y:AB P:A5 SP:F
FACB  10 19     BPL $FAE6                       A:FF X:02 Y:AB P:A5 SP:F
FACD  90 17     BCC $FAE6                       A:FF X:02 Y:AB P:A5 SP:F
FACF  C9 FF     CMP #$FF                        A:FF X:02 Y:AB P:A5 SP:F
FAD1  D0 13     BNE $FAE6                       A:FF X:02 Y:AB P:27 SP:F
FAD3  60        RTS                             A:FF X:02 Y:AB P:27 SP:F
EBC2  AD 47 06  LDA $0647 = 00                  A:FF X:02 Y:AB P:27 SP:F
EBC5  C9 00     CMP #$00                        A:00 X:02 Y:AB P:27 SP:F
EBC7  F0 02     BEQ $EBCB                       A:00 X:02 Y:AB P:27 SP:F
EBCB  C8        INY                             A:00 X:02 Y:AB P:27 SP:F
EBCC  A9 37     LDA #$37                        A:00 X:02 Y:AC P:A5 SP:F
EBCE  8D 47 06  STA $0647 = 00                  A:37 X:02 Y:AC P:25 SP:F
EBD1  20 D4 FA  JSR $FAD4                       A:37 X:02 Y:AC P:25 SP:F
FAD4  24 01     BIT $01 = FF                    A:37 X:02 Y:AC P:25 SP:F
FAD6  38        SEC                             A:37 X:02 Y:AC P:E5 SP:F
FAD7  A9 F0     LDA #$F0                        A:37 X:02 Y:AC P:E5 SP:F
FAD9  60        RTS                             A:F0 X:02 Y:AC P:E5 SP:F
EBD4  E3 45    *ISB ($45,X) @ 47 = 0647 = 37    A:F0 X:02 Y:AC P:E5 SP:F
EBD6  EA        NOP                             A:B8 X:02 Y:AC P:A5 SP:F
EBD7  EA        NOP                             A:B8 X:02 Y:AC P:A5 SP:F
EBD8  EA        NOP                             A:B8 X:02 Y:AC P:A5 SP:F
EBD9  EA        NOP                             A:B8 X:02 Y:AC P:A5 SP:F
EBDA  20 DA FA  JSR $FADA                       A:B8 X:02 Y:AC P:A5 SP:F
FADA  70 0A     BVS $FAE6                       A:B8 X:02 Y:AC P:A5 SP:F
FADC  F0 08     BEQ $FAE6                       A:B8 X:02 Y:AC P:A5 SP:F
FADE  10 06     BPL $FAE6                       A:B8 X:02 Y:AC P:A5 SP:F
FAE0  90 04     BCC $FAE6                       A:B8 X:02 Y:AC P:A5 SP:F
FAE2  C9 B8     CMP #$B8                        A:B8 X:02 Y:AC P:A5 SP:F
FAE4  F0 02     BEQ $FAE8                       A:B8 X:02 Y:AC P:27 SP:F
FAE8  60        RTS                             A:B8 X:02 Y:AC P:27 SP:F
EBDD  AD 47 06  LDA $0647 = 38                  A:B8 X:02 Y:AC P:27 SP:F
EBE0  C9 38     CMP #$38                        A:38 X:02 Y:AC P:25 SP:F
EBE2  F0 02     BEQ $EBE6                       A:38 X:02 Y:AC P:27 SP:F
EBE6  C8        INY                             A:38 X:02 Y:AC P:27 SP:F
EBE7  A9 EB     LDA #$EB                        A:38 X:02 Y:AD P:A5 SP:F
EBE9  85 47     STA $47 = 47                    A:EB X:02 Y:AD P:A5 SP:F
EBEB  20 B1 FA  JSR $FAB1                       A:EB X:02 Y:AD P:A5 SP:F
FAB1  24 01     BIT $01 = FF                    A:EB X:02 Y:AD P:A5 SP:F
FAB3  18        CLC                             A:EB X:02 Y:AD P:E5 SP:F
FAB4  A9 40     LDA #$40                        A:EB X:02 Y:AD P:E4 SP:F
FAB6  60        RTS                             A:40 X:02 Y:AD P:64 SP:F
EBEE  E7 47    *ISB $47 = EB                    A:40 X:02 Y:AD P:64 SP:F
EBF0  EA        NOP                             A:53 X:02 Y:AD P:24 SP:F
EBF1  EA        NOP                             A:53 X:02 Y:AD P:24 SP:F
EBF2  EA        NOP                             A:53 X:02 Y:AD P:24 SP:F
EBF3  EA        NOP                             A:53 X:02 Y:AD P:24 SP:F
EBF4  20 B7 FA  JSR $FAB7                       A:53 X:02 Y:AD P:24 SP:F
FAB7  70 2D     BVS $FAE6                       A:53 X:02 Y:AD P:24 SP:F
FAB9  B0 2B     BCS $FAE6                       A:53 X:02 Y:AD P:24 SP:F
FABB  30 29     BMI $FAE6                       A:53 X:02 Y:AD P:24 SP:F
FABD  C9 53     CMP #$53                        A:53 X:02 Y:AD P:24 SP:F
FABF  D0 25     BNE $FAE6                       A:53 X:02 Y:AD P:27 SP:F
FAC1  60        RTS                             A:53 X:02 Y:AD P:27 SP:F
EBF7  A5 47     LDA $47 = EC                    A:53 X:02 Y:AD P:27 SP:F
EBF9  C9 EC     CMP #$EC                        A:EC X:02 Y:AD P:A5 SP:F
EBFB  F0 02     BEQ $EBFF                       A:EC X:02 Y:AD P:27 SP:F
EBFF  C8        INY                             A:EC X:02 Y:AD P:27 SP:F
EC00  A9 FF     LDA #$FF                        A:EC X:02 Y:AE P:A5 SP:F
EC02  85 47     STA $47 = EC                    A:FF X:02 Y:AE P:A5 SP:F
EC04  20 C2 FA  JSR $FAC2                       A:FF X:02 Y:AE P:A5 SP:F
FAC2  B8        CLV                             A:FF X:02 Y:AE P:A5 SP:F
FAC3  38        SEC                             A:FF X:02 Y:AE P:A5 SP:F
FAC4  A9 FF     LDA #$FF                        A:FF X:02 Y:AE P:A5 SP:F
FAC6  60        RTS                             A:FF X:02 Y:AE P:A5 SP:F
EC07  E7 47    *ISB $47 = FF                    A:FF X:02 Y:AE P:A5 SP:F
EC09  EA        NOP                             A:FF X:02 Y:AE P:A5 SP:F
EC0A  EA        NOP                             A:FF X:02 Y:AE P:A5 SP:F
EC0B  EA        NOP                             A:FF X:02 Y:AE P:A5 SP:F
EC0C  EA        NOP                             A:FF X:02 Y:AE P:A5 SP:F
EC0D  20 C7 FA  JSR $FAC7                       A:FF X:02 Y:AE P:A5 SP:F
FAC7  70 1D     BVS $FAE6                       A:FF X:02 Y:AE P:A5 SP:F
FAC9  F0 1B     BEQ $FAE6                       A:FF X:02 Y:AE P:A5 SP:F
FACB  10 19     BPL $FAE6                       A:FF X:02 Y:AE P:A5 SP:F
FACD  90 17     BCC $FAE6                       A:FF X:02 Y:AE P:A5 SP:F
FACF  C9 FF     CMP #$FF                        A:FF X:02 Y:AE P:A5 SP:F
FAD1  D0 13     BNE $FAE6                       A:FF X:02 Y:AE P:27 SP:F
FAD3  60        RTS                             A:FF X:02 Y:AE P:27 SP:F
EC10  A5 47     LDA $47 = 00                    A:FF X:02 Y:AE P:27 SP:F
EC12  C9 00     CMP #$00                        A:00 X:02 Y:AE P:27 SP:F
EC14  F0 02     BEQ $EC18                       A:00 X:02 Y:AE P:27 SP:F
EC18  C8        INY                             A:00 X:02 Y:AE P:27 SP:F
EC19  A9 37     LDA #$37                        A:00 X:02 Y:AF P:A5 SP:F
EC1B  85 47     STA $47 = 00                    A:37 X:02 Y:AF P:25 SP:F
EC1D  20 D4 FA  JSR $FAD4                       A:37 X:02 Y:AF P:25 SP:F
FAD4  24 01     BIT $01 = FF                    A:37 X:02 Y:AF P:25 SP:F
FAD6  38        SEC                             A:37 X:02 Y:AF P:E5 SP:F
FAD7  A9 F0     LDA #$F0                        A:37 X:02 Y:AF P:E5 SP:F
FAD9  60        RTS                             A:F0 X:02 Y:AF P:E5 SP:F
EC20  E7 47    *ISB $47 = 37                    A:F0 X:02 Y:AF P:E5 SP:F
EC22  EA        NOP                             A:B8 X:02 Y:AF P:A5 SP:F
EC23  EA        NOP                             A:B8 X:02 Y:AF P:A5 SP:F
EC24  EA        NOP                             A:B8 X:02 Y:AF P:A5 SP:F
EC25  EA        NOP                             A:B8 X:02 Y:AF P:A5 SP:F
EC26  20 DA FA  JSR $FADA                       A:B8 X:02 Y:AF P:A5 SP:F
FADA  70 0A     BVS $FAE6                       A:B8 X:02 Y:AF P:A5 SP:F
FADC  F0 08     BEQ $FAE6                       A:B8 X:02 Y:AF P:A5 SP:F
FADE  10 06     BPL $FAE6                       A:B8 X:02 Y:AF P:A5 SP:F
FAE0  90 04     BCC $FAE6                       A:B8 X:02 Y:AF P:A5 SP:F
FAE2  C9 B8     CMP #$B8                        A:B8 X:02 Y:AF P:A5 SP:F
FAE4  F0 02     BEQ $FAE8                       A:B8 X:02 Y:AF P:27 SP:F
FAE8  60        RTS                             A:B8 X:02 Y:AF P:27 SP:F
EC29  A5 47     LDA $47 = 38                    A:B8 X:02 Y:AF P:27 SP:F
EC2B  C9 38     CMP #$38                        A:38 X:02 Y:AF P:25 SP:F
EC2D  F0 02     BEQ $EC31                       A:38 X:02 Y:AF P:27 SP:F
EC31  C8        INY                             A:38 X:02 Y:AF P:27 SP:F
EC32  A9 EB     LDA #$EB                        A:38 X:02 Y:B0 P:A5 SP:F
EC34  8D 47 06  STA $0647 = 38                  A:EB X:02 Y:B0 P:A5 SP:F
EC37  20 B1 FA  JSR $FAB1                       A:EB X:02 Y:B0 P:A5 SP:F
FAB1  24 01     BIT $01 = FF                    A:EB X:02 Y:B0 P:A5 SP:F
FAB3  18        CLC                             A:EB X:02 Y:B0 P:E5 SP:F
FAB4  A9 40     LDA #$40                        A:EB X:02 Y:B0 P:E4 SP:F
FAB6  60        RTS                             A:40 X:02 Y:B0 P:64 SP:F
EC3A  EF 47 06 *ISB $0647 = EB                  A:40 X:02 Y:B0 P:64 SP:F
EC3D  EA        NOP                             A:53 X:02 Y:B0 P:24 SP:F
EC3E  EA        NOP                             A:53 X:02 Y:B0 P:24 SP:F
EC3F  EA        NOP                             A:53 X:02 Y:B0 P:24 SP:F
EC40  EA        NOP                             A:53 X:02 Y:B0 P:24 SP:F
EC41  20 B7 FA  JSR $FAB7                       A:53 X:02 Y:B0 P:24 SP:F
FAB7  70 2D     BVS $FAE6                       A:53 X:02 Y:B0 P:24 SP:F
FAB9  B0 2B     BCS $FAE6                       A:53 X:02 Y:B0 P:24 SP:F
FABB  30 29     BMI $FAE6                       A:53 X:02 Y:B0 P:24 SP:F
FABD  C9 53     CMP #$53                        A:53 X:02 Y:B0 P:24 SP:F
FABF  D0 25     BNE $FAE6                       A:53 X:02 Y:B0 P:27 SP:F
FAC1  60        RTS                             A:53 X:02 Y:B0 P:27 SP:F
EC44  AD 47 06  LDA $0647 = EC                  A:53 X:02 Y:B0 P:27 SP:F
EC47  C9 EC     CMP #$EC                        A:EC X:02 Y:B0 P:A5 SP:F
EC49  F0 02     BEQ $EC4D                       A:EC X:02 Y:B0 P:27 SP:F
EC4D  C8        INY                             A:EC X:02 Y:B0 P:27 SP:F
EC4E  A9 FF     LDA #$FF                        A:EC X:02 Y:B1 P:A5 SP:F
EC50  8D 47 06  STA $0647 = EC                  A:FF X:02 Y:B1 P:A5 SP:F
EC53  20 C2 FA  JSR $FAC2                       A:FF X:02 Y:B1 P:A5 SP:F
FAC2  B8        CLV                             A:FF X:02 Y:B1 P:A5 SP:F
FAC3  38        SEC                             A:FF X:02 Y:B1 P:A5 SP:F
FAC4  A9 FF     LDA #$FF                        A:FF X:02 Y:B1 P:A5 SP:F
FAC6  60        RTS                             A:FF X:02 Y:B1 P:A5 SP:F
EC56  EF 47 06 *ISB $0647 = FF                  A:FF X:02 Y:B1 P:A5 SP:F
EC59  EA        NOP                             A:FF X:02 Y:B1 P:A5 SP:F
EC5A  EA        NOP                             A:FF X:02 Y:B1 P:A5 SP:F
EC5B  EA        NOP                             A:FF X:02 Y:B1 P:A5 SP:F
EC5C  EA        NOP                             A:FF X:02 Y:B1 P:A5 SP:F
EC5D  20 C7 FA  JSR $FAC7                       A:FF X:02 Y:B1 P:A5 SP:F
FAC7  70 1D     BVS $FAE6                       A:FF X:02 Y:B1 P:A5 SP:F
FAC9  F0 1B     BEQ $FAE6                       A:FF X:02 Y:B1 P:A5 SP:F
FACB  10 19     BPL $FAE6                       A:FF X:02 Y:B1 P:A5 SP:F
FACD  90 17     BCC $FAE6                       A:FF X:02 Y:B1 P:A5 SP:F
FACF  C9 FF     CMP #$FF                        A:FF X:02 Y:B1 P:A5 SP:F
FAD1  D0 13     BNE $FAE6                       A:FF X:02 Y:B1 P:27 SP:F
FAD3  60        RTS                             A:FF X:02 Y:B1 P:27 SP:F
EC60  AD 47 06  LDA $0647 = 00                  A:FF X:02 Y:B1 P:27 SP:F
EC63  C9 00     CMP #$00                        A:00 X:02 Y:B1 P:27 SP:F
EC65  F0 02     BEQ $EC69                       A:00 X:02 Y:B1 P:27 SP:F
EC69  C8        INY                             A:00 X:02 Y:B1 P:27 SP:F
EC6A  A9 37     LDA #$37                        A:00 X:02 Y:B2 P:A5 SP:F
EC6C  8D 47 06  STA $0647 = 00                  A:37 X:02 Y:B2 P:25 SP:F
EC6F  20 D4 FA  JSR $FAD4                       A:37 X:02 Y:B2 P:25 SP:F
FAD4  24 01     BIT $01 = FF                    A:37 X:02 Y:B2 P:25 SP:F
FAD6  38        SEC                             A:37 X:02 Y:B2 P:E5 SP:F
FAD7  A9 F0     LDA #$F0                        A:37 X:02 Y:B2 P:E5 SP:F
FAD9  60        RTS                             A:F0 X:02 Y:B2 P:E5 SP:F
EC72  EF 47 06 *ISB $0647 = 37                  A:F0 X:02 Y:B2 P:E5 SP:F
EC75  EA        NOP                             A:B8 X:02 Y:B2 P:A5 SP:F
EC76  EA        NOP                             A:B8 X:02 Y:B2 P:A5 SP:F
EC77  EA        NOP                             A:B8 X:02 Y:B2 P:A5 SP:F
EC78  EA        NOP                             A:B8 X:02 Y:B2 P:A5 SP:F
EC79  20 DA FA  JSR $FADA                       A:B8 X:02 Y:B2 P:A5 SP:F
FADA  70 0A     BVS $FAE6                       A:B8 X:02 Y:B2 P:A5 SP:F
FADC  F0 08     BEQ $FAE6                       A:B8 X:02 Y:B2 P:A5 SP:F
FADE  10 06     BPL $FAE6                       A:B8 X:02 Y:B2 P:A5 SP:F
FAE0  90 04     BCC $FAE6                       A:B8 X:02 Y:B2 P:A5 SP:F
FAE2  C9 B8     CMP #$B8                        A:B8 X:02 Y:B2 P:A5 SP:F
FAE4  F0 02     BEQ $FAE8                       A:B8 X:02 Y:B2 P:27 SP:F
FAE8  60        RTS                             A:B8 X:02 Y:B2 P:27 SP:F
EC7C  AD 47 06  LDA $0647 = 38                  A:B8 X:02 Y:B2 P:27 SP:F
EC7F  C9 38     CMP #$38                        A:38 X:02 Y:B2 P:25 SP:F
EC81  F0 02     BEQ $EC85                       A:38 X:02 Y:B2 P:27 SP:F
EC85  A9 EB     LDA #$EB                        A:38 X:02 Y:B2 P:27 SP:F
EC87  8D 47 06  STA $0647 = 38                  A:EB X:02 Y:B2 P:A5 SP:F
EC8A  A9 48     LDA #$48                        A:EB X:02 Y:B2 P:A5 SP:F
EC8C  85 45     STA $45 = 48                    A:48 X:02 Y:B2 P:25 SP:F
EC8E  A9 05     LDA #$05                        A:48 X:02 Y:B2 P:25 SP:F
EC90  85 46     STA $46 = 05                    A:05 X:02 Y:B2 P:25 SP:F
EC92  A0 FF     LDY #$FF                        A:05 X:02 Y:B2 P:25 SP:F
EC94  20 B1 FA  JSR $FAB1                       A:05 X:02 Y:FF P:A5 SP:F
FAB1  24 01     BIT $01 = FF                    A:05 X:02 Y:FF P:A5 SP:F
FAB3  18        CLC                             A:05 X:02 Y:FF P:E5 SP:F
FAB4  A9 40     LDA #$40                        A:05 X:02 Y:FF P:E4 SP:F
FAB6  60        RTS                             A:40 X:02 Y:FF P:64 SP:F
EC97  F3 45    *ISB ($45),Y = 0548 @ 0647 = EB  A:40 X:02 Y:FF P:64 SP:F
EC99  EA        NOP                             A:53 X:02 Y:FF P:24 SP:F
EC9A  EA        NOP                             A:53 X:02 Y:FF P:24 SP:F
EC9B  08        PHP                             A:53 X:02 Y:FF P:24 SP:F
EC9C  48        PHA                             A:53 X:02 Y:FF P:24 SP:F
EC9D  A0 B3     LDY #$B3                        A:53 X:02 Y:FF P:24 SP:F
EC9F  68        PLA                             A:53 X:02 Y:B3 P:A4 SP:F
ECA0  28        PLP                             A:53 X:02 Y:B3 P:24 SP:F
ECA1  20 B7 FA  JSR $FAB7                       A:53 X:02 Y:B3 P:24 SP:F
FAB7  70 2D     BVS $FAE6                       A:53 X:02 Y:B3 P:24 SP:F
FAB9  B0 2B     BCS $FAE6                       A:53 X:02 Y:B3 P:24 SP:F
FABB  30 29     BMI $FAE6                       A:53 X:02 Y:B3 P:24 SP:F
FABD  C9 53     CMP #$53                        A:53 X:02 Y:B3 P:24 SP:F
FABF  D0 25     BNE $FAE6                       A:53 X:02 Y:B3 P:27 SP:F
FAC1  60        RTS                             A:53 X:02 Y:B3 P:27 SP:F
ECA4  AD 47 06  LDA $0647 = EC                  A:53 X:02 Y:B3 P:27 SP:F
ECA7  C9 EC     CMP #$EC                        A:EC X:02 Y:B3 P:A5 SP:F
ECA9  F0 02     BEQ $ECAD                       A:EC X:02 Y:B3 P:27 SP:F
ECAD  A0 FF     LDY #$FF                        A:EC X:02 Y:B3 P:27 SP:F
ECAF  A9 FF     LDA #$FF                        A:EC X:02 Y:FF P:A5 SP:F
ECB1  8D 47 06  STA $0647 = EC                  A:FF X:02 Y:FF P:A5 SP:F
ECB4  20 C2 FA  JSR $FAC2                       A:FF X:02 Y:FF P:A5 SP:F
FAC2  B8        CLV                             A:FF X:02 Y:FF P:A5 SP:F
FAC3  38        SEC                             A:FF X:02 Y:FF P:A5 SP:F
FAC4  A9 FF     LDA #$FF                        A:FF X:02 Y:FF P:A5 SP:F
FAC6  60        RTS                             A:FF X:02 Y:FF P:A5 SP:F
ECB7  F3 45    *ISB ($45),Y = 0548 @ 0647 = FF  A:FF X:02 Y:FF P:A5 SP:F
ECB9  EA        NOP                             A:FF X:02 Y:FF P:A5 SP:F
ECBA  EA        NOP                             A:FF X:02 Y:FF P:A5 SP:F
ECBB  08        PHP                             A:FF X:02 Y:FF P:A5 SP:F
ECBC  48        PHA                             A:FF X:02 Y:FF P:A5 SP:F
ECBD  A0 B4     LDY #$B4                        A:FF X:02 Y:FF P:A5 SP:F
ECBF  68        PLA                             A:FF X:02 Y:B4 P:A5 SP:F
ECC0  28        PLP                             A:FF X:02 Y:B4 P:A5 SP:F
ECC1  20 C7 FA  JSR $FAC7                       A:FF X:02 Y:B4 P:A5 SP:F
FAC7  70 1D     BVS $FAE6                       A:FF X:02 Y:B4 P:A5 SP:F
FAC9  F0 1B     BEQ $FAE6                       A:FF X:02 Y:B4 P:A5 SP:F
FACB  10 19     BPL $FAE6                       A:FF X:02 Y:B4 P:A5 SP:F
FACD  90 17     BCC $FAE6                       A:FF X:02 Y:B4 P:A5 SP:F
FACF  C9 FF     CMP #$FF                        A:FF X:02 Y:B4 P:A5 SP:F
FAD1  D0 13     BNE $FAE6                       A:FF X:02 Y:B4 P:27 SP:F
FAD3  60        RTS                             A:FF X:02 Y:B4 P:27 SP:F
ECC4  AD 47 06  LDA $0647 = 00                  A:FF X:02 Y:B4 P:27 SP:F
ECC7  C9 00     CMP #$00                        A:00 X:02 Y:B4 P:27 SP:F
ECC9  F0 02     BEQ $ECCD                       A:00 X:02 Y:B4 P:27 SP:F
ECCD  A0 FF     LDY #$FF                        A:00 X:02 Y:B4 P:27 SP:F
ECCF  A9 37     LDA #$37                        A:00 X:02 Y:FF P:A5 SP:F
ECD1  8D 47 06  STA $0647 = 00                  A:37 X:02 Y:FF P:25 SP:F
ECD4  20 D4 FA  JSR $FAD4                       A:37 X:02 Y:FF P:25 SP:F
FAD4  24 01     BIT $01 = FF                    A:37 X:02 Y:FF P:25 SP:F
FAD6  38        SEC                             A:37 X:02 Y:FF P:E5 SP:F
FAD7  A9 F0     LDA #$F0                        A:37 X:02 Y:FF P:E5 SP:F
FAD9  60        RTS                             A:F0 X:02 Y:FF P:E5 SP:F
ECD7  F3 45    *ISB ($45),Y = 0548 @ 0647 = 37  A:F0 X:02 Y:FF P:E5 SP:F
ECD9  EA        NOP                             A:B8 X:02 Y:FF P:A5 SP:F
ECDA  EA        NOP                             A:B8 X:02 Y:FF P:A5 SP:F
ECDB  08        PHP                             A:B8 X:02 Y:FF P:A5 SP:F
ECDC  48        PHA                             A:B8 X:02 Y:FF P:A5 SP:F
ECDD  A0 B5     LDY #$B5                        A:B8 X:02 Y:FF P:A5 SP:F
ECDF  68        PLA                             A:B8 X:02 Y:B5 P:A5 SP:F
ECE0  28        PLP                             A:B8 X:02 Y:B5 P:A5 SP:F
ECE1  20 DA FA  JSR $FADA                       A:B8 X:02 Y:B5 P:A5 SP:F
FADA  70 0A     BVS $FAE6                       A:B8 X:02 Y:B5 P:A5 SP:F
FADC  F0 08     BEQ $FAE6                       A:B8 X:02 Y:B5 P:A5 SP:F
FADE  10 06     BPL $FAE6                       A:B8 X:02 Y:B5 P:A5 SP:F
FAE0  90 04     BCC $FAE6                       A:B8 X:02 Y:B5 P:A5 SP:F
FAE2  C9 B8     CMP #$B8                        A:B8 X:02 Y:B5 P:A5 SP:F
FAE4  F0 02     BEQ $FAE8                       A:B8 X:02 Y:B5 P:27 SP:F
FAE8  60        RTS                             A:B8 X:02 Y:B5 P:27 SP:F
ECE4  AD 47 06  LDA $0647 = 38                  A:B8 X:02 Y:B5 P:27 SP:F
ECE7  C9 38     CMP #$38                        A:38 X:02 Y:B5 P:25 SP:F
ECE9  F0 02     BEQ $ECED                       A:38 X:02 Y:B5 P:27 SP:F
ECED  A0 B6     LDY #$B6                        A:38 X:02 Y:B5 P:27 SP:F
ECEF  A2 FF     LDX #$FF                        A:38 X:02 Y:B6 P:A5 SP:F
ECF1  A9 EB     LDA #$EB                        A:38 X:FF Y:B6 P:A5 SP:F
ECF3  85 47     STA $47 = 38                    A:EB X:FF Y:B6 P:A5 SP:F
ECF5  20 B1 FA  JSR $FAB1                       A:EB X:FF Y:B6 P:A5 SP:F
FAB1  24 01     BIT $01 = FF                    A:EB X:FF Y:B6 P:A5 SP:F
FAB3  18        CLC                             A:EB X:FF Y:B6 P:E5 SP:F
FAB4  A9 40     LDA #$40                        A:EB X:FF Y:B6 P:E4 SP:F
FAB6  60        RTS                             A:40 X:FF Y:B6 P:64 SP:F
ECF8  F7 48    *ISB $48,X @ 47 = EB             A:40 X:FF Y:B6 P:64 SP:F
ECFA  EA        NOP                             A:53 X:FF Y:B6 P:24 SP:F
ECFB  EA        NOP                             A:53 X:FF Y:B6 P:24 SP:F
ECFC  EA        NOP                             A:53 X:FF Y:B6 P:24 SP:F
ECFD  EA        NOP                             A:53 X:FF Y:B6 P:24 SP:F
ECFE  20 B7 FA  JSR $FAB7                       A:53 X:FF Y:B6 P:24 SP:F
FAB7  70 2D     BVS $FAE6                       A:53 X:FF Y:B6 P:24 SP:F
FAB9  B0 2B     BCS $FAE6                       A:53 X:FF Y:B6 P:24 SP:F
FABB  30 29     BMI $FAE6                       A:53 X:FF Y:B6 P:24 SP:F
FABD  C9 53     CMP #$53                        A:53 X:FF Y:B6 P:24 SP:F
FABF  D0 25     BNE $FAE6                       A:53 X:FF Y:B6 P:27 SP:F
FAC1  60        RTS                             A:53 X:FF Y:B6 P:27 SP:F
ED01  A5 47     LDA $47 = EC                    A:53 X:FF Y:B6 P:27 SP:F
ED03  C9 EC     CMP #$EC                        A:EC X:FF Y:B6 P:A5 SP:F
ED05  F0 02     BEQ $ED09                       A:EC X:FF Y:B6 P:27 SP:F
ED09  C8        INY                             A:EC X:FF Y:B6 P:27 SP:F
ED0A  A9 FF     LDA #$FF                        A:EC X:FF Y:B7 P:A5 SP:F
ED0C  85 47     STA $47 = EC                    A:FF X:FF Y:B7 P:A5 SP:F
ED0E  20 C2 FA  JSR $FAC2                       A:FF X:FF Y:B7 P:A5 SP:F
FAC2  B8        CLV                             A:FF X:FF Y:B7 P:A5 SP:F
FAC3  38        SEC                             A:FF X:FF Y:B7 P:A5 SP:F
FAC4  A9 FF     LDA #$FF                        A:FF X:FF Y:B7 P:A5 SP:F
FAC6  60        RTS                             A:FF X:FF Y:B7 P:A5 SP:F
ED11  F7 48    *ISB $48,X @ 47 = FF             A:FF X:FF Y:B7 P:A5 SP:F
ED13  EA        NOP                             A:FF X:FF Y:B7 P:A5 SP:F
ED14  EA        NOP                             A:FF X:FF Y:B7 P:A5 SP:F
ED15  EA        NOP                             A:FF X:FF Y:B7 P:A5 SP:F
ED16  EA        NOP                             A:FF X:FF Y:B7 P:A5 SP:F
ED17  20 C7 FA  JSR $FAC7                       A:FF X:FF Y:B7 P:A5 SP:F
FAC7  70 1D     BVS $FAE6                       A:FF X:FF Y:B7 P:A5 SP:F
FAC9  F0 1B     BEQ $FAE6                       A:FF X:FF Y:B7 P:A5 SP:F
FACB  10 19     BPL $FAE6                       A:FF X:FF Y:B7 P:A5 SP:F
FACD  90 17     BCC $FAE6                       A:FF X:FF Y:B7 P:A5 SP:F
FACF  C9 FF     CMP #$FF                        A:FF X:FF Y:B7 P:A5 SP:F
FAD1  D0 13     BNE $FAE6                       A:FF X:FF Y:B7 P:27 SP:F
FAD3  60        RTS                             A:FF X:FF Y:B7 P:27 SP:F
ED1A  A5 47     LDA $47 = 00                    A:FF X:FF Y:B7 P:27 SP:F
ED1C  C9 00     CMP #$00                        A:00 X:FF Y:B7 P:27 SP:F
ED1E  F0 02     BEQ $ED22                       A:00 X:FF Y:B7 P:27 SP:F
ED22  C8        INY                             A:00 X:FF Y:B7 P:27 SP:F
ED23  A9 37     LDA #$37                        A:00 X:FF Y:B8 P:A5 SP:F
ED25  85 47     STA $47 = 00                    A:37 X:FF Y:B8 P:25 SP:F
ED27  20 D4 FA  JSR $FAD4                       A:37 X:FF Y:B8 P:25 SP:F
FAD4  24 01     BIT $01 = FF                    A:37 X:FF Y:B8 P:25 SP:F
FAD6  38        SEC                             A:37 X:FF Y:B8 P:E5 SP:F
FAD7  A9 F0     LDA #$F0                        A:37 X:FF Y:B8 P:E5 SP:F
FAD9  60        RTS                             A:F0 X:FF Y:B8 P:E5 SP:F
ED2A  F7 48    *ISB $48,X @ 47 = 37             A:F0 X:FF Y:B8 P:E5 SP:F
ED2C  EA        NOP                             A:B8 X:FF Y:B8 P:A5 SP:F
ED2D  EA        NOP                             A:B8 X:FF Y:B8 P:A5 SP:F
ED2E  EA        NOP                             A:B8 X:FF Y:B8 P:A5 SP:F
ED2F  EA        NOP                             A:B8 X:FF Y:B8 P:A5 SP:F
ED30  20 DA FA  JSR $FADA                       A:B8 X:FF Y:B8 P:A5 SP:F
FADA  70 0A     BVS $FAE6                       A:B8 X:FF Y:B8 P:A5 SP:F
FADC  F0 08     BEQ $FAE6                       A:B8 X:FF Y:B8 P:A5 SP:F
FADE  10 06     BPL $FAE6                       A:B8 X:FF Y:B8 P:A5 SP:F
FAE0  90 04     BCC $FAE6                       A:B8 X:FF Y:B8 P:A5 SP:F
FAE2  C9 B8     CMP #$B8                        A:B8 X:FF Y:B8 P:A5 SP:F
FAE4  F0 02     BEQ $FAE8                       A:B8 X:FF Y:B8 P:27 SP:F
FAE8  60        RTS                             A:B8 X:FF Y:B8 P:27 SP:F
ED33  A5 47     LDA $47 = 38                    A:B8 X:FF Y:B8 P:27 SP:F
ED35  C9 38     CMP #$38                        A:38 X:FF Y:B8 P:25 SP:F
ED37  F0 02     BEQ $ED3B                       A:38 X:FF Y:B8 P:27 SP:F
ED3B  A9 EB     LDA #$EB                        A:38 X:FF Y:B8 P:27 SP:F
ED3D  8D 47 06  STA $0647 = 38                  A:EB X:FF Y:B8 P:A5 SP:F
ED40  A0 FF     LDY #$FF                        A:EB X:FF Y:B8 P:A5 SP:F
ED42  20 B1 FA  JSR $FAB1                       A:EB X:FF Y:FF P:A5 SP:F
FAB1  24 01     BIT $01 = FF                    A:EB X:FF Y:FF P:A5 SP:F
FAB3  18        CLC                             A:EB X:FF Y:FF P:E5 SP:F
FAB4  A9 40     LDA #$40                        A:EB X:FF Y:FF P:E4 SP:F
FAB6  60        RTS                             A:40 X:FF Y:FF P:64 SP:F
ED45  FB 48 05 *ISB $0548,Y @ 0647 = EB         A:40 X:FF Y:FF P:64 SP:F
ED48  EA        NOP                             A:53 X:FF Y:FF P:24 SP:F
ED49  EA        NOP                             A:53 X:FF Y:FF P:24 SP:F
ED4A  08        PHP                             A:53 X:FF Y:FF P:24 SP:F
ED4B  48        PHA                             A:53 X:FF Y:FF P:24 SP:F
ED4C  A0 B9     LDY #$B9                        A:53 X:FF Y:FF P:24 SP:F
ED4E  68        PLA                             A:53 X:FF Y:B9 P:A4 SP:F
ED4F  28        PLP                             A:53 X:FF Y:B9 P:24 SP:F
ED50  20 B7 FA  JSR $FAB7                       A:53 X:FF Y:B9 P:24 SP:F
FAB7  70 2D     BVS $FAE6                       A:53 X:FF Y:B9 P:24 SP:F
FAB9  B0 2B     BCS $FAE6                       A:53 X:FF Y:B9 P:24 SP:F
FABB  30 29     BMI $FAE6                       A:53 X:FF Y:B9 P:24 SP:F
FABD  C9 53     CMP #$53                        A:53 X:FF Y:B9 P:24 SP:F
FABF  D0 25     BNE $FAE6                       A:53 X:FF Y:B9 P:27 SP:F
FAC1  60        RTS                             A:53 X:FF Y:B9 P:27 SP:F
ED53  AD 47 06  LDA $0647 = EC                  A:53 X:FF Y:B9 P:27 SP:F
ED56  C9 EC     CMP #$EC                        A:EC X:FF Y:B9 P:A5 SP:F
ED58  F0 02     BEQ $ED5C                       A:EC X:FF Y:B9 P:27 SP:F
ED5C  A0 FF     LDY #$FF                        A:EC X:FF Y:B9 P:27 SP:F
ED5E  A9 FF     LDA #$FF                        A:EC X:FF Y:FF P:A5 SP:F
ED60  8D 47 06  STA $0647 = EC                  A:FF X:FF Y:FF P:A5 SP:F
ED63  20 C2 FA  JSR $FAC2                       A:FF X:FF Y:FF P:A5 SP:F
FAC2  B8        CLV                             A:FF X:FF Y:FF P:A5 SP:F
FAC3  38        SEC                             A:FF X:FF Y:FF P:A5 SP:F
FAC4  A9 FF     LDA #$FF                        A:FF X:FF Y:FF P:A5 SP:F
FAC6  60        RTS                             A:FF X:FF Y:FF P:A5 SP:F
ED66  FB 48 05 *ISB $0548,Y @ 0647 = FF         A:FF X:FF Y:FF P:A5 SP:F
ED69  EA        NOP                             A:FF X:FF Y:FF P:A5 SP:F
ED6A  EA        NOP                             A:FF X:FF Y:FF P:A5 SP:F
ED6B  08        PHP                             A:FF X:FF Y:FF P:A5 SP:F
ED6C  48        PHA                             A:FF X:FF Y:FF P:A5 SP:F
ED6D  A0 BA     LDY #$BA                        A:FF X:FF Y:FF P:A5 SP:F
ED6F  68        PLA                             A:FF X:FF Y:BA P:A5 SP:F
ED70  28        PLP                             A:FF X:FF Y:BA P:A5 SP:F
ED71  20 C7 FA  JSR $FAC7                       A:FF X:FF Y:BA P:A5 SP:F
FAC7  70 1D     BVS $FAE6                       A:FF X:FF Y:BA P:A5 SP:F
FAC9  F0 1B     BEQ $FAE6                       A:FF X:FF Y:BA P:A5 SP:F
FACB  10 19     BPL $FAE6                       A:FF X:FF Y:BA P:A5 SP:F
FACD  90 17     BCC $FAE6                       A:FF X:FF Y:BA P:A5 SP:F
FACF  C9 FF     CMP #$FF                        A:FF X:FF Y:BA P:A5 SP:F
FAD1  D0 13     BNE $FAE6                       A:FF X:FF Y:BA P:27 SP:F
FAD3  60        RTS                             A:FF X:FF Y:BA P:27 SP:F
ED74  AD 47 06  LDA $0647 = 00                  A:FF X:FF Y:BA P:27 SP:F
ED77  C9 00     CMP #$00                        A:00 X:FF Y:BA P:27 SP:F
ED79  F0 02     BEQ $ED7D                       A:00 X:FF Y:BA P:27 SP:F
ED7D  A0 FF     LDY #$FF                        A:00 X:FF Y:BA P:27 SP:F
ED7F  A9 37     LDA #$37                        A:00 X:FF Y:FF P:A5 SP:F
ED81  8D 47 06  STA $0647 = 00                  A:37 X:FF Y:FF P:25 SP:F
ED84  20 D4 FA  JSR $FAD4                       A:37 X:FF Y:FF P:25 SP:F
FAD4  24 01     BIT $01 = FF                    A:37 X:FF Y:FF P:25 SP:F
FAD6  38        SEC                             A:37 X:FF Y:FF P:E5 SP:F
FAD7  A9 F0     LDA #$F0                        A:37 X:FF Y:FF P:E5 SP:F
FAD9  60        RTS                             A:F0 X:FF Y:FF P:E5 SP:F
ED87  FB 48 05 *ISB $0548,Y @ 0647 = 37         A:F0 X:FF Y:FF P:E5 SP:F
ED8A  EA        NOP                             A:B8 X:FF Y:FF P:A5 SP:F
ED8B  EA        NOP                             A:B8 X:FF Y:FF P:A5 SP:F
ED8C  08        PHP                             A:B8 X:FF Y:FF P:A5 SP:F
ED8D  48        PHA                             A:B8 X:FF Y:FF P:A5 SP:F
ED8E  A0 BB     LDY #$BB                        A:B8 X:FF Y:FF P:A5 SP:F
ED90  68        PLA                             A:B8 X:FF Y:BB P:A5 SP:F
ED91  28        PLP                             A:B8 X:FF Y:BB P:A5 SP:F
ED92  20 DA FA  JSR $FADA                       A:B8 X:FF Y:BB P:A5 SP:F
FADA  70 0A     BVS $FAE6                       A:B8 X:FF Y:BB P:A5 SP:F
FADC  F0 08     BEQ $FAE6                       A:B8 X:FF Y:BB P:A5 SP:F
FADE  10 06     BPL $FAE6                       A:B8 X:FF Y:BB P:A5 SP:F
FAE0  90 04     BCC $FAE6                       A:B8 X:FF Y:BB P:A5 SP:F
FAE2  C9 B8     CMP #$B8                        A:B8 X:FF Y:BB P:A5 SP:F
FAE4  F0 02     BEQ $FAE8                       A:B8 X:FF Y:BB P:27 SP:F
FAE8  60        RTS                             A:B8 X:FF Y:BB P:27 SP:F
ED95  AD 47 06  LDA $0647 = 38                  A:B8 X:FF Y:BB P:27 SP:F
ED98  C9 38     CMP #$38                        A:38 X:FF Y:BB P:25 SP:F
ED9A  F0 02     BEQ $ED9E                       A:38 X:FF Y:BB P:27 SP:F
ED9E  A0 BC     LDY #$BC                        A:38 X:FF Y:BB P:27 SP:F
EDA0  A2 FF     LDX #$FF                        A:38 X:FF Y:BC P:A5 SP:F
EDA2  A9 EB     LDA #$EB                        A:38 X:FF Y:BC P:A5 SP:F
EDA4  8D 47 06  STA $0647 = 38                  A:EB X:FF Y:BC P:A5 SP:F
EDA7  20 B1 FA  JSR $FAB1                       A:EB X:FF Y:BC P:A5 SP:F
FAB1  24 01     BIT $01 = FF                    A:EB X:FF Y:BC P:A5 SP:F
FAB3  18        CLC                             A:EB X:FF Y:BC P:E5 SP:F
FAB4  A9 40     LDA #$40                        A:EB X:FF Y:BC P:E4 SP:F
FAB6  60        RTS                             A:40 X:FF Y:BC P:64 SP:F
EDAA  FF 48 05 *ISB $0548,X @ 0647 = EB         A:40 X:FF Y:BC P:64 SP:F
EDAD  EA        NOP                             A:53 X:FF Y:BC P:24 SP:F
EDAE  EA        NOP                             A:53 X:FF Y:BC P:24 SP:F
EDAF  EA        NOP                             A:53 X:FF Y:BC P:24 SP:F
EDB0  EA        NOP                             A:53 X:FF Y:BC P:24 SP:F
EDB1  20 B7 FA  JSR $FAB7                       A:53 X:FF Y:BC P:24 SP:F
FAB7  70 2D     BVS $FAE6                       A:53 X:FF Y:BC P:24 SP:F
FAB9  B0 2B     BCS $FAE6                       A:53 X:FF Y:BC P:24 SP:F
FABB  30 29     BMI $FAE6                       A:53 X:FF Y:BC P:24 SP:F
FABD  C9 53     CMP #$53                        A:53 X:FF Y:BC P:24 SP:F
FABF  D0 25     BNE $FAE6                       A:53 X:FF Y:BC P:27 SP:F
FAC1  60        RTS                             A:53 X:FF Y:BC P:27 SP:F
EDB4  AD 47 06  LDA $0647 = EC                  A:53 X:FF Y:BC P:27 SP:F
EDB7  C9 EC     CMP #$EC                        A:EC X:FF Y:BC P:A5 SP:F
EDB9  F0 02     BEQ $EDBD                       A:EC X:FF Y:BC P:27 SP:F
EDBD  C8        INY                             A:EC X:FF Y:BC P:27 SP:F
EDBE  A9 FF     LDA #$FF                        A:EC X:FF Y:BD P:A5 SP:F
EDC0  8D 47 06  STA $0647 = EC                  A:FF X:FF Y:BD P:A5 SP:F
EDC3  20 C2 FA  JSR $FAC2                       A:FF X:FF Y:BD P:A5 SP:F
FAC2  B8        CLV                             A:FF X:FF Y:BD P:A5 SP:F
FAC3  38        SEC                             A:FF X:FF Y:BD P:A5 SP:F
FAC4  A9 FF     LDA #$FF                        A:FF X:FF Y:BD P:A5 SP:F
FAC6  60        RTS                             A:FF X:FF Y:BD P:A5 SP:F
EDC6  FF 48 05 *ISB $0548,X @ 0647 = FF         A:FF X:FF Y:BD P:A5 SP:F
EDC9  EA        NOP                             A:FF X:FF Y:BD P:A5 SP:F
EDCA  EA        NOP                             A:FF X:FF Y:BD P:A5 SP:F
EDCB  EA        NOP                             A:FF X:FF Y:BD P:A5 SP:F
EDCC  EA        NOP                             A:FF X:FF Y:BD P:A5 SP:F
EDCD  20 C7 FA  JSR $FAC7                       A:FF X:FF Y:BD P:A5 SP:F
FAC7  70 1D     BVS $FAE6                       A:FF X:FF Y:BD P:A5 SP:F
FAC9  F0 1B     BEQ $FAE6                       A:FF X:FF Y:BD P:A5 SP:F
FACB  10 19     BPL $FAE6                       A:FF X:FF Y:BD P:A5 SP:F
FACD  90 17     BCC $FAE6                       A:FF X:FF Y:BD P:A5 SP:F
FACF  C9 FF     CMP #$FF                        A:FF X:FF Y:BD P:A5 SP:F
FAD1  D0 13     BNE $FAE6                       A:FF X:FF Y:BD P:27 SP:F
FAD3  60        RTS                             A:FF X:FF Y:BD P:27 SP:F
EDD0  AD 47 06  LDA $0647 = 00                  A:FF X:FF Y:BD P:27 SP:F
EDD3  C9 00     CMP #$00                        A:00 X:FF Y:BD P:27 SP:F
EDD5  F0 02     BEQ $EDD9                       A:00 X:FF Y:BD P:27 SP:F
EDD9  C8        INY                             A:00 X:FF Y:BD P:27 SP:F
EDDA  A9 37     LDA #$37                        A:00 X:FF Y:BE P:A5 SP:F
EDDC  8D 47 06  STA $0647 = 00                  A:37 X:FF Y:BE P:25 SP:F
EDDF  20 D4 FA  JSR $FAD4                       A:37 X:FF Y:BE P:25 SP:F
FAD4  24 01     BIT $01 = FF                    A:37 X:FF Y:BE P:25 SP:F
FAD6  38        SEC                             A:37 X:FF Y:BE P:E5 SP:F
FAD7  A9 F0     LDA #$F0                        A:37 X:FF Y:BE P:E5 SP:F
FAD9  60        RTS                             A:F0 X:FF Y:BE P:E5 SP:F
EDE2  FF 48 05 *ISB $0548,X @ 0647 = 37         A:F0 X:FF Y:BE P:E5 SP:F
EDE5  EA        NOP                             A:B8 X:FF Y:BE P:A5 SP:F
EDE6  EA        NOP                             A:B8 X:FF Y:BE P:A5 SP:F
EDE7  EA        NOP                             A:B8 X:FF Y:BE P:A5 SP:F
EDE8  EA        NOP                             A:B8 X:FF Y:BE P:A5 SP:F
EDE9  20 DA FA  JSR $FADA                       A:B8 X:FF Y:BE P:A5 SP:F
FADA  70 0A     BVS $FAE6                       A:B8 X:FF Y:BE P:A5 SP:F
FADC  F0 08     BEQ $FAE6                       A:B8 X:FF Y:BE P:A5 SP:F
FADE  10 06     BPL $FAE6                       A:B8 X:FF Y:BE P:A5 SP:F
FAE0  90 04     BCC $FAE6                       A:B8 X:FF Y:BE P:A5 SP:F
FAE2  C9 B8     CMP #$B8                        A:B8 X:FF Y:BE P:A5 SP:F
FAE4  F0 02     BEQ $FAE8                       A:B8 X:FF Y:BE P:27 SP:F
FAE8  60        RTS                             A:B8 X:FF Y:BE P:27 SP:F
EDEC  AD 47 06  LDA $0647 = 38                  A:B8 X:FF Y:BE P:27 SP:F
EDEF  C9 38     CMP #$38                        A:38 X:FF Y:BE P:25 SP:F
EDF1  F0 02     BEQ $EDF5                       A:38 X:FF Y:BE P:27 SP:F
EDF5  60        RTS                             A:38 X:FF Y:BE P:27 SP:F
C641  20 F6 ED  JSR $EDF6                       A:38 X:FF Y:BE P:27 SP:F
EDF6  A9 FF     LDA #$FF                        A:38 X:FF Y:BE P:27 SP:F
EDF8  85 01     STA $01 = FF                    A:FF X:FF Y:BE P:A5 SP:F
EDFA  A0 BF     LDY #$BF                        A:FF X:FF Y:BE P:A5 SP:F
EDFC  A2 02     LDX #$02                        A:FF X:FF Y:BF P:A5 SP:F
EDFE  A9 47     LDA #$47                        A:FF X:02 Y:BF P:25 SP:F
EE00  85 47     STA $47 = 38                    A:47 X:02 Y:BF P:25 SP:F
EE02  A9 06     LDA #$06                        A:47 X:02 Y:BF P:25 SP:F
EE04  85 48     STA $48 = 06                    A:06 X:02 Y:BF P:25 SP:F
EE06  A9 A5     LDA #$A5                        A:06 X:02 Y:BF P:25 SP:F
EE08  8D 47 06  STA $0647 = 38                  A:A5 X:02 Y:BF P:A5 SP:F
EE0B  20 7B FA  JSR $FA7B                       A:A5 X:02 Y:BF P:A5 SP:F
FA7B  24 01     BIT $01 = FF                    A:A5 X:02 Y:BF P:A5 SP:F
FA7D  18        CLC                             A:A5 X:02 Y:BF P:E5 SP:F
FA7E  A9 B3     LDA #$B3                        A:A5 X:02 Y:BF P:E4 SP:F
FA80  60        RTS                             A:B3 X:02 Y:BF P:E4 SP:F
EE0E  03 45    *SLO ($45,X) @ 47 = 0647 = A5    A:B3 X:02 Y:BF P:E4 SP:F
EE10  EA        NOP                             A:FB X:02 Y:BF P:E5 SP:F
EE11  EA        NOP                             A:FB X:02 Y:BF P:E5 SP:F
EE12  EA        NOP                             A:FB X:02 Y:BF P:E5 SP:F
EE13  EA        NOP                             A:FB X:02 Y:BF P:E5 SP:F
EE14  20 81 FA  JSR $FA81                       A:FB X:02 Y:BF P:E5 SP:F
FA81  50 63     BVC $FAE6                       A:FB X:02 Y:BF P:E5 SP:F
FA83  90 61     BCC $FAE6                       A:FB X:02 Y:BF P:E5 SP:F
FA85  10 5F     BPL $FAE6                       A:FB X:02 Y:BF P:E5 SP:F
FA87  C9 FB     CMP #$FB                        A:FB X:02 Y:BF P:E5 SP:F
FA89  D0 5B     BNE $FAE6                       A:FB X:02 Y:BF P:67 SP:F
FA8B  60        RTS                             A:FB X:02 Y:BF P:67 SP:F
EE17  AD 47 06  LDA $0647 = 4A                  A:FB X:02 Y:BF P:67 SP:F
EE1A  C9 4A     CMP #$4A                        A:4A X:02 Y:BF P:65 SP:F
EE1C  F0 02     BEQ $EE20                       A:4A X:02 Y:BF P:67 SP:F
EE20  C8        INY                             A:4A X:02 Y:BF P:67 SP:F
EE21  A9 29     LDA #$29                        A:4A X:02 Y:C0 P:E5 SP:F
EE23  8D 47 06  STA $0647 = 4A                  A:29 X:02 Y:C0 P:65 SP:F
EE26  20 8C FA  JSR $FA8C                       A:29 X:02 Y:C0 P:65 SP:F
FA8C  B8        CLV                             A:29 X:02 Y:C0 P:65 SP:F
FA8D  18        CLC                             A:29 X:02 Y:C0 P:25 SP:F
FA8E  A9 C3     LDA #$C3                        A:29 X:02 Y:C0 P:24 SP:F
FA90  60        RTS                             A:C3 X:02 Y:C0 P:A4 SP:F
EE29  03 45    *SLO ($45,X) @ 47 = 0647 = 29    A:C3 X:02 Y:C0 P:A4 SP:F
EE2B  EA        NOP                             A:D3 X:02 Y:C0 P:A4 SP:F
EE2C  EA        NOP                             A:D3 X:02 Y:C0 P:A4 SP:F
EE2D  EA        NOP                             A:D3 X:02 Y:C0 P:A4 SP:F
EE2E  EA        NOP                             A:D3 X:02 Y:C0 P:A4 SP:F
EE2F  20 91 FA  JSR $FA91                       A:D3 X:02 Y:C0 P:A4 SP:F
FA91  70 53     BVS $FAE6                       A:D3 X:02 Y:C0 P:A4 SP:F
FA93  F0 51     BEQ $FAE6                       A:D3 X:02 Y:C0 P:A4 SP:F
FA95  10 4F     BPL $FAE6                       A:D3 X:02 Y:C0 P:A4 SP:F
FA97  B0 4D     BCS $FAE6                       A:D3 X:02 Y:C0 P:A4 SP:F
FA99  C9 D3     CMP #$D3                        A:D3 X:02 Y:C0 P:A4 SP:F
FA9B  D0 49     BNE $FAE6                       A:D3 X:02 Y:C0 P:27 SP:F
FA9D  60        RTS                             A:D3 X:02 Y:C0 P:27 SP:F
EE32  AD 47 06  LDA $0647 = 52                  A:D3 X:02 Y:C0 P:27 SP:F
EE35  C9 52     CMP #$52                        A:52 X:02 Y:C0 P:25 SP:F
EE37  F0 02     BEQ $EE3B                       A:52 X:02 Y:C0 P:27 SP:F
EE3B  C8        INY                             A:52 X:02 Y:C0 P:27 SP:F
EE3C  A9 37     LDA #$37                        A:52 X:02 Y:C1 P:A5 SP:F
EE3E  8D 47 06  STA $0647 = 52                  A:37 X:02 Y:C1 P:25 SP:F
EE41  20 9E FA  JSR $FA9E                       A:37 X:02 Y:C1 P:25 SP:F
FA9E  24 01     BIT $01 = FF                    A:37 X:02 Y:C1 P:25 SP:F
FAA0  38        SEC                             A:37 X:02 Y:C1 P:E5 SP:F
FAA1  A9 10     LDA #$10                        A:37 X:02 Y:C1 P:E5 SP:F
FAA3  60        RTS                             A:10 X:02 Y:C1 P:65 SP:F
EE44  03 45    *SLO ($45,X) @ 47 = 0647 = 37    A:10 X:02 Y:C1 P:65 SP:F
EE46  EA        NOP                             A:7E X:02 Y:C1 P:64 SP:F
EE47  EA        NOP                             A:7E X:02 Y:C1 P:64 SP:F
EE48  EA        NOP                             A:7E X:02 Y:C1 P:64 SP:F
EE49  EA        NOP                             A:7E X:02 Y:C1 P:64 SP:F
EE4A  20 A4 FA  JSR $FAA4                       A:7E X:02 Y:C1 P:64 SP:F
FAA4  50 40     BVC $FAE6                       A:7E X:02 Y:C1 P:64 SP:F
FAA6  F0 3E     BEQ $FAE6                       A:7E X:02 Y:C1 P:64 SP:F
FAA8  30 3C     BMI $FAE6                       A:7E X:02 Y:C1 P:64 SP:F
FAAA  B0 3A     BCS $FAE6                       A:7E X:02 Y:C1 P:64 SP:F
FAAC  C9 7E     CMP #$7E                        A:7E X:02 Y:C1 P:64 SP:F
FAAE  D0 36     BNE $FAE6                       A:7E X:02 Y:C1 P:67 SP:F
FAB0  60        RTS                             A:7E X:02 Y:C1 P:67 SP:F
EE4D  AD 47 06  LDA $0647 = 6E                  A:7E X:02 Y:C1 P:67 SP:F
EE50  C9 6E     CMP #$6E                        A:6E X:02 Y:C1 P:65 SP:F
EE52  F0 02     BEQ $EE56                       A:6E X:02 Y:C1 P:67 SP:F
EE56  C8        INY                             A:6E X:02 Y:C1 P:67 SP:F
EE57  A9 A5     LDA #$A5                        A:6E X:02 Y:C2 P:E5 SP:F
EE59  85 47     STA $47 = 47                    A:A5 X:02 Y:C2 P:E5 SP:F
EE5B  20 7B FA  JSR $FA7B                       A:A5 X:02 Y:C2 P:E5 SP:F
FA7B  24 01     BIT $01 = FF                    A:A5 X:02 Y:C2 P:E5 SP:F
FA7D  18        CLC                             A:A5 X:02 Y:C2 P:E5 SP:F
FA7E  A9 B3     LDA #$B3                        A:A5 X:02 Y:C2 P:E4 SP:F
FA80  60        RTS                             A:B3 X:02 Y:C2 P:E4 SP:F
EE5E  07 47    *SLO $47 = A5                    A:B3 X:02 Y:C2 P:E4 SP:F
EE60  EA        NOP                             A:FB X:02 Y:C2 P:E5 SP:F
EE61  EA        NOP                             A:FB X:02 Y:C2 P:E5 SP:F
EE62  EA        NOP                             A:FB X:02 Y:C2 P:E5 SP:F
EE63  EA        NOP                             A:FB X:02 Y:C2 P:E5 SP:F
EE64  20 81 FA  JSR $FA81                       A:FB X:02 Y:C2 P:E5 SP:F
FA81  50 63     BVC $FAE6                       A:FB X:02 Y:C2 P:E5 SP:F
FA83  90 61     BCC $FAE6                       A:FB X:02 Y:C2 P:E5 SP:F
FA85  10 5F     BPL $FAE6                       A:FB X:02 Y:C2 P:E5 SP:F
FA87  C9 FB     CMP #$FB                        A:FB X:02 Y:C2 P:E5 SP:F
FA89  D0 5B     BNE $FAE6                       A:FB X:02 Y:C2 P:67 SP:F
FA8B  60        RTS                             A:FB X:02 Y:C2 P:67 SP:F
EE67  A5 47     LDA $47 = 4A                    A:FB X:02 Y:C2 P:67 SP:F
EE69  C9 4A     CMP #$4A                        A:4A X:02 Y:C2 P:65 SP:F
EE6B  F0 02     BEQ $EE6F                       A:4A X:02 Y:C2 P:67 SP:F
EE6F  C8        INY                             A:4A X:02 Y:C2 P:67 SP:F
EE70  A9 29     LDA #$29                        A:4A X:02 Y:C3 P:E5 SP:F
EE72  85 47     STA $47 = 4A                    A:29 X:02 Y:C3 P:65 SP:F
EE74  20 8C FA  JSR $FA8C                       A:29 X:02 Y:C3 P:65 SP:F
FA8C  B8        CLV                             A:29 X:02 Y:C3 P:65 SP:F
FA8D  18        CLC                             A:29 X:02 Y:C3 P:25 SP:F
FA8E  A9 C3     LDA #$C3                        A:29 X:02 Y:C3 P:24 SP:F
FA90  60        RTS                             A:C3 X:02 Y:C3 P:A4 SP:F
EE77  07 47    *SLO $47 = 29                    A:C3 X:02 Y:C3 P:A4 SP:F
EE79  EA        NOP                             A:D3 X:02 Y:C3 P:A4 SP:F
EE7A  EA        NOP                             A:D3 X:02 Y:C3 P:A4 SP:F
EE7B  EA        NOP                             A:D3 X:02 Y:C3 P:A4 SP:F
EE7C  EA        NOP                             A:D3 X:02 Y:C3 P:A4 SP:F
EE7D  20 91 FA  JSR $FA91                       A:D3 X:02 Y:C3 P:A4 SP:F
FA91  70 53     BVS $FAE6                       A:D3 X:02 Y:C3 P:A4 SP:F
FA93  F0 51     BEQ $FAE6                       A:D3 X:02 Y:C3 P:A4 SP:F
FA95  10 4F     BPL $FAE6                       A:D3 X:02 Y:C3 P:A4 SP:F
FA97  B0 4D     BCS $FAE6                       A:D3 X:02 Y:C3 P:A4 SP:F
FA99  C9 D3     CMP #$D3                        A:D3 X:02 Y:C3 P:A4 SP:F
FA9B  D0 49     BNE $FAE6                       A:D3 X:02 Y:C3 P:27 SP:F
FA9D  60        RTS                             A:D3 X:02 Y:C3 P:27 SP:F
EE80  A5 47     LDA $47 = 52                    A:D3 X:02 Y:C3 P:27 SP:F
EE82  C9 52     CMP #$52                        A:52 X:02 Y:C3 P:25 SP:F
EE84  F0 02     BEQ $EE88                       A:52 X:02 Y:C3 P:27 SP:F
EE88  C8        INY                             A:52 X:02 Y:C3 P:27 SP:F
EE89  A9 37     LDA #$37                        A:52 X:02 Y:C4 P:A5 SP:F
EE8B  85 47     STA $47 = 52                    A:37 X:02 Y:C4 P:25 SP:F
EE8D  20 9E FA  JSR $FA9E                       A:37 X:02 Y:C4 P:25 SP:F
FA9E  24 01     BIT $01 = FF                    A:37 X:02 Y:C4 P:25 SP:F
FAA0  38        SEC                             A:37 X:02 Y:C4 P:E5 SP:F
FAA1  A9 10     LDA #$10                        A:37 X:02 Y:C4 P:E5 SP:F
FAA3  60        RTS                             A:10 X:02 Y:C4 P:65 SP:F
EE90  07 47    *SLO $47 = 37                    A:10 X:02 Y:C4 P:65 SP:F
EE92  EA        NOP                             A:7E X:02 Y:C4 P:64 SP:F
EE93  EA        NOP                             A:7E X:02 Y:C4 P:64 SP:F
EE94  EA        NOP                             A:7E X:02 Y:C4 P:64 SP:F
EE95  EA        NOP                             A:7E X:02 Y:C4 P:64 SP:F
EE96  20 A4 FA  JSR $FAA4                       A:7E X:02 Y:C4 P:64 SP:F
FAA4  50 40     BVC $FAE6                       A:7E X:02 Y:C4 P:64 SP:F
FAA6  F0 3E     BEQ $FAE6                       A:7E X:02 Y:C4 P:64 SP:F
FAA8  30 3C     BMI $FAE6                       A:7E X:02 Y:C4 P:64 SP:F
FAAA  B0 3A     BCS $FAE6                       A:7E X:02 Y:C4 P:64 SP:F
FAAC  C9 7E     CMP #$7E                        A:7E X:02 Y:C4 P:64 SP:F
FAAE  D0 36     BNE $FAE6                       A:7E X:02 Y:C4 P:67 SP:F
FAB0  60        RTS                             A:7E X:02 Y:C4 P:67 SP:F
EE99  A5 47     LDA $47 = 6E                    A:7E X:02 Y:C4 P:67 SP:F
EE9B  C9 6E     CMP #$6E                        A:6E X:02 Y:C4 P:65 SP:F
EE9D  F0 02     BEQ $EEA1                       A:6E X:02 Y:C4 P:67 SP:F
EEA1  C8        INY                             A:6E X:02 Y:C4 P:67 SP:F
EEA2  A9 A5     LDA #$A5                        A:6E X:02 Y:C5 P:E5 SP:F
EEA4  8D 47 06  STA $0647 = 6E                  A:A5 X:02 Y:C5 P:E5 SP:F
EEA7  20 7B FA  JSR $FA7B                       A:A5 X:02 Y:C5 P:E5 SP:F
FA7B  24 01     BIT $01 = FF                    A:A5 X:02 Y:C5 P:E5 SP:F
FA7D  18        CLC                             A:A5 X:02 Y:C5 P:E5 SP:F
FA7E  A9 B3     LDA #$B3                        A:A5 X:02 Y:C5 P:E4 SP:F
FA80  60        RTS                             A:B3 X:02 Y:C5 P:E4 SP:F
EEAA  0F 47 06 *SLO $0647 = A5                  A:B3 X:02 Y:C5 P:E4 SP:F
EEAD  EA        NOP                             A:FB X:02 Y:C5 P:E5 SP:F
EEAE  EA        NOP                             A:FB X:02 Y:C5 P:E5 SP:F
EEAF  EA        NOP                             A:FB X:02 Y:C5 P:E5 SP:F
EEB0  EA        NOP                             A:FB X:02 Y:C5 P:E5 SP:F
EEB1  20 81 FA  JSR $FA81                       A:FB X:02 Y:C5 P:E5 SP:F
FA81  50 63     BVC $FAE6                       A:FB X:02 Y:C5 P:E5 SP:F
FA83  90 61     BCC $FAE6                       A:FB X:02 Y:C5 P:E5 SP:F
FA85  10 5F     BPL $FAE6                       A:FB X:02 Y:C5 P:E5 SP:F
FA87  C9 FB     CMP #$FB                        A:FB X:02 Y:C5 P:E5 SP:F
FA89  D0 5B     BNE $FAE6                       A:FB X:02 Y:C5 P:67 SP:F
FA8B  60        RTS                             A:FB X:02 Y:C5 P:67 SP:F
EEB4  AD 47 06  LDA $0647 = 4A                  A:FB X:02 Y:C5 P:67 SP:F
EEB7  C9 4A     CMP #$4A                        A:4A X:02 Y:C5 P:65 SP:F
EEB9  F0 02     BEQ $EEBD                       A:4A X:02 Y:C5 P:67 SP:F
EEBD  C8        INY                             A:4A X:02 Y:C5 P:67 SP:F
EEBE  A9 29     LDA #$29                        A:4A X:02 Y:C6 P:E5 SP:F
EEC0  8D 47 06  STA $0647 = 4A                  A:29 X:02 Y:C6 P:65 SP:F
EEC3  20 8C FA  JSR $FA8C                       A:29 X:02 Y:C6 P:65 SP:F
FA8C  B8        CLV                             A:29 X:02 Y:C6 P:65 SP:F
FA8D  18        CLC                             A:29 X:02 Y:C6 P:25 SP:F
FA8E  A9 C3     LDA #$C3                        A:29 X:02 Y:C6 P:24 SP:F
FA90  60        RTS                             A:C3 X:02 Y:C6 P:A4 SP:F
EEC6  0F 47 06 *SLO $0647 = 29                  A:C3 X:02 Y:C6 P:A4 SP:F
EEC9  EA        NOP                             A:D3 X:02 Y:C6 P:A4 SP:F
EECA  EA        NOP                             A:D3 X:02 Y:C6 P:A4 SP:F
EECB  EA        NOP                             A:D3 X:02 Y:C6 P:A4 SP:F
EECC  EA        NOP                             A:D3 X:02 Y:C6 P:A4 SP:F
EECD  20 91 FA  JSR $FA91                       A:D3 X:02 Y:C6 P:A4 SP:F
FA91  70 53     BVS $FAE6                       A:D3 X:02 Y:C6 P:A4 SP:F
FA93  F0 51     BEQ $FAE6                       A:D3 X:02 Y:C6 P:A4 SP:F
FA95  10 4F     BPL $FAE6                       A:D3 X:02 Y:C6 P:A4 SP:F
FA97  B0 4D     BCS $FAE6                       A:D3 X:02 Y:C6 P:A4 SP:F
FA99  C9 D3     CMP #$D3                        A:D3 X:02 Y:C6 P:A4 SP:F
FA9B  D0 49     BNE $FAE6                       A:D3 X:02 Y:C6 P:27 SP:F
FA9D  60        RTS                             A:D3 X:02 Y:C6 P:27 SP:F
EED0  AD 47 06  LDA $0647 = 52                  A:D3 X:02 Y:C6 P:27 SP:F
EED3  C9 52     CMP #$52                        A:52 X:02 Y:C6 P:25 SP:F
EED5  F0 02     BEQ $EED9                       A:52 X:02 Y:C6 P:27 SP:F
EED9  C8        INY                             A:52 X:02 Y:C6 P:27 SP:F
EEDA  A9 37     LDA #$37                        A:52 X:02 Y:C7 P:A5 SP:F
EEDC  8D 47 06  STA $0647 = 52                  A:37 X:02 Y:C7 P:25 SP:F
EEDF  20 9E FA  JSR $FA9E                       A:37 X:02 Y:C7 P:25 SP:F
FA9E  24 01     BIT $01 = FF                    A:37 X:02 Y:C7 P:25 SP:F
FAA0  38        SEC                             A:37 X:02 Y:C7 P:E5 SP:F
FAA1  A9 10     LDA #$10                        A:37 X:02 Y:C7 P:E5 SP:F
FAA3  60        RTS                             A:10 X:02 Y:C7 P:65 SP:F
EEE2  0F 47 06 *SLO $0647 = 37                  A:10 X:02 Y:C7 P:65 SP:F
EEE5  EA        NOP                             A:7E X:02 Y:C7 P:64 SP:F
EEE6  EA        NOP                             A:7E X:02 Y:C7 P:64 SP:F
EEE7  EA        NOP                             A:7E X:02 Y:C7 P:64 SP:F
EEE8  EA        NOP                             A:7E X:02 Y:C7 P:64 SP:F
EEE9  20 A4 FA  JSR $FAA4                       A:7E X:02 Y:C7 P:64 SP:F
FAA4  50 40     BVC $FAE6                       A:7E X:02 Y:C7 P:64 SP:F
FAA6  F0 3E     BEQ $FAE6                       A:7E X:02 Y:C7 P:64 SP:F
FAA8  30 3C     BMI $FAE6                       A:7E X:02 Y:C7 P:64 SP:F
FAAA  B0 3A     BCS $FAE6                       A:7E X:02 Y:C7 P:64 SP:F
FAAC  C9 7E     CMP #$7E                        A:7E X:02 Y:C7 P:64 SP:F
FAAE  D0 36     BNE $FAE6                       A:7E X:02 Y:C7 P:67 SP:F
FAB0  60        RTS                             A:7E X:02 Y:C7 P:67 SP:F
EEEC  AD 47 06  LDA $0647 = 6E                  A:7E X:02 Y:C7 P:67 SP:F
EEEF  C9 6E     CMP #$6E                        A:6E X:02 Y:C7 P:65 SP:F
EEF1  F0 02     BEQ $EEF5                       A:6E X:02 Y:C7 P:67 SP:F
EEF5  A9 A5     LDA #$A5                        A:6E X:02 Y:C7 P:67 SP:F
EEF7  8D 47 06  STA $0647 = 6E                  A:A5 X:02 Y:C7 P:E5 SP:F
EEFA  A9 48     LDA #$48                        A:A5 X:02 Y:C7 P:E5 SP:F
EEFC  85 45     STA $45 = 48                    A:48 X:02 Y:C7 P:65 SP:F
EEFE  A9 05     LDA #$05                        A:48 X:02 Y:C7 P:65 SP:F
EF00  85 46     STA $46 = 05                    A:05 X:02 Y:C7 P:65 SP:F
EF02  A0 FF     LDY #$FF                        A:05 X:02 Y:C7 P:65 SP:F
EF04  20 7B FA  JSR $FA7B                       A:05 X:02 Y:FF P:E5 SP:F
FA7B  24 01     BIT $01 = FF                    A:05 X:02 Y:FF P:E5 SP:F
FA7D  18        CLC                             A:05 X:02 Y:FF P:E5 SP:F
FA7E  A9 B3     LDA #$B3                        A:05 X:02 Y:FF P:E4 SP:F
FA80  60        RTS                             A:B3 X:02 Y:FF P:E4 SP:F
EF07  13 45    *SLO ($45),Y = 0548 @ 0647 = A5  A:B3 X:02 Y:FF P:E4 SP:F
EF09  EA        NOP                             A:FB X:02 Y:FF P:E5 SP:F
EF0A  EA        NOP                             A:FB X:02 Y:FF P:E5 SP:F
EF0B  08        PHP                             A:FB X:02 Y:FF P:E5 SP:F
EF0C  48        PHA                             A:FB X:02 Y:FF P:E5 SP:F
EF0D  A0 C8     LDY #$C8                        A:FB X:02 Y:FF P:E5 SP:F
EF0F  68        PLA                             A:FB X:02 Y:C8 P:E5 SP:F
EF10  28        PLP                             A:FB X:02 Y:C8 P:E5 SP:F
EF11  20 81 FA  JSR $FA81                       A:FB X:02 Y:C8 P:E5 SP:F
FA81  50 63     BVC $FAE6                       A:FB X:02 Y:C8 P:E5 SP:F
FA83  90 61     BCC $FAE6                       A:FB X:02 Y:C8 P:E5 SP:F
FA85  10 5F     BPL $FAE6                       A:FB X:02 Y:C8 P:E5 SP:F
FA87  C9 FB     CMP #$FB                        A:FB X:02 Y:C8 P:E5 SP:F
FA89  D0 5B     BNE $FAE6                       A:FB X:02 Y:C8 P:67 SP:F
FA8B  60        RTS                             A:FB X:02 Y:C8 P:67 SP:F
EF14  AD 47 06  LDA $0647 = 4A                  A:FB X:02 Y:C8 P:67 SP:F
EF17  C9 4A     CMP #$4A                        A:4A X:02 Y:C8 P:65 SP:F
EF19  F0 02     BEQ $EF1D                       A:4A X:02 Y:C8 P:67 SP:F
EF1D  A0 FF     LDY #$FF                        A:4A X:02 Y:C8 P:67 SP:F
EF1F  A9 29     LDA #$29                        A:4A X:02 Y:FF P:E5 SP:F
EF21  8D 47 06  STA $0647 = 4A                  A:29 X:02 Y:FF P:65 SP:F
EF24  20 8C FA  JSR $FA8C                       A:29 X:02 Y:FF P:65 SP:F
FA8C  B8        CLV                             A:29 X:02 Y:FF P:65 SP:F
FA8D  18        CLC                             A:29 X:02 Y:FF P:25 SP:F
FA8E  A9 C3     LDA #$C3                        A:29 X:02 Y:FF P:24 SP:F
FA90  60        RTS                             A:C3 X:02 Y:FF P:A4 SP:F
EF27  13 45    *SLO ($45),Y = 0548 @ 0647 = 29  A:C3 X:02 Y:FF P:A4 SP:F
EF29  EA        NOP                             A:D3 X:02 Y:FF P:A4 SP:F
EF2A  EA        NOP                             A:D3 X:02 Y:FF P:A4 SP:F
EF2B  08        PHP                             A:D3 X:02 Y:FF P:A4 SP:F
EF2C  48        PHA                             A:D3 X:02 Y:FF P:A4 SP:F
EF2D  A0 C9     LDY #$C9                        A:D3 X:02 Y:FF P:A4 SP:F
EF2F  68        PLA                             A:D3 X:02 Y:C9 P:A4 SP:F
EF30  28        PLP                             A:D3 X:02 Y:C9 P:A4 SP:F
EF31  20 91 FA  JSR $FA91                       A:D3 X:02 Y:C9 P:A4 SP:F
FA91  70 53     BVS $FAE6                       A:D3 X:02 Y:C9 P:A4 SP:F
FA93  F0 51     BEQ $FAE6                       A:D3 X:02 Y:C9 P:A4 SP:F
FA95  10 4F     BPL $FAE6                       A:D3 X:02 Y:C9 P:A4 SP:F
FA97  B0 4D     BCS $FAE6                       A:D3 X:02 Y:C9 P:A4 SP:F
FA99  C9 D3     CMP #$D3                        A:D3 X:02 Y:C9 P:A4 SP:F
FA9B  D0 49     BNE $FAE6                       A:D3 X:02 Y:C9 P:27 SP:F
FA9D  60        RTS                             A:D3 X:02 Y:C9 P:27 SP:F
EF34  AD 47 06  LDA $0647 = 52                  A:D3 X:02 Y:C9 P:27 SP:F
EF37  C9 52     CMP #$52                        A:52 X:02 Y:C9 P:25 SP:F
EF39  F0 02     BEQ $EF3D                       A:52 X:02 Y:C9 P:27 SP:F
EF3D  A0 FF     LDY #$FF                        A:52 X:02 Y:C9 P:27 SP:F
EF3F  A9 37     LDA #$37                        A:52 X:02 Y:FF P:A5 SP:F
EF41  8D 47 06  STA $0647 = 52                  A:37 X:02 Y:FF P:25 SP:F
EF44  20 9E FA  JSR $FA9E                       A:37 X:02 Y:FF P:25 SP:F
FA9E  24 01     BIT $01 = FF                    A:37 X:02 Y:FF P:25 SP:F
FAA0  38        SEC                             A:37 X:02 Y:FF P:E5 SP:F
FAA1  A9 10     LDA #$10                        A:37 X:02 Y:FF P:E5 SP:F
FAA3  60        RTS                             A:10 X:02 Y:FF P:65 SP:F
EF47  13 45    *SLO ($45),Y = 0548 @ 0647 = 37  A:10 X:02 Y:FF P:65 SP:F
EF49  EA        NOP                             A:7E X:02 Y:FF P:64 SP:F
EF4A  EA        NOP                             A:7E X:02 Y:FF P:64 SP:F
EF4B  08        PHP                             A:7E X:02 Y:FF P:64 SP:F
EF4C  48        PHA                             A:7E X:02 Y:FF P:64 SP:F
EF4D  A0 CA     LDY #$CA                        A:7E X:02 Y:FF P:64 SP:F
EF4F  68        PLA                             A:7E X:02 Y:CA P:E4 SP:F
EF50  28        PLP                             A:7E X:02 Y:CA P:64 SP:F
EF51  20 A4 FA  JSR $FAA4                       A:7E X:02 Y:CA P:64 SP:F
FAA4  50 40     BVC $FAE6                       A:7E X:02 Y:CA P:64 SP:F
FAA6  F0 3E     BEQ $FAE6                       A:7E X:02 Y:CA P:64 SP:F
FAA8  30 3C     BMI $FAE6                       A:7E X:02 Y:CA P:64 SP:F
FAAA  B0 3A     BCS $FAE6                       A:7E X:02 Y:CA P:64 SP:F
FAAC  C9 7E     CMP #$7E                        A:7E X:02 Y:CA P:64 SP:F
FAAE  D0 36     BNE $FAE6                       A:7E X:02 Y:CA P:67 SP:F
FAB0  60        RTS                             A:7E X:02 Y:CA P:67 SP:F
EF54  AD 47 06  LDA $0647 = 6E                  A:7E X:02 Y:CA P:67 SP:F
EF57  C9 6E     CMP #$6E                        A:6E X:02 Y:CA P:65 SP:F
EF59  F0 02     BEQ $EF5D                       A:6E X:02 Y:CA P:67 SP:F
EF5D  A0 CB     LDY #$CB                        A:6E X:02 Y:CA P:67 SP:F
EF5F  A2 FF     LDX #$FF                        A:6E X:02 Y:CB P:E5 SP:F
EF61  A9 A5     LDA #$A5                        A:6E X:FF Y:CB P:E5 SP:F
EF63  85 47     STA $47 = 6E                    A:A5 X:FF Y:CB P:E5 SP:F
EF65  20 7B FA  JSR $FA7B                       A:A5 X:FF Y:CB P:E5 SP:F
FA7B  24 01     BIT $01 = FF                    A:A5 X:FF Y:CB P:E5 SP:F
FA7D  18        CLC                             A:A5 X:FF Y:CB P:E5 SP:F
FA7E  A9 B3     LDA #$B3                        A:A5 X:FF Y:CB P:E4 SP:F
FA80  60        RTS                             A:B3 X:FF Y:CB P:E4 SP:F
EF68  17 48    *SLO $48,X @ 47 = A5             A:B3 X:FF Y:CB P:E4 SP:F
EF6A  EA        NOP                             A:FB X:FF Y:CB P:E5 SP:F
EF6B  EA        NOP                             A:FB X:FF Y:CB P:E5 SP:F
EF6C  EA        NOP                             A:FB X:FF Y:CB P:E5 SP:F
EF6D  EA        NOP                             A:FB X:FF Y:CB P:E5 SP:F
EF6E  20 81 FA  JSR $FA81                       A:FB X:FF Y:CB P:E5 SP:F
FA81  50 63     BVC $FAE6                       A:FB X:FF Y:CB P:E5 SP:F
FA83  90 61     BCC $FAE6                       A:FB X:FF Y:CB P:E5 SP:F
FA85  10 5F     BPL $FAE6                       A:FB X:FF Y:CB P:E5 SP:F
FA87  C9 FB     CMP #$FB                        A:FB X:FF Y:CB P:E5 SP:F
FA89  D0 5B     BNE $FAE6                       A:FB X:FF Y:CB P:67 SP:F
FA8B  60        RTS                             A:FB X:FF Y:CB P:67 SP:F
EF71  A5 47     LDA $47 = 4A                    A:FB X:FF Y:CB P:67 SP:F
EF73  C9 4A     CMP #$4A                        A:4A X:FF Y:CB P:65 SP:F
EF75  F0 02     BEQ $EF79                       A:4A X:FF Y:CB P:67 SP:F
EF79  C8        INY                             A:4A X:FF Y:CB P:67 SP:F
EF7A  A9 29     LDA #$29                        A:4A X:FF Y:CC P:E5 SP:F
EF7C  85 47     STA $47 = 4A                    A:29 X:FF Y:CC P:65 SP:F
EF7E  20 8C FA  JSR $FA8C                       A:29 X:FF Y:CC P:65 SP:F
FA8C  B8        CLV                             A:29 X:FF Y:CC P:65 SP:F
FA8D  18        CLC                             A:29 X:FF Y:CC P:25 SP:F
FA8E  A9 C3     LDA #$C3                        A:29 X:FF Y:CC P:24 SP:F
FA90  60        RTS                             A:C3 X:FF Y:CC P:A4 SP:F
EF81  17 48    *SLO $48,X @ 47 = 29             A:C3 X:FF Y:CC P:A4 SP:F
EF83  EA        NOP                             A:D3 X:FF Y:CC P:A4 SP:F
EF84  EA        NOP                             A:D3 X:FF Y:CC P:A4 SP:F
EF85  EA        NOP                             A:D3 X:FF Y:CC P:A4 SP:F
EF86  EA        NOP                             A:D3 X:FF Y:CC P:A4 SP:F
EF87  20 91 FA  JSR $FA91                       A:D3 X:FF Y:CC P:A4 SP:F
FA91  70 53     BVS $FAE6                       A:D3 X:FF Y:CC P:A4 SP:F
FA93  F0 51     BEQ $FAE6                       A:D3 X:FF Y:CC P:A4 SP:F
FA95  10 4F     BPL $FAE6                       A:D3 X:FF Y:CC P:A4 SP:F
FA97  B0 4D     BCS $FAE6                       A:D3 X:FF Y:CC P:A4 SP:F
FA99  C9 D3     CMP #$D3                        A:D3 X:FF Y:CC P:A4 SP:F
FA9B  D0 49     BNE $FAE6                       A:D3 X:FF Y:CC P:27 SP:F
FA9D  60        RTS                             A:D3 X:FF Y:CC P:27 SP:F
EF8A  A5 47     LDA $47 = 52                    A:D3 X:FF Y:CC P:27 SP:F
EF8C  C9 52     CMP #$52                        A:52 X:FF Y:CC P:25 SP:F
EF8E  F0 02     BEQ $EF92                       A:52 X:FF Y:CC P:27 SP:F
EF92  C8        INY                             A:52 X:FF Y:CC P:27 SP:F
EF93  A9 37     LDA #$37                        A:52 X:FF Y:CD P:A5 SP:F
EF95  85 47     STA $47 = 52                    A:37 X:FF Y:CD P:25 SP:F
EF97  20 9E FA  JSR $FA9E                       A:37 X:FF Y:CD P:25 SP:F
FA9E  24 01     BIT $01 = FF                    A:37 X:FF Y:CD P:25 SP:F
FAA0  38        SEC                             A:37 X:FF Y:CD P:E5 SP:F
FAA1  A9 10     LDA #$10                        A:37 X:FF Y:CD P:E5 SP:F
FAA3  60        RTS                             A:10 X:FF Y:CD P:65 SP:F
EF9A  17 48    *SLO $48,X @ 47 = 37             A:10 X:FF Y:CD P:65 SP:F
EF9C  EA        NOP                             A:7E X:FF Y:CD P:64 SP:F
EF9D  EA        NOP                             A:7E X:FF Y:CD P:64 SP:F
EF9E  EA        NOP                             A:7E X:FF Y:CD P:64 SP:F
EF9F  EA        NOP                             A:7E X:FF Y:CD P:64 SP:F
EFA0  20 A4 FA  JSR $FAA4                       A:7E X:FF Y:CD P:64 SP:F
FAA4  50 40     BVC $FAE6                       A:7E X:FF Y:CD P:64 SP:F
FAA6  F0 3E     BEQ $FAE6                       A:7E X:FF Y:CD P:64 SP:F
FAA8  30 3C     BMI $FAE6                       A:7E X:FF Y:CD P:64 SP:F
FAAA  B0 3A     BCS $FAE6                       A:7E X:FF Y:CD P:64 SP:F
FAAC  C9 7E     CMP #$7E                        A:7E X:FF Y:CD P:64 SP:F
FAAE  D0 36     BNE $FAE6                       A:7E X:FF Y:CD P:67 SP:F
FAB0  60        RTS                             A:7E X:FF Y:CD P:67 SP:F
EFA3  A5 47     LDA $47 = 6E                    A:7E X:FF Y:CD P:67 SP:F
EFA5  C9 6E     CMP #$6E                        A:6E X:FF Y:CD P:65 SP:F
EFA7  F0 02     BEQ $EFAB                       A:6E X:FF Y:CD P:67 SP:F
EFAB  A9 A5     LDA #$A5                        A:6E X:FF Y:CD P:67 SP:F
EFAD  8D 47 06  STA $0647 = 6E                  A:A5 X:FF Y:CD P:E5 SP:F
EFB0  A0 FF     LDY #$FF                        A:A5 X:FF Y:CD P:E5 SP:F
EFB2  20 7B FA  JSR $FA7B                       A:A5 X:FF Y:FF P:E5 SP:F
FA7B  24 01     BIT $01 = FF                    A:A5 X:FF Y:FF P:E5 SP:F
FA7D  18        CLC                             A:A5 X:FF Y:FF P:E5 SP:F
FA7E  A9 B3     LDA #$B3                        A:A5 X:FF Y:FF P:E4 SP:F
FA80  60        RTS                             A:B3 X:FF Y:FF P:E4 SP:F
EFB5  1B 48 05 *SLO $0548,Y @ 0647 = A5         A:B3 X:FF Y:FF P:E4 SP:F
EFB8  EA        NOP                             A:FB X:FF Y:FF P:E5 SP:F
EFB9  EA        NOP                             A:FB X:FF Y:FF P:E5 SP:F
EFBA  08        PHP                             A:FB X:FF Y:FF P:E5 SP:F
EFBB  48        PHA                             A:FB X:FF Y:FF P:E5 SP:F
EFBC  A0 CE     LDY #$CE                        A:FB X:FF Y:FF P:E5 SP:F
EFBE  68        PLA                             A:FB X:FF Y:CE P:E5 SP:F
EFBF  28        PLP                             A:FB X:FF Y:CE P:E5 SP:F
EFC0  20 81 FA  JSR $FA81                       A:FB X:FF Y:CE P:E5 SP:F
FA81  50 63     BVC $FAE6                       A:FB X:FF Y:CE P:E5 SP:F
FA83  90 61     BCC $FAE6                       A:FB X:FF Y:CE P:E5 SP:F
FA85  10 5F     BPL $FAE6                       A:FB X:FF Y:CE P:E5 SP:F
FA87  C9 FB     CMP #$FB                        A:FB X:FF Y:CE P:E5 SP:F
FA89  D0 5B     BNE $FAE6                       A:FB X:FF Y:CE P:67 SP:F
FA8B  60        RTS                             A:FB X:FF Y:CE P:67 SP:F
EFC3  AD 47 06  LDA $0647 = 4A                  A:FB X:FF Y:CE P:67 SP:F
EFC6  C9 4A     CMP #$4A                        A:4A X:FF Y:CE P:65 SP:F
EFC8  F0 02     BEQ $EFCC                       A:4A X:FF Y:CE P:67 SP:F
EFCC  A0 FF     LDY #$FF                        A:4A X:FF Y:CE P:67 SP:F
EFCE  A9 29     LDA #$29                        A:4A X:FF Y:FF P:E5 SP:F
EFD0  8D 47 06  STA $0647 = 4A                  A:29 X:FF Y:FF P:65 SP:F
EFD3  20 8C FA  JSR $FA8C                       A:29 X:FF Y:FF P:65 SP:F
FA8C  B8        CLV                             A:29 X:FF Y:FF P:65 SP:F
FA8D  18        CLC                             A:29 X:FF Y:FF P:25 SP:F
FA8E  A9 C3     LDA #$C3                        A:29 X:FF Y:FF P:24 SP:F
FA90  60        RTS                             A:C3 X:FF Y:FF P:A4 SP:F
EFD6  1B 48 05 *SLO $0548,Y @ 0647 = 29         A:C3 X:FF Y:FF P:A4 SP:F
EFD9  EA        NOP                             A:D3 X:FF Y:FF P:A4 SP:F
EFDA  EA        NOP                             A:D3 X:FF Y:FF P:A4 SP:F
EFDB  08        PHP                             A:D3 X:FF Y:FF P:A4 SP:F
EFDC  48        PHA                             A:D3 X:FF Y:FF P:A4 SP:F
EFDD  A0 CF     LDY #$CF                        A:D3 X:FF Y:FF P:A4 SP:F
EFDF  68        PLA                             A:D3 X:FF Y:CF P:A4 SP:F
EFE0  28        PLP                             A:D3 X:FF Y:CF P:A4 SP:F
EFE1  20 91 FA  JSR $FA91                       A:D3 X:FF Y:CF P:A4 SP:F
FA91  70 53     BVS $FAE6                       A:D3 X:FF Y:CF P:A4 SP:F
FA93  F0 51     BEQ $FAE6                       A:D3 X:FF Y:CF P:A4 SP:F
FA95  10 4F     BPL $FAE6                       A:D3 X:FF Y:CF P:A4 SP:F
FA97  B0 4D     BCS $FAE6                       A:D3 X:FF Y:CF P:A4 SP:F
FA99  C9 D3     CMP #$D3                        A:D3 X:FF Y:CF P:A4 SP:F
FA9B  D0 49     BNE $FAE6                       A:D3 X:FF Y:CF P:27 SP:F
FA9D  60        RTS                             A:D3 X:FF Y:CF P:27 SP:F
EFE4  AD 47 06  LDA $0647 = 52                  A:D3 X:FF Y:CF P:27 SP:F
EFE7  C9 52     CMP #$52                        A:52 X:FF Y:CF P:25 SP:F
EFE9  F0 02     BEQ $EFED                       A:52 X:FF Y:CF P:27 SP:F
EFED  A0 FF     LDY #$FF                        A:52 X:FF Y:CF P:27 SP:F
EFEF  A9 37     LDA #$37                        A:52 X:FF Y:FF P:A5 SP:F
EFF1  8D 47 06  STA $0647 = 52                  A:37 X:FF Y:FF P:25 SP:F
EFF4  20 9E FA  JSR $FA9E                       A:37 X:FF Y:FF P:25 SP:F
FA9E  24 01     BIT $01 = FF                    A:37 X:FF Y:FF P:25 SP:F
FAA0  38        SEC                             A:37 X:FF Y:FF P:E5 SP:F
FAA1  A9 10     LDA #$10                        A:37 X:FF Y:FF P:E5 SP:F
FAA3  60        RTS                             A:10 X:FF Y:FF P:65 SP:F
EFF7  1B 48 05 *SLO $0548,Y @ 0647 = 37         A:10 X:FF Y:FF P:65 SP:F
EFFA  EA        NOP                             A:7E X:FF Y:FF P:64 SP:F
EFFB  EA        NOP                             A:7E X:FF Y:FF P:64 SP:F
EFFC  08        PHP                             A:7E X:FF Y:FF P:64 SP:F
EFFD  48        PHA                             A:7E X:FF Y:FF P:64 SP:F
EFFE  A0 D0     LDY #$D0                        A:7E X:FF Y:FF P:64 SP:F
F000  68        PLA                             A:7E X:FF Y:D0 P:E4 SP:F
F001  28        PLP                             A:7E X:FF Y:D0 P:64 SP:F
F002  20 A4 FA  JSR $FAA4                       A:7E X:FF Y:D0 P:64 SP:F
FAA4  50 40     BVC $FAE6                       A:7E X:FF Y:D0 P:64 SP:F
FAA6  F0 3E     BEQ $FAE6                       A:7E X:FF Y:D0 P:64 SP:F
FAA8  30 3C     BMI $FAE6                       A:7E X:FF Y:D0 P:64 SP:F
FAAA  B0 3A     BCS $FAE6                       A:7E X:FF Y:D0 P:64 SP:F
FAAC  C9 7E     CMP #$7E                        A:7E X:FF Y:D0 P:64 SP:F
FAAE  D0 36     BNE $FAE6                       A:7E X:FF Y:D0 P:67 SP:F
FAB0  60        RTS                             A:7E X:FF Y:D0 P:67 SP:F
F005  AD 47 06  LDA $0647 = 6E                  A:7E X:FF Y:D0 P:67 SP:F
F008  C9 6E     CMP #$6E                        A:6E X:FF Y:D0 P:65 SP:F
F00A  F0 02     BEQ $F00E                       A:6E X:FF Y:D0 P:67 SP:F
F00E  A0 D1     LDY #$D1                        A:6E X:FF Y:D0 P:67 SP:F
F010  A2 FF     LDX #$FF                        A:6E X:FF Y:D1 P:E5 SP:F
F012  A9 A5     LDA #$A5                        A:6E X:FF Y:D1 P:E5 SP:F
F014  8D 47 06  STA $0647 = 6E                  A:A5 X:FF Y:D1 P:E5 SP:F
F017  20 7B FA  JSR $FA7B                       A:A5 X:FF Y:D1 P:E5 SP:F
FA7B  24 01     BIT $01 = FF                    A:A5 X:FF Y:D1 P:E5 SP:F
FA7D  18        CLC                             A:A5 X:FF Y:D1 P:E5 SP:F
FA7E  A9 B3     LDA #$B3                        A:A5 X:FF Y:D1 P:E4 SP:F
FA80  60        RTS                             A:B3 X:FF Y:D1 P:E4 SP:F
F01A  1F 48 05 *SLO $0548,X @ 0647 = A5         A:B3 X:FF Y:D1 P:E4 SP:F
F01D  EA        NOP                             A:FB X:FF Y:D1 P:E5 SP:F
F01E  EA        NOP                             A:FB X:FF Y:D1 P:E5 SP:F
F01F  EA        NOP                             A:FB X:FF Y:D1 P:E5 SP:F
F020  EA        NOP                             A:FB X:FF Y:D1 P:E5 SP:F
F021  20 81 FA  JSR $FA81                       A:FB X:FF Y:D1 P:E5 SP:F
FA81  50 63     BVC $FAE6                       A:FB X:FF Y:D1 P:E5 SP:F
FA83  90 61     BCC $FAE6                       A:FB X:FF Y:D1 P:E5 SP:F
FA85  10 5F     BPL $FAE6                       A:FB X:FF Y:D1 P:E5 SP:F
FA87  C9 FB     CMP #$FB                        A:FB X:FF Y:D1 P:E5 SP:F
FA89  D0 5B     BNE $FAE6                       A:FB X:FF Y:D1 P:67 SP:F
FA8B  60        RTS                             A:FB X:FF Y:D1 P:67 SP:F
F024  AD 47 06  LDA $0647 = 4A                  A:FB X:FF Y:D1 P:67 SP:F
F027  C9 4A     CMP #$4A                        A:4A X:FF Y:D1 P:65 SP:F
F029  F0 02     BEQ $F02D                       A:4A X:FF Y:D1 P:67 SP:F
F02D  C8        INY                             A:4A X:FF Y:D1 P:67 SP:F
F02E  A9 29     LDA #$29                        A:4A X:FF Y:D2 P:E5 SP:F
F030  8D 47 06  STA $0647 = 4A                  A:29 X:FF Y:D2 P:65 SP:F
F033  20 8C FA  JSR $FA8C                       A:29 X:FF Y:D2 P:65 SP:F
FA8C  B8        CLV                             A:29 X:FF Y:D2 P:65 SP:F
FA8D  18        CLC                             A:29 X:FF Y:D2 P:25 SP:F
FA8E  A9 C3     LDA #$C3                        A:29 X:FF Y:D2 P:24 SP:F
FA90  60        RTS                             A:C3 X:FF Y:D2 P:A4 SP:F
F036  1F 48 05 *SLO $0548,X @ 0647 = 29         A:C3 X:FF Y:D2 P:A4 SP:F
F039  EA        NOP                             A:D3 X:FF Y:D2 P:A4 SP:F
F03A  EA        NOP                             A:D3 X:FF Y:D2 P:A4 SP:F
F03B  EA        NOP                             A:D3 X:FF Y:D2 P:A4 SP:F
F03C  EA        NOP                             A:D3 X:FF Y:D2 P:A4 SP:F
F03D  20 91 FA  JSR $FA91                       A:D3 X:FF Y:D2 P:A4 SP:F
FA91  70 53     BVS $FAE6                       A:D3 X:FF Y:D2 P:A4 SP:F
FA93  F0 51     BEQ $FAE6                       A:D3 X:FF Y:D2 P:A4 SP:F
FA95  10 4F     BPL $FAE6                       A:D3 X:FF Y:D2 P:A4 SP:F
FA97  B0 4D     BCS $FAE6                       A:D3 X:FF Y:D2 P:A4 SP:F
FA99  C9 D3     CMP #$D3                        A:D3 X:FF Y:D2 P:A4 SP:F
FA9B  D0 49     BNE $FAE6                       A:D3 X:FF Y:D2 P:27 SP:F
FA9D  60        RTS                             A:D3 X:FF Y:D2 P:27 SP:F
F040  AD 47 06  LDA $0647 = 52                  A:D3 X:FF Y:D2 P:27 SP:F
F043  C9 52     CMP #$52                        A:52 X:FF Y:D2 P:25 SP:F
F045  F0 02     BEQ $F049                       A:52 X:FF Y:D2 P:27 SP:F
F049  C8        INY                             A:52 X:FF Y:D2 P:27 SP:F
F04A  A9 37     LDA #$37                        A:52 X:FF Y:D3 P:A5 SP:F
F04C  8D 47 06  STA $0647 = 52                  A:37 X:FF Y:D3 P:25 SP:F
F04F  20 9E FA  JSR $FA9E                       A:37 X:FF Y:D3 P:25 SP:F
FA9E  24 01     BIT $01 = FF                    A:37 X:FF Y:D3 P:25 SP:F
FAA0  38        SEC                             A:37 X:FF Y:D3 P:E5 SP:F
FAA1  A9 10     LDA #$10                        A:37 X:FF Y:D3 P:E5 SP:F
FAA3  60        RTS                             A:10 X:FF Y:D3 P:65 SP:F
F052  1F 48 05 *SLO $0548,X @ 0647 = 37         A:10 X:FF Y:D3 P:65 SP:F
F055  EA        NOP                             A:7E X:FF Y:D3 P:64 SP:F
F056  EA        NOP                             A:7E X:FF Y:D3 P:64 SP:F
F057  EA        NOP                             A:7E X:FF Y:D3 P:64 SP:F
F058  EA        NOP                             A:7E X:FF Y:D3 P:64 SP:F
F059  20 A4 FA  JSR $FAA4                       A:7E X:FF Y:D3 P:64 SP:F
FAA4  50 40     BVC $FAE6                       A:7E X:FF Y:D3 P:64 SP:F
FAA6  F0 3E     BEQ $FAE6                       A:7E X:FF Y:D3 P:64 SP:F
FAA8  30 3C     BMI $FAE6                       A:7E X:FF Y:D3 P:64 SP:F
FAAA  B0 3A     BCS $FAE6                       A:7E X:FF Y:D3 P:64 SP:F
FAAC  C9 7E     CMP #$7E                        A:7E X:FF Y:D3 P:64 SP:F
FAAE  D0 36     BNE $FAE6                       A:7E X:FF Y:D3 P:67 SP:F
FAB0  60        RTS                             A:7E X:FF Y:D3 P:67 SP:F
F05C  AD 47 06  LDA $0647 = 6E                  A:7E X:FF Y:D3 P:67 SP:F
F05F  C9 6E     CMP #$6E                        A:6E X:FF Y:D3 P:65 SP:F
F061  F0 02     BEQ $F065                       A:6E X:FF Y:D3 P:67 SP:F
F065  60        RTS                             A:6E X:FF Y:D3 P:67 SP:F
C644  20 66 F0  JSR $F066                       A:6E X:FF Y:D3 P:67 SP:F
F066  A9 FF     LDA #$FF                        A:6E X:FF Y:D3 P:67 SP:F
F068  85 01     STA $01 = FF                    A:FF X:FF Y:D3 P:E5 SP:F
F06A  A0 D4     LDY #$D4                        A:FF X:FF Y:D3 P:E5 SP:F
F06C  A2 02     LDX #$02                        A:FF X:FF Y:D4 P:E5 SP:F
F06E  A9 47     LDA #$47                        A:FF X:02 Y:D4 P:65 SP:F
F070  85 47     STA $47 = 6E                    A:47 X:02 Y:D4 P:65 SP:F
F072  A9 06     LDA #$06                        A:47 X:02 Y:D4 P:65 SP:F
F074  85 48     STA $48 = 06                    A:06 X:02 Y:D4 P:65 SP:F
F076  A9 A5     LDA #$A5                        A:06 X:02 Y:D4 P:65 SP:F
F078  8D 47 06  STA $0647 = 6E                  A:A5 X:02 Y:D4 P:E5 SP:F
F07B  20 53 FB  JSR $FB53                       A:A5 X:02 Y:D4 P:E5 SP:F
FB53  24 01     BIT $01 = FF                    A:A5 X:02 Y:D4 P:E5 SP:F
FB55  18        CLC                             A:A5 X:02 Y:D4 P:E5 SP:F
FB56  A9 B3     LDA #$B3                        A:A5 X:02 Y:D4 P:E4 SP:F
FB58  60        RTS                             A:B3 X:02 Y:D4 P:E4 SP:F
F07E  23 45    *RLA ($45,X) @ 47 = 0647 = A5    A:B3 X:02 Y:D4 P:E4 SP:F
F080  EA        NOP                             A:02 X:02 Y:D4 P:65 SP:F
F081  EA        NOP                             A:02 X:02 Y:D4 P:65 SP:F
F082  EA        NOP                             A:02 X:02 Y:D4 P:65 SP:F
F083  EA        NOP                             A:02 X:02 Y:D4 P:65 SP:F
F084  20 59 FB  JSR $FB59                       A:02 X:02 Y:D4 P:65 SP:F
FB59  50 1A     BVC $FB75                       A:02 X:02 Y:D4 P:65 SP:F
FB5B  90 18     BCC $FB75                       A:02 X:02 Y:D4 P:65 SP:F
FB5D  30 16     BMI $FB75                       A:02 X:02 Y:D4 P:65 SP:F
FB5F  C9 02     CMP #$02                        A:02 X:02 Y:D4 P:65 SP:F
FB61  D0 12     BNE $FB75                       A:02 X:02 Y:D4 P:67 SP:F
FB63  60        RTS                             A:02 X:02 Y:D4 P:67 SP:F
F087  AD 47 06  LDA $0647 = 4A                  A:02 X:02 Y:D4 P:67 SP:F
F08A  C9 4A     CMP #$4A                        A:4A X:02 Y:D4 P:65 SP:F
F08C  F0 02     BEQ $F090                       A:4A X:02 Y:D4 P:67 SP:F
F090  C8        INY                             A:4A X:02 Y:D4 P:67 SP:F
F091  A9 29     LDA #$29                        A:4A X:02 Y:D5 P:E5 SP:F
F093  8D 47 06  STA $0647 = 4A                  A:29 X:02 Y:D5 P:65 SP:F
F096  20 64 FB  JSR $FB64                       A:29 X:02 Y:D5 P:65 SP:F
FB64  B8        CLV                             A:29 X:02 Y:D5 P:65 SP:F
FB65  18        CLC                             A:29 X:02 Y:D5 P:25 SP:F
FB66  A9 42     LDA #$42                        A:29 X:02 Y:D5 P:24 SP:F
FB68  60        RTS                             A:42 X:02 Y:D5 P:24 SP:F
F099  23 45    *RLA ($45,X) @ 47 = 0647 = 29    A:42 X:02 Y:D5 P:24 SP:F
F09B  EA        NOP                             A:42 X:02 Y:D5 P:24 SP:F
F09C  EA        NOP                             A:42 X:02 Y:D5 P:24 SP:F
F09D  EA        NOP                             A:42 X:02 Y:D5 P:24 SP:F
F09E  EA        NOP                             A:42 X:02 Y:D5 P:24 SP:F
F09F  20 69 FB  JSR $FB69                       A:42 X:02 Y:D5 P:24 SP:F
FB69  70 0A     BVS $FB75                       A:42 X:02 Y:D5 P:24 SP:F
FB6B  F0 08     BEQ $FB75                       A:42 X:02 Y:D5 P:24 SP:F
FB6D  30 06     BMI $FB75                       A:42 X:02 Y:D5 P:24 SP:F
FB6F  B0 04     BCS $FB75                       A:42 X:02 Y:D5 P:24 SP:F
FB71  C9 42     CMP #$42                        A:42 X:02 Y:D5 P:24 SP:F
FB73  F0 02     BEQ $FB77                       A:42 X:02 Y:D5 P:27 SP:F
FB77  60        RTS                             A:42 X:02 Y:D5 P:27 SP:F
F0A2  AD 47 06  LDA $0647 = 52                  A:42 X:02 Y:D5 P:27 SP:F
F0A5  C9 52     CMP #$52                        A:52 X:02 Y:D5 P:25 SP:F
F0A7  F0 02     BEQ $F0AB                       A:52 X:02 Y:D5 P:27 SP:F
F0AB  C8        INY                             A:52 X:02 Y:D5 P:27 SP:F
F0AC  A9 37     LDA #$37                        A:52 X:02 Y:D6 P:A5 SP:F
F0AE  8D 47 06  STA $0647 = 52                  A:37 X:02 Y:D6 P:25 SP:F
F0B1  20 68 FA  JSR $FA68                       A:37 X:02 Y:D6 P:25 SP:F
FA68  24 01     BIT $01 = FF                    A:37 X:02 Y:D6 P:25 SP:F
FA6A  38        SEC                             A:37 X:02 Y:D6 P:E5 SP:F
FA6B  A9 75     LDA #$75                        A:37 X:02 Y:D6 P:E5 SP:F
FA6D  60        RTS                             A:75 X:02 Y:D6 P:65 SP:F
F0B4  23 45    *RLA ($45,X) @ 47 = 0647 = 37    A:75 X:02 Y:D6 P:65 SP:F
F0B6  EA        NOP                             A:65 X:02 Y:D6 P:64 SP:F
F0B7  EA        NOP                             A:65 X:02 Y:D6 P:64 SP:F
F0B8  EA        NOP                             A:65 X:02 Y:D6 P:64 SP:F
F0B9  EA        NOP                             A:65 X:02 Y:D6 P:64 SP:F
F0BA  20 6E FA  JSR $FA6E                       A:65 X:02 Y:D6 P:64 SP:F
FA6E  50 76     BVC $FAE6                       A:65 X:02 Y:D6 P:64 SP:F
FA70  F0 74     BEQ $FAE6                       A:65 X:02 Y:D6 P:64 SP:F
FA72  30 72     BMI $FAE6                       A:65 X:02 Y:D6 P:64 SP:F
FA74  B0 70     BCS $FAE6                       A:65 X:02 Y:D6 P:64 SP:F
FA76  C9 65     CMP #$65                        A:65 X:02 Y:D6 P:64 SP:F
FA78  D0 6C     BNE $FAE6                       A:65 X:02 Y:D6 P:67 SP:F
FA7A  60        RTS                             A:65 X:02 Y:D6 P:67 SP:F
F0BD  AD 47 06  LDA $0647 = 6F                  A:65 X:02 Y:D6 P:67 SP:F
F0C0  C9 6F     CMP #$6F                        A:6F X:02 Y:D6 P:65 SP:F
F0C2  F0 02     BEQ $F0C6                       A:6F X:02 Y:D6 P:67 SP:F
F0C6  C8        INY                             A:6F X:02 Y:D6 P:67 SP:F
F0C7  A9 A5     LDA #$A5                        A:6F X:02 Y:D7 P:E5 SP:F
F0C9  85 47     STA $47 = 47                    A:A5 X:02 Y:D7 P:E5 SP:F
F0CB  20 53 FB  JSR $FB53                       A:A5 X:02 Y:D7 P:E5 SP:F
FB53  24 01     BIT $01 = FF                    A:A5 X:02 Y:D7 P:E5 SP:F
FB55  18        CLC                             A:A5 X:02 Y:D7 P:E5 SP:F
FB56  A9 B3     LDA #$B3                        A:A5 X:02 Y:D7 P:E4 SP:F
FB58  60        RTS                             A:B3 X:02 Y:D7 P:E4 SP:F
F0CE  27 47    *RLA $47 = A5                    A:B3 X:02 Y:D7 P:E4 SP:F
F0D0  EA        NOP                             A:02 X:02 Y:D7 P:65 SP:F
F0D1  EA        NOP                             A:02 X:02 Y:D7 P:65 SP:F
F0D2  EA        NOP                             A:02 X:02 Y:D7 P:65 SP:F
F0D3  EA        NOP                             A:02 X:02 Y:D7 P:65 SP:F
F0D4  20 59 FB  JSR $FB59                       A:02 X:02 Y:D7 P:65 SP:F
FB59  50 1A     BVC $FB75                       A:02 X:02 Y:D7 P:65 SP:F
FB5B  90 18     BCC $FB75                       A:02 X:02 Y:D7 P:65 SP:F
FB5D  30 16     BMI $FB75                       A:02 X:02 Y:D7 P:65 SP:F
FB5F  C9 02     CMP #$02                        A:02 X:02 Y:D7 P:65 SP:F
FB61  D0 12     BNE $FB75                       A:02 X:02 Y:D7 P:67 SP:F
FB63  60        RTS                             A:02 X:02 Y:D7 P:67 SP:F
F0D7  A5 47     LDA $47 = 4A                    A:02 X:02 Y:D7 P:67 SP:F
F0D9  C9 4A     CMP #$4A                        A:4A X:02 Y:D7 P:65 SP:F
F0DB  F0 02     BEQ $F0DF                       A:4A X:02 Y:D7 P:67 SP:F
F0DF  C8        INY                             A:4A X:02 Y:D7 P:67 SP:F
F0E0  A9 29     LDA #$29                        A:4A X:02 Y:D8 P:E5 SP:F
F0E2  85 47     STA $47 = 4A                    A:29 X:02 Y:D8 P:65 SP:F
F0E4  20 64 FB  JSR $FB64                       A:29 X:02 Y:D8 P:65 SP:F
FB64  B8        CLV                             A:29 X:02 Y:D8 P:65 SP:F
FB65  18        CLC                             A:29 X:02 Y:D8 P:25 SP:F
FB66  A9 42     LDA #$42                        A:29 X:02 Y:D8 P:24 SP:F
FB68  60        RTS                             A:42 X:02 Y:D8 P:24 SP:F
F0E7  27 47    *RLA $47 = 29                    A:42 X:02 Y:D8 P:24 SP:F
F0E9  EA        NOP                             A:42 X:02 Y:D8 P:24 SP:F
F0EA  EA        NOP                             A:42 X:02 Y:D8 P:24 SP:F
F0EB  EA        NOP                             A:42 X:02 Y:D8 P:24 SP:F
F0EC  EA        NOP                             A:42 X:02 Y:D8 P:24 SP:F
F0ED  20 69 FB  JSR $FB69                       A:42 X:02 Y:D8 P:24 SP:F
FB69  70 0A     BVS $FB75                       A:42 X:02 Y:D8 P:24 SP:F
FB6B  F0 08     BEQ $FB75                       A:42 X:02 Y:D8 P:24 SP:F
FB6D  30 06     BMI $FB75                       A:42 X:02 Y:D8 P:24 SP:F
FB6F  B0 04     BCS $FB75                       A:42 X:02 Y:D8 P:24 SP:F
FB71  C9 42     CMP #$42                        A:42 X:02 Y:D8 P:24 SP:F
FB73  F0 02     BEQ $FB77                       A:42 X:02 Y:D8 P:27 SP:F
FB77  60        RTS                             A:42 X:02 Y:D8 P:27 SP:F
F0F0  A5 47     LDA $47 = 52                    A:42 X:02 Y:D8 P:27 SP:F
F0F2  C9 52     CMP #$52                        A:52 X:02 Y:D8 P:25 SP:F
F0F4  F0 02     BEQ $F0F8                       A:52 X:02 Y:D8 P:27 SP:F
F0F8  C8        INY                             A:52 X:02 Y:D8 P:27 SP:F
F0F9  A9 37     LDA #$37                        A:52 X:02 Y:D9 P:A5 SP:F
F0FB  85 47     STA $47 = 52                    A:37 X:02 Y:D9 P:25 SP:F
F0FD  20 68 FA  JSR $FA68                       A:37 X:02 Y:D9 P:25 SP:F
FA68  24 01     BIT $01 = FF                    A:37 X:02 Y:D9 P:25 SP:F
FA6A  38        SEC                             A:37 X:02 Y:D9 P:E5 SP:F
FA6B  A9 75     LDA #$75                        A:37 X:02 Y:D9 P:E5 SP:F
FA6D  60        RTS                             A:75 X:02 Y:D9 P:65 SP:F
F100  27 47    *RLA $47 = 37                    A:75 X:02 Y:D9 P:65 SP:F
F102  EA        NOP                             A:65 X:02 Y:D9 P:64 SP:F
F103  EA        NOP                             A:65 X:02 Y:D9 P:64 SP:F
F104  EA        NOP                             A:65 X:02 Y:D9 P:64 SP:F
F105  EA        NOP                             A:65 X:02 Y:D9 P:64 SP:F
F106  20 6E FA  JSR $FA6E                       A:65 X:02 Y:D9 P:64 SP:F
FA6E  50 76     BVC $FAE6                       A:65 X:02 Y:D9 P:64 SP:F
FA70  F0 74     BEQ $FAE6                       A:65 X:02 Y:D9 P:64 SP:F
FA72  30 72     BMI $FAE6                       A:65 X:02 Y:D9 P:64 SP:F
FA74  B0 70     BCS $FAE6                       A:65 X:02 Y:D9 P:64 SP:F
FA76  C9 65     CMP #$65                        A:65 X:02 Y:D9 P:64 SP:F
FA78  D0 6C     BNE $FAE6                       A:65 X:02 Y:D9 P:67 SP:F
FA7A  60        RTS                             A:65 X:02 Y:D9 P:67 SP:F
F109  A5 47     LDA $47 = 6F                    A:65 X:02 Y:D9 P:67 SP:F
F10B  C9 6F     CMP #$6F                        A:6F X:02 Y:D9 P:65 SP:F
F10D  F0 02     BEQ $F111                       A:6F X:02 Y:D9 P:67 SP:F
F111  C8        INY                             A:6F X:02 Y:D9 P:67 SP:F
F112  A9 A5     LDA #$A5                        A:6F X:02 Y:DA P:E5 SP:F
F114  8D 47 06  STA $0647 = 6F                  A:A5 X:02 Y:DA P:E5 SP:F
F117  20 53 FB  JSR $FB53                       A:A5 X:02 Y:DA P:E5 SP:F
FB53  24 01     BIT $01 = FF                    A:A5 X:02 Y:DA P:E5 SP:F
FB55  18        CLC                             A:A5 X:02 Y:DA P:E5 SP:F
FB56  A9 B3     LDA #$B3                        A:A5 X:02 Y:DA P:E4 SP:F
FB58  60        RTS                             A:B3 X:02 Y:DA P:E4 SP:F
F11A  2F 47 06 *RLA $0647 = A5                  A:B3 X:02 Y:DA P:E4 SP:F
F11D  EA        NOP                             A:02 X:02 Y:DA P:65 SP:F
F11E  EA        NOP                             A:02 X:02 Y:DA P:65 SP:F
F11F  EA        NOP                             A:02 X:02 Y:DA P:65 SP:F
F120  EA        NOP                             A:02 X:02 Y:DA P:65 SP:F
F121  20 59 FB  JSR $FB59                       A:02 X:02 Y:DA P:65 SP:F
FB59  50 1A     BVC $FB75                       A:02 X:02 Y:DA P:65 SP:F
FB5B  90 18     BCC $FB75                       A:02 X:02 Y:DA P:65 SP:F
FB5D  30 16     BMI $FB75                       A:02 X:02 Y:DA P:65 SP:F
FB5F  C9 02     CMP #$02                        A:02 X:02 Y:DA P:65 SP:F
FB61  D0 12     BNE $FB75                       A:02 X:02 Y:DA P:67 SP:F
FB63  60        RTS                             A:02 X:02 Y:DA P:67 SP:F
F124  AD 47 06  LDA $0647 = 4A                  A:02 X:02 Y:DA P:67 SP:F
F127  C9 4A     CMP #$4A                        A:4A X:02 Y:DA P:65 SP:F
F129  F0 02     BEQ $F12D                       A:4A X:02 Y:DA P:67 SP:F
F12D  C8        INY                             A:4A X:02 Y:DA P:67 SP:F
F12E  A9 29     LDA #$29                        A:4A X:02 Y:DB P:E5 SP:F
F130  8D 47 06  STA $0647 = 4A                  A:29 X:02 Y:DB P:65 SP:F
F133  20 64 FB  JSR $FB64                       A:29 X:02 Y:DB P:65 SP:F
FB64  B8        CLV                             A:29 X:02 Y:DB P:65 SP:F
FB65  18        CLC                             A:29 X:02 Y:DB P:25 SP:F
FB66  A9 42     LDA #$42                        A:29 X:02 Y:DB P:24 SP:F
FB68  60        RTS                             A:42 X:02 Y:DB P:24 SP:F
F136  2F 47 06 *RLA $0647 = 29                  A:42 X:02 Y:DB P:24 SP:F
F139  EA        NOP                             A:42 X:02 Y:DB P:24 SP:F
F13A  EA        NOP                             A:42 X:02 Y:DB P:24 SP:F
F13B  EA        NOP                             A:42 X:02 Y:DB P:24 SP:F
F13C  EA        NOP                             A:42 X:02 Y:DB P:24 SP:F
F13D  20 69 FB  JSR $FB69                       A:42 X:02 Y:DB P:24 SP:F
FB69  70 0A     BVS $FB75                       A:42 X:02 Y:DB P:24 SP:F
FB6B  F0 08     BEQ $FB75                       A:42 X:02 Y:DB P:24 SP:F
FB6D  30 06     BMI $FB75                       A:42 X:02 Y:DB P:24 SP:F
FB6F  B0 04     BCS $FB75                       A:42 X:02 Y:DB P:24 SP:F
FB71  C9 42     CMP #$42                        A:42 X:02 Y:DB P:24 SP:F
FB73  F0 02     BEQ $FB77                       A:42 X:02 Y:DB P:27 SP:F
FB77  60        RTS                             A:42 X:02 Y:DB P:27 SP:F
F140  AD 47 06  LDA $0647 = 52                  A:42 X:02 Y:DB P:27 SP:F
F143  C9 52     CMP #$52                        A:52 X:02 Y:DB P:25 SP:F
F145  F0 02     BEQ $F149                       A:52 X:02 Y:DB P:27 SP:F
F149  C8        INY                             A:52 X:02 Y:DB P:27 SP:F
F14A  A9 37     LDA #$37                        A:52 X:02 Y:DC P:A5 SP:F
F14C  8D 47 06  STA $0647 = 52                  A:37 X:02 Y:DC P:25 SP:F
F14F  20 68 FA  JSR $FA68                       A:37 X:02 Y:DC P:25 SP:F
FA68  24 01     BIT $01 = FF                    A:37 X:02 Y:DC P:25 SP:F
FA6A  38        SEC                             A:37 X:02 Y:DC P:E5 SP:F
FA6B  A9 75     LDA #$75                        A:37 X:02 Y:DC P:E5 SP:F
FA6D  60        RTS                             A:75 X:02 Y:DC P:65 SP:F
F152  2F 47 06 *RLA $0647 = 37                  A:75 X:02 Y:DC P:65 SP:F
F155  EA        NOP                             A:65 X:02 Y:DC P:64 SP:F
F156  EA        NOP                             A:65 X:02 Y:DC P:64 SP:F
F157  EA        NOP                             A:65 X:02 Y:DC P:64 SP:F
F158  EA        NOP                             A:65 X:02 Y:DC P:64 SP:F
F159  20 6E FA  JSR $FA6E                       A:65 X:02 Y:DC P:64 SP:F
FA6E  50 76     BVC $FAE6                       A:65 X:02 Y:DC P:64 SP:F
FA70  F0 74     BEQ $FAE6                       A:65 X:02 Y:DC P:64 SP:F
FA72  30 72     BMI $FAE6                       A:65 X:02 Y:DC P:64 SP:F
FA74  B0 70     BCS $FAE6                       A:65 X:02 Y:DC P:64 SP:F
FA76  C9 65     CMP #$65                        A:65 X:02 Y:DC P:64 SP:F
FA78  D0 6C     BNE $FAE6                       A:65 X:02 Y:DC P:67 SP:F
FA7A  60        RTS                             A:65 X:02 Y:DC P:67 SP:F
F15C  AD 47 06  LDA $0647 = 6F                  A:65 X:02 Y:DC P:67 SP:F
F15F  C9 6F     CMP #$6F                        A:6F X:02 Y:DC P:65 SP:F
F161  F0 02     BEQ $F165                       A:6F X:02 Y:DC P:67 SP:F
F165  A9 A5     LDA #$A5                        A:6F X:02 Y:DC P:67 SP:F
F167  8D 47 06  STA $0647 = 6F                  A:A5 X:02 Y:DC P:E5 SP:F
F16A  A9 48     LDA #$48                        A:A5 X:02 Y:DC P:E5 SP:F
F16C  85 45     STA $45 = 48                    A:48 X:02 Y:DC P:65 SP:F
F16E  A9 05     LDA #$05                        A:48 X:02 Y:DC P:65 SP:F
F170  85 46     STA $46 = 05                    A:05 X:02 Y:DC P:65 SP:F
F172  A0 FF     LDY #$FF                        A:05 X:02 Y:DC P:65 SP:F
F174  20 53 FB  JSR $FB53                       A:05 X:02 Y:FF P:E5 SP:F
FB53  24 01     BIT $01 = FF                    A:05 X:02 Y:FF P:E5 SP:F
FB55  18        CLC                             A:05 X:02 Y:FF P:E5 SP:F
FB56  A9 B3     LDA #$B3                        A:05 X:02 Y:FF P:E4 SP:F
FB58  60        RTS                             A:B3 X:02 Y:FF P:E4 SP:F
F177  33 45    *RLA ($45),Y = 0548 @ 0647 = A5  A:B3 X:02 Y:FF P:E4 SP:F
F179  EA        NOP                             A:02 X:02 Y:FF P:65 SP:F
F17A  EA        NOP                             A:02 X:02 Y:FF P:65 SP:F
F17B  08        PHP                             A:02 X:02 Y:FF P:65 SP:F
F17C  48        PHA                             A:02 X:02 Y:FF P:65 SP:F
F17D  A0 DD     LDY #$DD                        A:02 X:02 Y:FF P:65 SP:F
F17F  68        PLA                             A:02 X:02 Y:DD P:E5 SP:F
F180  28        PLP                             A:02 X:02 Y:DD P:65 SP:F
F181  20 59 FB  JSR $FB59                       A:02 X:02 Y:DD P:65 SP:F
FB59  50 1A     BVC $FB75                       A:02 X:02 Y:DD P:65 SP:F
FB5B  90 18     BCC $FB75                       A:02 X:02 Y:DD P:65 SP:F
FB5D  30 16     BMI $FB75                       A:02 X:02 Y:DD P:65 SP:F
FB5F  C9 02     CMP #$02                        A:02 X:02 Y:DD P:65 SP:F
FB61  D0 12     BNE $FB75                       A:02 X:02 Y:DD P:67 SP:F
FB63  60        RTS                             A:02 X:02 Y:DD P:67 SP:F
F184  AD 47 06  LDA $0647 = 4A                  A:02 X:02 Y:DD P:67 SP:F
F187  C9 4A     CMP #$4A                        A:4A X:02 Y:DD P:65 SP:F
F189  F0 02     BEQ $F18D                       A:4A X:02 Y:DD P:67 SP:F
F18D  A0 FF     LDY #$FF                        A:4A X:02 Y:DD P:67 SP:F
F18F  A9 29     LDA #$29                        A:4A X:02 Y:FF P:E5 SP:F
F191  8D 47 06  STA $0647 = 4A                  A:29 X:02 Y:FF P:65 SP:F
F194  20 64 FB  JSR $FB64                       A:29 X:02 Y:FF P:65 SP:F
FB64  B8        CLV                             A:29 X:02 Y:FF P:65 SP:F
FB65  18        CLC                             A:29 X:02 Y:FF P:25 SP:F
FB66  A9 42     LDA #$42                        A:29 X:02 Y:FF P:24 SP:F
FB68  60        RTS                             A:42 X:02 Y:FF P:24 SP:F
F197  33 45    *RLA ($45),Y = 0548 @ 0647 = 29  A:42 X:02 Y:FF P:24 SP:F
F199  EA        NOP                             A:42 X:02 Y:FF P:24 SP:F
F19A  EA        NOP                             A:42 X:02 Y:FF P:24 SP:F
F19B  08        PHP                             A:42 X:02 Y:FF P:24 SP:F
F19C  48        PHA                             A:42 X:02 Y:FF P:24 SP:F
F19D  A0 DE     LDY #$DE                        A:42 X:02 Y:FF P:24 SP:F
F19F  68        PLA                             A:42 X:02 Y:DE P:A4 SP:F
F1A0  28        PLP                             A:42 X:02 Y:DE P:24 SP:F
F1A1  20 69 FB  JSR $FB69                       A:42 X:02 Y:DE P:24 SP:F
FB69  70 0A     BVS $FB75                       A:42 X:02 Y:DE P:24 SP:F
FB6B  F0 08     BEQ $FB75                       A:42 X:02 Y:DE P:24 SP:F
FB6D  30 06     BMI $FB75                       A:42 X:02 Y:DE P:24 SP:F
FB6F  B0 04     BCS $FB75                       A:42 X:02 Y:DE P:24 SP:F
FB71  C9 42     CMP #$42                        A:42 X:02 Y:DE P:24 SP:F
FB73  F0 02     BEQ $FB77                       A:42 X:02 Y:DE P:27 SP:F
FB77  60        RTS                             A:42 X:02 Y:DE P:27 SP:F
F1A4  AD 47 06  LDA $0647 = 52                  A:42 X:02 Y:DE P:27 SP:F
F1A7  C9 52     CMP #$52                        A:52 X:02 Y:DE P:25 SP:F
F1A9  F0 02     BEQ $F1AD                       A:52 X:02 Y:DE P:27 SP:F
F1AD  A0 FF     LDY #$FF                        A:52 X:02 Y:DE P:27 SP:F
F1AF  A9 37     LDA #$37                        A:52 X:02 Y:FF P:A5 SP:F
F1B1  8D 47 06  STA $0647 = 52                  A:37 X:02 Y:FF P:25 SP:F
F1B4  20 68 FA  JSR $FA68                       A:37 X:02 Y:FF P:25 SP:F
FA68  24 01     BIT $01 = FF                    A:37 X:02 Y:FF P:25 SP:F
FA6A  38        SEC                             A:37 X:02 Y:FF P:E5 SP:F
FA6B  A9 75     LDA #$75                        A:37 X:02 Y:FF P:E5 SP:F
FA6D  60        RTS                             A:75 X:02 Y:FF P:65 SP:F
F1B7  33 45    *RLA ($45),Y = 0548 @ 0647 = 37  A:75 X:02 Y:FF P:65 SP:F
F1B9  EA        NOP                             A:65 X:02 Y:FF P:64 SP:F
F1BA  EA        NOP                             A:65 X:02 Y:FF P:64 SP:F
F1BB  08        PHP                             A:65 X:02 Y:FF P:64 SP:F
F1BC  48        PHA                             A:65 X:02 Y:FF P:64 SP:F
F1BD  A0 DF     LDY #$DF                        A:65 X:02 Y:FF P:64 SP:F
F1BF  68        PLA                             A:65 X:02 Y:DF P:E4 SP:F
F1C0  28        PLP                             A:65 X:02 Y:DF P:64 SP:F
F1C1  20 6E FA  JSR $FA6E                       A:65 X:02 Y:DF P:64 SP:F
FA6E  50 76     BVC $FAE6                       A:65 X:02 Y:DF P:64 SP:F
FA70  F0 74     BEQ $FAE6                       A:65 X:02 Y:DF P:64 SP:F
FA72  30 72     BMI $FAE6                       A:65 X:02 Y:DF P:64 SP:F
FA74  B0 70     BCS $FAE6                       A:65 X:02 Y:DF P:64 SP:F
FA76  C9 65     CMP #$65                        A:65 X:02 Y:DF P:64 SP:F
FA78  D0 6C     BNE $FAE6                       A:65 X:02 Y:DF P:67 SP:F
FA7A  60        RTS                             A:65 X:02 Y:DF P:67 SP:F
F1C4  AD 47 06  LDA $0647 = 6F                  A:65 X:02 Y:DF P:67 SP:F
F1C7  C9 6F     CMP #$6F                        A:6F X:02 Y:DF P:65 SP:F
F1C9  F0 02     BEQ $F1CD                       A:6F X:02 Y:DF P:67 SP:F
F1CD  A0 E0     LDY #$E0                        A:6F X:02 Y:DF P:67 SP:F
F1CF  A2 FF     LDX #$FF                        A:6F X:02 Y:E0 P:E5 SP:F
F1D1  A9 A5     LDA #$A5                        A:6F X:FF Y:E0 P:E5 SP:F
F1D3  85 47     STA $47 = 6F                    A:A5 X:FF Y:E0 P:E5 SP:F
F1D5  20 53 FB  JSR $FB53                       A:A5 X:FF Y:E0 P:E5 SP:F
FB53  24 01     BIT $01 = FF                    A:A5 X:FF Y:E0 P:E5 SP:F
FB55  18        CLC                             A:A5 X:FF Y:E0 P:E5 SP:F
FB56  A9 B3     LDA #$B3                        A:A5 X:FF Y:E0 P:E4 SP:F
FB58  60        RTS                             A:B3 X:FF Y:E0 P:E4 SP:F
F1D8  37 48    *RLA $48,X @ 47 = A5             A:B3 X:FF Y:E0 P:E4 SP:F
F1DA  EA        NOP                             A:02 X:FF Y:E0 P:65 SP:F
F1DB  EA        NOP                             A:02 X:FF Y:E0 P:65 SP:F
F1DC  EA        NOP                             A:02 X:FF Y:E0 P:65 SP:F
F1DD  EA        NOP                             A:02 X:FF Y:E0 P:65 SP:F
F1DE  20 59 FB  JSR $FB59                       A:02 X:FF Y:E0 P:65 SP:F
FB59  50 1A     BVC $FB75                       A:02 X:FF Y:E0 P:65 SP:F
FB5B  90 18     BCC $FB75                       A:02 X:FF Y:E0 P:65 SP:F
FB5D  30 16     BMI $FB75                       A:02 X:FF Y:E0 P:65 SP:F
FB5F  C9 02     CMP #$02                        A:02 X:FF Y:E0 P:65 SP:F
FB61  D0 12     BNE $FB75                       A:02 X:FF Y:E0 P:67 SP:F
FB63  60        RTS                             A:02 X:FF Y:E0 P:67 SP:F
F1E1  A5 47     LDA $47 = 4A                    A:02 X:FF Y:E0 P:67 SP:F
F1E3  C9 4A     CMP #$4A                        A:4A X:FF Y:E0 P:65 SP:F
F1E5  F0 02     BEQ $F1E9                       A:4A X:FF Y:E0 P:67 SP:F
F1E9  C8        INY                             A:4A X:FF Y:E0 P:67 SP:F
F1EA  A9 29     LDA #$29                        A:4A X:FF Y:E1 P:E5 SP:F
F1EC  85 47     STA $47 = 4A                    A:29 X:FF Y:E1 P:65 SP:F
F1EE  20 64 FB  JSR $FB64                       A:29 X:FF Y:E1 P:65 SP:F
FB64  B8        CLV                             A:29 X:FF Y:E1 P:65 SP:F
FB65  18        CLC                             A:29 X:FF Y:E1 P:25 SP:F
FB66  A9 42     LDA #$42                        A:29 X:FF Y:E1 P:24 SP:F
FB68  60        RTS                             A:42 X:FF Y:E1 P:24 SP:F
F1F1  37 48    *RLA $48,X @ 47 = 29             A:42 X:FF Y:E1 P:24 SP:F
F1F3  EA        NOP                             A:42 X:FF Y:E1 P:24 SP:F
F1F4  EA        NOP                             A:42 X:FF Y:E1 P:24 SP:F
F1F5  EA        NOP                             A:42 X:FF Y:E1 P:24 SP:F
F1F6  EA        NOP                             A:42 X:FF Y:E1 P:24 SP:F
F1F7  20 69 FB  JSR $FB69                       A:42 X:FF Y:E1 P:24 SP:F
FB69  70 0A     BVS $FB75                       A:42 X:FF Y:E1 P:24 SP:F
FB6B  F0 08     BEQ $FB75                       A:42 X:FF Y:E1 P:24 SP:F
FB6D  30 06     BMI $FB75                       A:42 X:FF Y:E1 P:24 SP:F
FB6F  B0 04     BCS $FB75                       A:42 X:FF Y:E1 P:24 SP:F
FB71  C9 42     CMP #$42                        A:42 X:FF Y:E1 P:24 SP:F
FB73  F0 02     BEQ $FB77                       A:42 X:FF Y:E1 P:27 SP:F
FB77  60        RTS                             A:42 X:FF Y:E1 P:27 SP:F
F1FA  A5 47     LDA $47 = 52                    A:42 X:FF Y:E1 P:27 SP:F
F1FC  C9 52     CMP #$52                        A:52 X:FF Y:E1 P:25 SP:F
F1FE  F0 02     BEQ $F202                       A:52 X:FF Y:E1 P:27 SP:F
F202  C8        INY                             A:52 X:FF Y:E1 P:27 SP:F
F203  A9 37     LDA #$37                        A:52 X:FF Y:E2 P:A5 SP:F
F205  85 47     STA $47 = 52                    A:37 X:FF Y:E2 P:25 SP:F
F207  20 68 FA  JSR $FA68                       A:37 X:FF Y:E2 P:25 SP:F
FA68  24 01     BIT $01 = FF                    A:37 X:FF Y:E2 P:25 SP:F
FA6A  38        SEC                             A:37 X:FF Y:E2 P:E5 SP:F
FA6B  A9 75     LDA #$75                        A:37 X:FF Y:E2 P:E5 SP:F
FA6D  60        RTS                             A:75 X:FF Y:E2 P:65 SP:F
F20A  37 48    *RLA $48,X @ 47 = 37             A:75 X:FF Y:E2 P:65 SP:F
F20C  EA        NOP                             A:65 X:FF Y:E2 P:64 SP:F
F20D  EA        NOP                             A:65 X:FF Y:E2 P:64 SP:F
F20E  EA        NOP                             A:65 X:FF Y:E2 P:64 SP:F
F20F  EA        NOP                             A:65 X:FF Y:E2 P:64 SP:F
F210  20 6E FA  JSR $FA6E                       A:65 X:FF Y:E2 P:64 SP:F
FA6E  50 76     BVC $FAE6                       A:65 X:FF Y:E2 P:64 SP:F
FA70  F0 74     BEQ $FAE6                       A:65 X:FF Y:E2 P:64 SP:F
FA72  30 72     BMI $FAE6                       A:65 X:FF Y:E2 P:64 SP:F
FA74  B0 70     BCS $FAE6                       A:65 X:FF Y:E2 P:64 SP:F
FA76  C9 65     CMP #$65                        A:65 X:FF Y:E2 P:64 SP:F
FA78  D0 6C     BNE $FAE6                       A:65 X:FF Y:E2 P:67 SP:F
FA7A  60        RTS                             A:65 X:FF Y:E2 P:67 SP:F
F213  A5 47     LDA $47 = 6F                    A:65 X:FF Y:E2 P:67 SP:F
F215  C9 6F     CMP #$6F                        A:6F X:FF Y:E2 P:65 SP:F
F217  F0 02     BEQ $F21B                       A:6F X:FF Y:E2 P:67 SP:F
F21B  A9 A5     LDA #$A5                        A:6F X:FF Y:E2 P:67 SP:F
F21D  8D 47 06  STA $0647 = 6F                  A:A5 X:FF Y:E2 P:E5 SP:F
F220  A0 FF     LDY #$FF                        A:A5 X:FF Y:E2 P:E5 SP:F
F222  20 53 FB  JSR $FB53                       A:A5 X:FF Y:FF P:E5 SP:F
FB53  24 01     BIT $01 = FF                    A:A5 X:FF Y:FF P:E5 SP:F
FB55  18        CLC                             A:A5 X:FF Y:FF P:E5 SP:F
FB56  A9 B3     LDA #$B3                        A:A5 X:FF Y:FF P:E4 SP:F
FB58  60        RTS                             A:B3 X:FF Y:FF P:E4 SP:F
F225  3B 48 05 *RLA $0548,Y @ 0647 = A5         A:B3 X:FF Y:FF P:E4 SP:F
F228  EA        NOP                             A:02 X:FF Y:FF P:65 SP:F
F229  EA        NOP                             A:02 X:FF Y:FF P:65 SP:F
F22A  08        PHP                             A:02 X:FF Y:FF P:65 SP:F
F22B  48        PHA                             A:02 X:FF Y:FF P:65 SP:F
F22C  A0 E3     LDY #$E3                        A:02 X:FF Y:FF P:65 SP:F
F22E  68        PLA                             A:02 X:FF Y:E3 P:E5 SP:F
F22F  28        PLP                             A:02 X:FF Y:E3 P:65 SP:F
F230  20 59 FB  JSR $FB59                       A:02 X:FF Y:E3 P:65 SP:F
FB59  50 1A     BVC $FB75                       A:02 X:FF Y:E3 P:65 SP:F
FB5B  90 18     BCC $FB75                       A:02 X:FF Y:E3 P:65 SP:F
FB5D  30 16     BMI $FB75                       A:02 X:FF Y:E3 P:65 SP:F
FB5F  C9 02     CMP #$02                        A:02 X:FF Y:E3 P:65 SP:F
FB61  D0 12     BNE $FB75                       A:02 X:FF Y:E3 P:67 SP:F
FB63  60        RTS                             A:02 X:FF Y:E3 P:67 SP:F
F233  AD 47 06  LDA $0647 = 4A                  A:02 X:FF Y:E3 P:67 SP:F
F236  C9 4A     CMP #$4A                        A:4A X:FF Y:E3 P:65 SP:F
F238  F0 02     BEQ $F23C                       A:4A X:FF Y:E3 P:67 SP:F
F23C  A0 FF     LDY #$FF                        A:4A X:FF Y:E3 P:67 SP:F
F23E  A9 29     LDA #$29                        A:4A X:FF Y:FF P:E5 SP:F
F240  8D 47 06  STA $0647 = 4A                  A:29 X:FF Y:FF P:65 SP:F
F243  20 64 FB  JSR $FB64                       A:29 X:FF Y:FF P:65 SP:F
FB64  B8        CLV                             A:29 X:FF Y:FF P:65 SP:F
FB65  18        CLC                             A:29 X:FF Y:FF P:25 SP:F
FB66  A9 42     LDA #$42                        A:29 X:FF Y:FF P:24 SP:F
FB68  60        RTS                             A:42 X:FF Y:FF P:24 SP:F
F246  3B 48 05 *RLA $0548,Y @ 0647 = 29         A:42 X:FF Y:FF P:24 SP:F
F249  EA        NOP                             A:42 X:FF Y:FF P:24 SP:F
F24A  EA        NOP                             A:42 X:FF Y:FF P:24 SP:F
F24B  08        PHP                             A:42 X:FF Y:FF P:24 SP:F
F24C  48        PHA                             A:42 X:FF Y:FF P:24 SP:F
F24D  A0 E4     LDY #$E4                        A:42 X:FF Y:FF P:24 SP:F
F24F  68        PLA                             A:42 X:FF Y:E4 P:A4 SP:F
F250  28        PLP                             A:42 X:FF Y:E4 P:24 SP:F
F251  20 69 FB  JSR $FB69                       A:42 X:FF Y:E4 P:24 SP:F
FB69  70 0A     BVS $FB75                       A:42 X:FF Y:E4 P:24 SP:F
FB6B  F0 08     BEQ $FB75                       A:42 X:FF Y:E4 P:24 SP:F
FB6D  30 06     BMI $FB75                       A:42 X:FF Y:E4 P:24 SP:F
FB6F  B0 04     BCS $FB75                       A:42 X:FF Y:E4 P:24 SP:F
FB71  C9 42     CMP #$42                        A:42 X:FF Y:E4 P:24 SP:F
FB73  F0 02     BEQ $FB77                       A:42 X:FF Y:E4 P:27 SP:F
FB77  60        RTS                             A:42 X:FF Y:E4 P:27 SP:F
F254  AD 47 06  LDA $0647 = 52                  A:42 X:FF Y:E4 P:27 SP:F
F257  C9 52     CMP #$52                        A:52 X:FF Y:E4 P:25 SP:F
F259  F0 02     BEQ $F25D                       A:52 X:FF Y:E4 P:27 SP:F
F25D  A0 FF     LDY #$FF                        A:52 X:FF Y:E4 P:27 SP:F
F25F  A9 37     LDA #$37                        A:52 X:FF Y:FF P:A5 SP:F
F261  8D 47 06  STA $0647 = 52                  A:37 X:FF Y:FF P:25 SP:F
F264  20 68 FA  JSR $FA68                       A:37 X:FF Y:FF P:25 SP:F
FA68  24 01     BIT $01 = FF                    A:37 X:FF Y:FF P:25 SP:F
FA6A  38        SEC                             A:37 X:FF Y:FF P:E5 SP:F
FA6B  A9 75     LDA #$75                        A:37 X:FF Y:FF P:E5 SP:F
FA6D  60        RTS                             A:75 X:FF Y:FF P:65 SP:F
F267  3B 48 05 *RLA $0548,Y @ 0647 = 37         A:75 X:FF Y:FF P:65 SP:F
F26A  EA        NOP                             A:65 X:FF Y:FF P:64 SP:F
F26B  EA        NOP                             A:65 X:FF Y:FF P:64 SP:F
F26C  08        PHP                             A:65 X:FF Y:FF P:64 SP:F
F26D  48        PHA                             A:65 X:FF Y:FF P:64 SP:F
F26E  A0 E5     LDY #$E5                        A:65 X:FF Y:FF P:64 SP:F
F270  68        PLA                             A:65 X:FF Y:E5 P:E4 SP:F
F271  28        PLP                             A:65 X:FF Y:E5 P:64 SP:F
F272  20 6E FA  JSR $FA6E                       A:65 X:FF Y:E5 P:64 SP:F
FA6E  50 76     BVC $FAE6                       A:65 X:FF Y:E5 P:64 SP:F
FA70  F0 74     BEQ $FAE6                       A:65 X:FF Y:E5 P:64 SP:F
FA72  30 72     BMI $FAE6                       A:65 X:FF Y:E5 P:64 SP:F
FA74  B0 70     BCS $FAE6                       A:65 X:FF Y:E5 P:64 SP:F
FA76  C9 65     CMP #$65                        A:65 X:FF Y:E5 P:64 SP:F
FA78  D0 6C     BNE $FAE6                       A:65 X:FF Y:E5 P:67 SP:F
FA7A  60        RTS                             A:65 X:FF Y:E5 P:67 SP:F
F275  AD 47 06  LDA $0647 = 6F                  A:65 X:FF Y:E5 P:67 SP:F
F278  C9 6F     CMP #$6F                        A:6F X:FF Y:E5 P:65 SP:F
F27A  F0 02     BEQ $F27E                       A:6F X:FF Y:E5 P:67 SP:F
F27E  A0 E6     LDY #$E6                        A:6F X:FF Y:E5 P:67 SP:F
F280  A2 FF     LDX #$FF                        A:6F X:FF Y:E6 P:E5 SP:F
F282  A9 A5     LDA #$A5                        A:6F X:FF Y:E6 P:E5 SP:F
F284  8D 47 06  STA $0647 = 6F                  A:A5 X:FF Y:E6 P:E5 SP:F
F287  20 53 FB  JSR $FB53                       A:A5 X:FF Y:E6 P:E5 SP:F
FB53  24 01     BIT $01 = FF                    A:A5 X:FF Y:E6 P:E5 SP:F
FB55  18        CLC                             A:A5 X:FF Y:E6 P:E5 SP:F
FB56  A9 B3     LDA #$B3                        A:A5 X:FF Y:E6 P:E4 SP:F
FB58  60        RTS                             A:B3 X:FF Y:E6 P:E4 SP:F
F28A  3F 48 05 *RLA $0548,X @ 0647 = A5         A:B3 X:FF Y:E6 P:E4 SP:F
F28D  EA        NOP                             A:02 X:FF Y:E6 P:65 SP:F
F28E  EA        NOP                             A:02 X:FF Y:E6 P:65 SP:F
F28F  EA        NOP                             A:02 X:FF Y:E6 P:65 SP:F
F290  EA        NOP                             A:02 X:FF Y:E6 P:65 SP:F
F291  20 59 FB  JSR $FB59                       A:02 X:FF Y:E6 P:65 SP:F
FB59  50 1A     BVC $FB75                       A:02 X:FF Y:E6 P:65 SP:F
FB5B  90 18     BCC $FB75                       A:02 X:FF Y:E6 P:65 SP:F
FB5D  30 16     BMI $FB75                       A:02 X:FF Y:E6 P:65 SP:F
FB5F  C9 02     CMP #$02                        A:02 X:FF Y:E6 P:65 SP:F
FB61  D0 12     BNE $FB75                       A:02 X:FF Y:E6 P:67 SP:F
FB63  60        RTS                             A:02 X:FF Y:E6 P:67 SP:F
F294  AD 47 06  LDA $0647 = 4A                  A:02 X:FF Y:E6 P:67 SP:F
F297  C9 4A     CMP #$4A                        A:4A X:FF Y:E6 P:65 SP:F
F299  F0 02     BEQ $F29D                       A:4A X:FF Y:E6 P:67 SP:F
F29D  C8        INY                             A:4A X:FF Y:E6 P:67 SP:F
F29E  A9 29     LDA #$29                        A:4A X:FF Y:E7 P:E5 SP:F
F2A0  8D 47 06  STA $0647 = 4A                  A:29 X:FF Y:E7 P:65 SP:F
F2A3  20 64 FB  JSR $FB64                       A:29 X:FF Y:E7 P:65 SP:F
FB64  B8        CLV                             A:29 X:FF Y:E7 P:65 SP:F
FB65  18        CLC                             A:29 X:FF Y:E7 P:25 SP:F
FB66  A9 42     LDA #$42                        A:29 X:FF Y:E7 P:24 SP:F
FB68  60        RTS                             A:42 X:FF Y:E7 P:24 SP:F
F2A6  3F 48 05 *RLA $0548,X @ 0647 = 29         A:42 X:FF Y:E7 P:24 SP:F
F2A9  EA        NOP                             A:42 X:FF Y:E7 P:24 SP:F
F2AA  EA        NOP                             A:42 X:FF Y:E7 P:24 SP:F
F2AB  EA        NOP                             A:42 X:FF Y:E7 P:24 SP:F
F2AC  EA        NOP                             A:42 X:FF Y:E7 P:24 SP:F
F2AD  20 69 FB  JSR $FB69                       A:42 X:FF Y:E7 P:24 SP:F
FB69  70 0A     BVS $FB75                       A:42 X:FF Y:E7 P:24 SP:F
FB6B  F0 08     BEQ $FB75                       A:42 X:FF Y:E7 P:24 SP:F
FB6D  30 06     BMI $FB75                       A:42 X:FF Y:E7 P:24 SP:F
FB6F  B0 04     BCS $FB75                       A:42 X:FF Y:E7 P:24 SP:F
FB71  C9 42     CMP #$42                        A:42 X:FF Y:E7 P:24 SP:F
FB73  F0 02     BEQ $FB77                       A:42 X:FF Y:E7 P:27 SP:F
FB77  60        RTS                             A:42 X:FF Y:E7 P:27 SP:F
F2B0  AD 47 06  LDA $0647 = 52                  A:42 X:FF Y:E7 P:27 SP:F
F2B3  C9 52     CMP #$52                        A:52 X:FF Y:E7 P:25 SP:F
F2B5  F0 02     BEQ $F2B9                       A:52 X:FF Y:E7 P:27 SP:F
F2B9  C8        INY                             A:52 X:FF Y:E7 P:27 SP:F
F2BA  A9 37     LDA #$37                        A:52 X:FF Y:E8 P:A5 SP:F
F2BC  8D 47 06  STA $0647 = 52                  A:37 X:FF Y:E8 P:25 SP:F
F2BF  20 68 FA  JSR $FA68                       A:37 X:FF Y:E8 P:25 SP:F
FA68  24 01     BIT $01 = FF                    A:37 X:FF Y:E8 P:25 SP:F
FA6A  38        SEC                             A:37 X:FF Y:E8 P:E5 SP:F
FA6B  A9 75     LDA #$75                        A:37 X:FF Y:E8 P:E5 SP:F
FA6D  60        RTS                             A:75 X:FF Y:E8 P:65 SP:F
F2C2  3F 48 05 *RLA $0548,X @ 0647 = 37         A:75 X:FF Y:E8 P:65 SP:F
F2C5  EA        NOP                             A:65 X:FF Y:E8 P:64 SP:F
F2C6  EA        NOP                             A:65 X:FF Y:E8 P:64 SP:F
F2C7  EA        NOP                             A:65 X:FF Y:E8 P:64 SP:F
F2C8  EA        NOP                             A:65 X:FF Y:E8 P:64 SP:F
F2C9  20 6E FA  JSR $FA6E                       A:65 X:FF Y:E8 P:64 SP:F
FA6E  50 76     BVC $FAE6                       A:65 X:FF Y:E8 P:64 SP:F
FA70  F0 74     BEQ $FAE6                       A:65 X:FF Y:E8 P:64 SP:F
FA72  30 72     BMI $FAE6                       A:65 X:FF Y:E8 P:64 SP:F
FA74  B0 70     BCS $FAE6                       A:65 X:FF Y:E8 P:64 SP:F
FA76  C9 65     CMP #$65                        A:65 X:FF Y:E8 P:64 SP:F
FA78  D0 6C     BNE $FAE6                       A:65 X:FF Y:E8 P:67 SP:F
FA7A  60        RTS                             A:65 X:FF Y:E8 P:67 SP:F
F2CC  AD 47 06  LDA $0647 = 6F                  A:65 X:FF Y:E8 P:67 SP:F
F2CF  C9 6F     CMP #$6F                        A:6F X:FF Y:E8 P:65 SP:F
F2D1  F0 02     BEQ $F2D5                       A:6F X:FF Y:E8 P:67 SP:F
F2D5  60        RTS                             A:6F X:FF Y:E8 P:67 SP:F
C647  20 D6 F2  JSR $F2D6                       A:6F X:FF Y:E8 P:67 SP:F
F2D6  A9 FF     LDA #$FF                        A:6F X:FF Y:E8 P:67 SP:F
F2D8  85 01     STA $01 = FF                    A:FF X:FF Y:E8 P:E5 SP:F
F2DA  A0 E9     LDY #$E9                        A:FF X:FF Y:E8 P:E5 SP:F
F2DC  A2 02     LDX #$02                        A:FF X:FF Y:E9 P:E5 SP:F
F2DE  A9 47     LDA #$47                        A:FF X:02 Y:E9 P:65 SP:F
F2E0  85 47     STA $47 = 6F                    A:47 X:02 Y:E9 P:65 SP:F
F2E2  A9 06     LDA #$06                        A:47 X:02 Y:E9 P:65 SP:F
F2E4  85 48     STA $48 = 06                    A:06 X:02 Y:E9 P:65 SP:F
F2E6  A9 A5     LDA #$A5                        A:06 X:02 Y:E9 P:65 SP:F
F2E8  8D 47 06  STA $0647 = 6F                  A:A5 X:02 Y:E9 P:E5 SP:F
F2EB  20 1D FB  JSR $FB1D                       A:A5 X:02 Y:E9 P:E5 SP:F
FB1D  24 01     BIT $01 = FF                    A:A5 X:02 Y:E9 P:E5 SP:F
FB1F  18        CLC                             A:A5 X:02 Y:E9 P:E5 SP:F
FB20  A9 B3     LDA #$B3                        A:A5 X:02 Y:E9 P:E4 SP:F
FB22  60        RTS                             A:B3 X:02 Y:E9 P:E4 SP:F
F2EE  43 45    *SRE ($45,X) @ 47 = 0647 = A5    A:B3 X:02 Y:E9 P:E4 SP:F
F2F0  EA        NOP                             A:E1 X:02 Y:E9 P:E5 SP:F
F2F1  EA        NOP                             A:E1 X:02 Y:E9 P:E5 SP:F
F2F2  EA        NOP                             A:E1 X:02 Y:E9 P:E5 SP:F
F2F3  EA        NOP                             A:E1 X:02 Y:E9 P:E5 SP:F
F2F4  20 23 FB  JSR $FB23                       A:E1 X:02 Y:E9 P:E5 SP:F
FB23  50 50     BVC $FB75                       A:E1 X:02 Y:E9 P:E5 SP:F
FB25  90 4E     BCC $FB75                       A:E1 X:02 Y:E9 P:E5 SP:F
FB27  10 4C     BPL $FB75                       A:E1 X:02 Y:E9 P:E5 SP:F
FB29  C9 E1     CMP #$E1                        A:E1 X:02 Y:E9 P:E5 SP:F
FB2B  D0 48     BNE $FB75                       A:E1 X:02 Y:E9 P:67 SP:F
FB2D  60        RTS                             A:E1 X:02 Y:E9 P:67 SP:F
F2F7  AD 47 06  LDA $0647 = 52                  A:E1 X:02 Y:E9 P:67 SP:F
F2FA  C9 52     CMP #$52                        A:52 X:02 Y:E9 P:65 SP:F
F2FC  F0 02     BEQ $F300                       A:52 X:02 Y:E9 P:67 SP:F
F300  C8        INY                             A:52 X:02 Y:E9 P:67 SP:F
F301  A9 29     LDA #$29                        A:52 X:02 Y:EA P:E5 SP:F
F303  8D 47 06  STA $0647 = 52                  A:29 X:02 Y:EA P:65 SP:F
F306  20 2E FB  JSR $FB2E                       A:29 X:02 Y:EA P:65 SP:F
FB2E  B8        CLV                             A:29 X:02 Y:EA P:65 SP:F
FB2F  18        CLC                             A:29 X:02 Y:EA P:25 SP:F
FB30  A9 42     LDA #$42                        A:29 X:02 Y:EA P:24 SP:F
FB32  60        RTS                             A:42 X:02 Y:EA P:24 SP:F
F309  43 45    *SRE ($45,X) @ 47 = 0647 = 29    A:42 X:02 Y:EA P:24 SP:F
F30B  EA        NOP                             A:56 X:02 Y:EA P:25 SP:F
F30C  EA        NOP                             A:56 X:02 Y:EA P:25 SP:F
F30D  EA        NOP                             A:56 X:02 Y:EA P:25 SP:F
F30E  EA        NOP                             A:56 X:02 Y:EA P:25 SP:F
F30F  20 33 FB  JSR $FB33                       A:56 X:02 Y:EA P:25 SP:F
FB33  70 40     BVS $FB75                       A:56 X:02 Y:EA P:25 SP:F
FB35  F0 3E     BEQ $FB75                       A:56 X:02 Y:EA P:25 SP:F
FB37  30 3C     BMI $FB75                       A:56 X:02 Y:EA P:25 SP:F
FB39  90 3A     BCC $FB75                       A:56 X:02 Y:EA P:25 SP:F
FB3B  C9 56     CMP #$56                        A:56 X:02 Y:EA P:25 SP:F
FB3D  D0 36     BNE $FB75                       A:56 X:02 Y:EA P:27 SP:F
FB3F  60        RTS                             A:56 X:02 Y:EA P:27 SP:F
F312  AD 47 06  LDA $0647 = 14                  A:56 X:02 Y:EA P:27 SP:F
F315  C9 14     CMP #$14                        A:14 X:02 Y:EA P:25 SP:F
F317  F0 02     BEQ $F31B                       A:14 X:02 Y:EA P:27 SP:F
F31B  C8        INY                             A:14 X:02 Y:EA P:27 SP:F
F31C  A9 37     LDA #$37                        A:14 X:02 Y:EB P:A5 SP:F
F31E  8D 47 06  STA $0647 = 14                  A:37 X:02 Y:EB P:25 SP:F
F321  20 40 FB  JSR $FB40                       A:37 X:02 Y:EB P:25 SP:F
FB40  24 01     BIT $01 = FF                    A:37 X:02 Y:EB P:25 SP:F
FB42  38        SEC                             A:37 X:02 Y:EB P:E5 SP:F
FB43  A9 75     LDA #$75                        A:37 X:02 Y:EB P:E5 SP:F
FB45  60        RTS                             A:75 X:02 Y:EB P:65 SP:F
F324  43 45    *SRE ($45,X) @ 47 = 0647 = 37    A:75 X:02 Y:EB P:65 SP:F
F326  EA        NOP                             A:6E X:02 Y:EB P:65 SP:F
F327  EA        NOP                             A:6E X:02 Y:EB P:65 SP:F
F328  EA        NOP                             A:6E X:02 Y:EB P:65 SP:F
F329  EA        NOP                             A:6E X:02 Y:EB P:65 SP:F
F32A  20 46 FB  JSR $FB46                       A:6E X:02 Y:EB P:65 SP:F
FB46  50 2D     BVC $FB75                       A:6E X:02 Y:EB P:65 SP:F
FB48  F0 2B     BEQ $FB75                       A:6E X:02 Y:EB P:65 SP:F
FB4A  30 29     BMI $FB75                       A:6E X:02 Y:EB P:65 SP:F
FB4C  90 27     BCC $FB75                       A:6E X:02 Y:EB P:65 SP:F
FB4E  C9 6E     CMP #$6E                        A:6E X:02 Y:EB P:65 SP:F
FB50  D0 23     BNE $FB75                       A:6E X:02 Y:EB P:67 SP:F
FB52  60        RTS                             A:6E X:02 Y:EB P:67 SP:F
F32D  AD 47 06  LDA $0647 = 1B                  A:6E X:02 Y:EB P:67 SP:F
F330  C9 1B     CMP #$1B                        A:1B X:02 Y:EB P:65 SP:F
F332  F0 02     BEQ $F336                       A:1B X:02 Y:EB P:67 SP:F
F336  C8        INY                             A:1B X:02 Y:EB P:67 SP:F
F337  A9 A5     LDA #$A5                        A:1B X:02 Y:EC P:E5 SP:F
F339  85 47     STA $47 = 47                    A:A5 X:02 Y:EC P:E5 SP:F
F33B  20 1D FB  JSR $FB1D                       A:A5 X:02 Y:EC P:E5 SP:F
FB1D  24 01     BIT $01 = FF                    A:A5 X:02 Y:EC P:E5 SP:F
FB1F  18        CLC                             A:A5 X:02 Y:EC P:E5 SP:F
FB20  A9 B3     LDA #$B3                        A:A5 X:02 Y:EC P:E4 SP:F
FB22  60        RTS                             A:B3 X:02 Y:EC P:E4 SP:F
F33E  47 47    *SRE $47 = A5                    A:B3 X:02 Y:EC P:E4 SP:F
F340  EA        NOP                             A:E1 X:02 Y:EC P:E5 SP:F
F341  EA        NOP                             A:E1 X:02 Y:EC P:E5 SP:F
F342  EA        NOP                             A:E1 X:02 Y:EC P:E5 SP:F
F343  EA        NOP                             A:E1 X:02 Y:EC P:E5 SP:F
F344  20 23 FB  JSR $FB23                       A:E1 X:02 Y:EC P:E5 SP:F
FB23  50 50     BVC $FB75                       A:E1 X:02 Y:EC P:E5 SP:F
FB25  90 4E     BCC $FB75                       A:E1 X:02 Y:EC P:E5 SP:F
FB27  10 4C     BPL $FB75                       A:E1 X:02 Y:EC P:E5 SP:F
FB29  C9 E1     CMP #$E1                        A:E1 X:02 Y:EC P:E5 SP:F
FB2B  D0 48     BNE $FB75                       A:E1 X:02 Y:EC P:67 SP:F
FB2D  60        RTS                             A:E1 X:02 Y:EC P:67 SP:F
F347  A5 47     LDA $47 = 52                    A:E1 X:02 Y:EC P:67 SP:F
F349  C9 52     CMP #$52                        A:52 X:02 Y:EC P:65 SP:F
F34B  F0 02     BEQ $F34F                       A:52 X:02 Y:EC P:67 SP:F
F34F  C8        INY                             A:52 X:02 Y:EC P:67 SP:F
F350  A9 29     LDA #$29                        A:52 X:02 Y:ED P:E5 SP:F
F352  85 47     STA $47 = 52                    A:29 X:02 Y:ED P:65 SP:F
F354  20 2E FB  JSR $FB2E                       A:29 X:02 Y:ED P:65 SP:F
FB2E  B8        CLV                             A:29 X:02 Y:ED P:65 SP:F
FB2F  18        CLC                             A:29 X:02 Y:ED P:25 SP:F
FB30  A9 42     LDA #$42                        A:29 X:02 Y:ED P:24 SP:F
FB32  60        RTS                             A:42 X:02 Y:ED P:24 SP:F
F357  47 47    *SRE $47 = 29                    A:42 X:02 Y:ED P:24 SP:F
F359  EA        NOP                             A:56 X:02 Y:ED P:25 SP:F
F35A  EA        NOP                             A:56 X:02 Y:ED P:25 SP:F
F35B  EA        NOP                             A:56 X:02 Y:ED P:25 SP:F
F35C  EA        NOP                             A:56 X:02 Y:ED P:25 SP:F
F35D  20 33 FB  JSR $FB33                       A:56 X:02 Y:ED P:25 SP:F
FB33  70 40     BVS $FB75                       A:56 X:02 Y:ED P:25 SP:F
FB35  F0 3E     BEQ $FB75                       A:56 X:02 Y:ED P:25 SP:F
FB37  30 3C     BMI $FB75                       A:56 X:02 Y:ED P:25 SP:F
FB39  90 3A     BCC $FB75                       A:56 X:02 Y:ED P:25 SP:F
FB3B  C9 56     CMP #$56                        A:56 X:02 Y:ED P:25 SP:F
FB3D  D0 36     BNE $FB75                       A:56 X:02 Y:ED P:27 SP:F
FB3F  60        RTS                             A:56 X:02 Y:ED P:27 SP:F
F360  A5 47     LDA $47 = 14                    A:56 X:02 Y:ED P:27 SP:F
F362  C9 14     CMP #$14                        A:14 X:02 Y:ED P:25 SP:F
F364  F0 02     BEQ $F368                       A:14 X:02 Y:ED P:27 SP:F
F368  C8        INY                             A:14 X:02 Y:ED P:27 SP:F
F369  A9 37     LDA #$37                        A:14 X:02 Y:EE P:A5 SP:F
F36B  85 47     STA $47 = 14                    A:37 X:02 Y:EE P:25 SP:F
F36D  20 40 FB  JSR $FB40                       A:37 X:02 Y:EE P:25 SP:F
FB40  24 01     BIT $01 = FF                    A:37 X:02 Y:EE P:25 SP:F
FB42  38        SEC                             A:37 X:02 Y:EE P:E5 SP:F
FB43  A9 75     LDA #$75                        A:37 X:02 Y:EE P:E5 SP:F
FB45  60        RTS                             A:75 X:02 Y:EE P:65 SP:F
F370  47 47    *SRE $47 = 37                    A:75 X:02 Y:EE P:65 SP:F
F372  EA        NOP                             A:6E X:02 Y:EE P:65 SP:F
F373  EA        NOP                             A:6E X:02 Y:EE P:65 SP:F
F374  EA        NOP                             A:6E X:02 Y:EE P:65 SP:F
F375  EA        NOP                             A:6E X:02 Y:EE P:65 SP:F
F376  20 46 FB  JSR $FB46                       A:6E X:02 Y:EE P:65 SP:F
FB46  50 2D     BVC $FB75                       A:6E X:02 Y:EE P:65 SP:F
FB48  F0 2B     BEQ $FB75                       A:6E X:02 Y:EE P:65 SP:F
FB4A  30 29     BMI $FB75                       A:6E X:02 Y:EE P:65 SP:F
FB4C  90 27     BCC $FB75                       A:6E X:02 Y:EE P:65 SP:F
FB4E  C9 6E     CMP #$6E                        A:6E X:02 Y:EE P:65 SP:F
FB50  D0 23     BNE $FB75                       A:6E X:02 Y:EE P:67 SP:F
FB52  60        RTS                             A:6E X:02 Y:EE P:67 SP:F
F379  A5 47     LDA $47 = 1B                    A:6E X:02 Y:EE P:67 SP:F
F37B  C9 1B     CMP #$1B                        A:1B X:02 Y:EE P:65 SP:F
F37D  F0 02     BEQ $F381                       A:1B X:02 Y:EE P:67 SP:F
F381  C8        INY                             A:1B X:02 Y:EE P:67 SP:F
F382  A9 A5     LDA #$A5                        A:1B X:02 Y:EF P:E5 SP:F
F384  8D 47 06  STA $0647 = 1B                  A:A5 X:02 Y:EF P:E5 SP:F
F387  20 1D FB  JSR $FB1D                       A:A5 X:02 Y:EF P:E5 SP:F
FB1D  24 01     BIT $01 = FF                    A:A5 X:02 Y:EF P:E5 SP:F
FB1F  18        CLC                             A:A5 X:02 Y:EF P:E5 SP:F
FB20  A9 B3     LDA #$B3                        A:A5 X:02 Y:EF P:E4 SP:F
FB22  60        RTS                             A:B3 X:02 Y:EF P:E4 SP:F
F38A  4F 47 06 *SRE $0647 = A5                  A:B3 X:02 Y:EF P:E4 SP:F
F38D  EA        NOP                             A:E1 X:02 Y:EF P:E5 SP:F
F38E  EA        NOP                             A:E1 X:02 Y:EF P:E5 SP:F
F38F  EA        NOP                             A:E1 X:02 Y:EF P:E5 SP:F
F390  EA        NOP                             A:E1 X:02 Y:EF P:E5 SP:F
F391  20 23 FB  JSR $FB23                       A:E1 X:02 Y:EF P:E5 SP:F
FB23  50 50     BVC $FB75                       A:E1 X:02 Y:EF P:E5 SP:F
FB25  90 4E     BCC $FB75                       A:E1 X:02 Y:EF P:E5 SP:F
FB27  10 4C     BPL $FB75                       A:E1 X:02 Y:EF P:E5 SP:F
FB29  C9 E1     CMP #$E1                        A:E1 X:02 Y:EF P:E5 SP:F
FB2B  D0 48     BNE $FB75                       A:E1 X:02 Y:EF P:67 SP:F
FB2D  60        RTS                             A:E1 X:02 Y:EF P:67 SP:F
F394  AD 47 06  LDA $0647 = 52                  A:E1 X:02 Y:EF P:67 SP:F
F397  C9 52     CMP #$52                        A:52 X:02 Y:EF P:65 SP:F
F399  F0 02     BEQ $F39D                       A:52 X:02 Y:EF P:67 SP:F
F39D  C8        INY                             A:52 X:02 Y:EF P:67 SP:F
F39E  A9 29     LDA #$29                        A:52 X:02 Y:F0 P:E5 SP:F
F3A0  8D 47 06  STA $0647 = 52                  A:29 X:02 Y:F0 P:65 SP:F
F3A3  20 2E FB  JSR $FB2E                       A:29 X:02 Y:F0 P:65 SP:F
FB2E  B8        CLV                             A:29 X:02 Y:F0 P:65 SP:F
FB2F  18        CLC                             A:29 X:02 Y:F0 P:25 SP:F
FB30  A9 42     LDA #$42                        A:29 X:02 Y:F0 P:24 SP:F
FB32  60        RTS                             A:42 X:02 Y:F0 P:24 SP:F
F3A6  4F 47 06 *SRE $0647 = 29                  A:42 X:02 Y:F0 P:24 SP:F
F3A9  EA        NOP                             A:56 X:02 Y:F0 P:25 SP:F
F3AA  EA        NOP                             A:56 X:02 Y:F0 P:25 SP:F
F3AB  EA        NOP                             A:56 X:02 Y:F0 P:25 SP:F
F3AC  EA        NOP                             A:56 X:02 Y:F0 P:25 SP:F
F3AD  20 33 FB  JSR $FB33                       A:56 X:02 Y:F0 P:25 SP:F
FB33  70 40     BVS $FB75                       A:56 X:02 Y:F0 P:25 SP:F
FB35  F0 3E     BEQ $FB75                       A:56 X:02 Y:F0 P:25 SP:F
FB37  30 3C     BMI $FB75                       A:56 X:02 Y:F0 P:25 SP:F
FB39  90 3A     BCC $FB75                       A:56 X:02 Y:F0 P:25 SP:F
FB3B  C9 56     CMP #$56                        A:56 X:02 Y:F0 P:25 SP:F
FB3D  D0 36     BNE $FB75                       A:56 X:02 Y:F0 P:27 SP:F
FB3F  60        RTS                             A:56 X:02 Y:F0 P:27 SP:F
F3B0  AD 47 06  LDA $0647 = 14                  A:56 X:02 Y:F0 P:27 SP:F
F3B3  C9 14     CMP #$14                        A:14 X:02 Y:F0 P:25 SP:F
F3B5  F0 02     BEQ $F3B9                       A:14 X:02 Y:F0 P:27 SP:F
F3B9  C8        INY                             A:14 X:02 Y:F0 P:27 SP:F
F3BA  A9 37     LDA #$37                        A:14 X:02 Y:F1 P:A5 SP:F
F3BC  8D 47 06  STA $0647 = 14                  A:37 X:02 Y:F1 P:25 SP:F
F3BF  20 40 FB  JSR $FB40                       A:37 X:02 Y:F1 P:25 SP:F
FB40  24 01     BIT $01 = FF                    A:37 X:02 Y:F1 P:25 SP:F
FB42  38        SEC                             A:37 X:02 Y:F1 P:E5 SP:F
FB43  A9 75     LDA #$75                        A:37 X:02 Y:F1 P:E5 SP:F
FB45  60        RTS                             A:75 X:02 Y:F1 P:65 SP:F
F3C2  4F 47 06 *SRE $0647 = 37                  A:75 X:02 Y:F1 P:65 SP:F
F3C5  EA        NOP                             A:6E X:02 Y:F1 P:65 SP:F
F3C6  EA        NOP                             A:6E X:02 Y:F1 P:65 SP:F
F3C7  EA        NOP                             A:6E X:02 Y:F1 P:65 SP:F
F3C8  EA        NOP                             A:6E X:02 Y:F1 P:65 SP:F
F3C9  20 46 FB  JSR $FB46                       A:6E X:02 Y:F1 P:65 SP:F
FB46  50 2D     BVC $FB75                       A:6E X:02 Y:F1 P:65 SP:F
FB48  F0 2B     BEQ $FB75                       A:6E X:02 Y:F1 P:65 SP:F
FB4A  30 29     BMI $FB75                       A:6E X:02 Y:F1 P:65 SP:F
FB4C  90 27     BCC $FB75                       A:6E X:02 Y:F1 P:65 SP:F
FB4E  C9 6E     CMP #$6E                        A:6E X:02 Y:F1 P:65 SP:F
FB50  D0 23     BNE $FB75                       A:6E X:02 Y:F1 P:67 SP:F
FB52  60        RTS                             A:6E X:02 Y:F1 P:67 SP:F
F3CC  AD 47 06  LDA $0647 = 1B                  A:6E X:02 Y:F1 P:67 SP:F
F3CF  C9 1B     CMP #$1B                        A:1B X:02 Y:F1 P:65 SP:F
F3D1  F0 02     BEQ $F3D5                       A:1B X:02 Y:F1 P:67 SP:F
F3D5  A9 A5     LDA #$A5                        A:1B X:02 Y:F1 P:67 SP:F
F3D7  8D 47 06  STA $0647 = 1B                  A:A5 X:02 Y:F1 P:E5 SP:F
F3DA  A9 48     LDA #$48                        A:A5 X:02 Y:F1 P:E5 SP:F
F3DC  85 45     STA $45 = 48                    A:48 X:02 Y:F1 P:65 SP:F
F3DE  A9 05     LDA #$05                        A:48 X:02 Y:F1 P:65 SP:F
F3E0  85 46     STA $46 = 05                    A:05 X:02 Y:F1 P:65 SP:F
F3E2  A0 FF     LDY #$FF                        A:05 X:02 Y:F1 P:65 SP:F
F3E4  20 1D FB  JSR $FB1D                       A:05 X:02 Y:FF P:E5 SP:F
FB1D  24 01     BIT $01 = FF                    A:05 X:02 Y:FF P:E5 SP:F
FB1F  18        CLC                             A:05 X:02 Y:FF P:E5 SP:F
FB20  A9 B3     LDA #$B3                        A:05 X:02 Y:FF P:E4 SP:F
FB22  60        RTS                             A:B3 X:02 Y:FF P:E4 SP:F
F3E7  53 45    *SRE ($45),Y = 0548 @ 0647 = A5  A:B3 X:02 Y:FF P:E4 SP:F
F3E9  EA        NOP                             A:E1 X:02 Y:FF P:E5 SP:F
F3EA  EA        NOP                             A:E1 X:02 Y:FF P:E5 SP:F
F3EB  08        PHP                             A:E1 X:02 Y:FF P:E5 SP:F
F3EC  48        PHA                             A:E1 X:02 Y:FF P:E5 SP:F
F3ED  A0 F2     LDY #$F2                        A:E1 X:02 Y:FF P:E5 SP:F
F3EF  68        PLA                             A:E1 X:02 Y:F2 P:E5 SP:F
F3F0  28        PLP                             A:E1 X:02 Y:F2 P:E5 SP:F
F3F1  20 23 FB  JSR $FB23                       A:E1 X:02 Y:F2 P:E5 SP:F
FB23  50 50     BVC $FB75                       A:E1 X:02 Y:F2 P:E5 SP:F
FB25  90 4E     BCC $FB75                       A:E1 X:02 Y:F2 P:E5 SP:F
FB27  10 4C     BPL $FB75                       A:E1 X:02 Y:F2 P:E5 SP:F
FB29  C9 E1     CMP #$E1                        A:E1 X:02 Y:F2 P:E5 SP:F
FB2B  D0 48     BNE $FB75                       A:E1 X:02 Y:F2 P:67 SP:F
FB2D  60        RTS                             A:E1 X:02 Y:F2 P:67 SP:F
F3F4  AD 47 06  LDA $0647 = 52                  A:E1 X:02 Y:F2 P:67 SP:F
F3F7  C9 52     CMP #$52                        A:52 X:02 Y:F2 P:65 SP:F
F3F9  F0 02     BEQ $F3FD                       A:52 X:02 Y:F2 P:67 SP:F
F3FD  A0 FF     LDY #$FF                        A:52 X:02 Y:F2 P:67 SP:F
F3FF  A9 29     LDA #$29                        A:52 X:02 Y:FF P:E5 SP:F
F401  8D 47 06  STA $0647 = 52                  A:29 X:02 Y:FF P:65 SP:F
F404  20 2E FB  JSR $FB2E                       A:29 X:02 Y:FF P:65 SP:F
FB2E  B8        CLV                             A:29 X:02 Y:FF P:65 SP:F
FB2F  18        CLC                             A:29 X:02 Y:FF P:25 SP:F
FB30  A9 42     LDA #$42                        A:29 X:02 Y:FF P:24 SP:F
FB32  60        RTS                             A:42 X:02 Y:FF P:24 SP:F
F407  53 45    *SRE ($45),Y = 0548 @ 0647 = 29  A:42 X:02 Y:FF P:24 SP:F
F409  EA        NOP                             A:56 X:02 Y:FF P:25 SP:F
F40A  EA        NOP                             A:56 X:02 Y:FF P:25 SP:F
F40B  08        PHP                             A:56 X:02 Y:FF P:25 SP:F
F40C  48        PHA                             A:56 X:02 Y:FF P:25 SP:F
F40D  A0 F3     LDY #$F3                        A:56 X:02 Y:FF P:25 SP:F
F40F  68        PLA                             A:56 X:02 Y:F3 P:A5 SP:F
F410  28        PLP                             A:56 X:02 Y:F3 P:25 SP:F
F411  20 33 FB  JSR $FB33                       A:56 X:02 Y:F3 P:25 SP:F
FB33  70 40     BVS $FB75                       A:56 X:02 Y:F3 P:25 SP:F
FB35  F0 3E     BEQ $FB75                       A:56 X:02 Y:F3 P:25 SP:F
FB37  30 3C     BMI $FB75                       A:56 X:02 Y:F3 P:25 SP:F
FB39  90 3A     BCC $FB75                       A:56 X:02 Y:F3 P:25 SP:F
FB3B  C9 56     CMP #$56                        A:56 X:02 Y:F3 P:25 SP:F
FB3D  D0 36     BNE $FB75                       A:56 X:02 Y:F3 P:27 SP:F
FB3F  60        RTS                             A:56 X:02 Y:F3 P:27 SP:F
F414  AD 47 06  LDA $0647 = 14                  A:56 X:02 Y:F3 P:27 SP:F
F417  C9 14     CMP #$14                        A:14 X:02 Y:F3 P:25 SP:F
F419  F0 02     BEQ $F41D                       A:14 X:02 Y:F3 P:27 SP:F
F41D  A0 FF     LDY #$FF                        A:14 X:02 Y:F3 P:27 SP:F
F41F  A9 37     LDA #$37                        A:14 X:02 Y:FF P:A5 SP:F
F421  8D 47 06  STA $0647 = 14                  A:37 X:02 Y:FF P:25 SP:F
F424  20 40 FB  JSR $FB40                       A:37 X:02 Y:FF P:25 SP:F
FB40  24 01     BIT $01 = FF                    A:37 X:02 Y:FF P:25 SP:F
FB42  38        SEC                             A:37 X:02 Y:FF P:E5 SP:F
FB43  A9 75     LDA #$75                        A:37 X:02 Y:FF P:E5 SP:F
FB45  60        RTS                             A:75 X:02 Y:FF P:65 SP:F
F427  53 45    *SRE ($45),Y = 0548 @ 0647 = 37  A:75 X:02 Y:FF P:65 SP:F
F429  EA        NOP                             A:6E X:02 Y:FF P:65 SP:F
F42A  EA        NOP                             A:6E X:02 Y:FF P:65 SP:F
F42B  08        PHP                             A:6E X:02 Y:FF P:65 SP:F
F42C  48        PHA                             A:6E X:02 Y:FF P:65 SP:F
F42D  A0 F4     LDY #$F4                        A:6E X:02 Y:FF P:65 SP:F
F42F  68        PLA                             A:6E X:02 Y:F4 P:E5 SP:F
F430  28        PLP                             A:6E X:02 Y:F4 P:65 SP:F
F431  20 46 FB  JSR $FB46                       A:6E X:02 Y:F4 P:65 SP:F
FB46  50 2D     BVC $FB75                       A:6E X:02 Y:F4 P:65 SP:F
FB48  F0 2B     BEQ $FB75                       A:6E X:02 Y:F4 P:65 SP:F
FB4A  30 29     BMI $FB75                       A:6E X:02 Y:F4 P:65 SP:F
FB4C  90 27     BCC $FB75                       A:6E X:02 Y:F4 P:65 SP:F
FB4E  C9 6E     CMP #$6E                        A:6E X:02 Y:F4 P:65 SP:F
FB50  D0 23     BNE $FB75                       A:6E X:02 Y:F4 P:67 SP:F
FB52  60        RTS                             A:6E X:02 Y:F4 P:67 SP:F
F434  AD 47 06  LDA $0647 = 1B                  A:6E X:02 Y:F4 P:67 SP:F
F437  C9 1B     CMP #$1B                        A:1B X:02 Y:F4 P:65 SP:F
F439  F0 02     BEQ $F43D                       A:1B X:02 Y:F4 P:67 SP:F
F43D  A0 F5     LDY #$F5                        A:1B X:02 Y:F4 P:67 SP:F
F43F  A2 FF     LDX #$FF                        A:1B X:02 Y:F5 P:E5 SP:F
F441  A9 A5     LDA #$A5                        A:1B X:FF Y:F5 P:E5 SP:F
F443  85 47     STA $47 = 1B                    A:A5 X:FF Y:F5 P:E5 SP:F
F445  20 1D FB  JSR $FB1D                       A:A5 X:FF Y:F5 P:E5 SP:F
FB1D  24 01     BIT $01 = FF                    A:A5 X:FF Y:F5 P:E5 SP:F
FB1F  18        CLC                             A:A5 X:FF Y:F5 P:E5 SP:F
FB20  A9 B3     LDA #$B3                        A:A5 X:FF Y:F5 P:E4 SP:F
FB22  60        RTS                             A:B3 X:FF Y:F5 P:E4 SP:F
F448  57 48    *SRE $48,X @ 47 = A5             A:B3 X:FF Y:F5 P:E4 SP:F
F44A  EA        NOP                             A:E1 X:FF Y:F5 P:E5 SP:F
F44B  EA        NOP                             A:E1 X:FF Y:F5 P:E5 SP:F
F44C  EA        NOP                             A:E1 X:FF Y:F5 P:E5 SP:F
F44D  EA        NOP                             A:E1 X:FF Y:F5 P:E5 SP:F
F44E  20 23 FB  JSR $FB23                       A:E1 X:FF Y:F5 P:E5 SP:F
FB23  50 50     BVC $FB75                       A:E1 X:FF Y:F5 P:E5 SP:F
FB25  90 4E     BCC $FB75                       A:E1 X:FF Y:F5 P:E5 SP:F
FB27  10 4C     BPL $FB75                       A:E1 X:FF Y:F5 P:E5 SP:F
FB29  C9 E1     CMP #$E1                        A:E1 X:FF Y:F5 P:E5 SP:F
FB2B  D0 48     BNE $FB75                       A:E1 X:FF Y:F5 P:67 SP:F
FB2D  60        RTS                             A:E1 X:FF Y:F5 P:67 SP:F
F451  A5 47     LDA $47 = 52                    A:E1 X:FF Y:F5 P:67 SP:F
F453  C9 52     CMP #$52                        A:52 X:FF Y:F5 P:65 SP:F
F455  F0 02     BEQ $F459                       A:52 X:FF Y:F5 P:67 SP:F
F459  C8        INY                             A:52 X:FF Y:F5 P:67 SP:F
F45A  A9 29     LDA #$29                        A:52 X:FF Y:F6 P:E5 SP:F
F45C  85 47     STA $47 = 52                    A:29 X:FF Y:F6 P:65 SP:F
F45E  20 2E FB  JSR $FB2E                       A:29 X:FF Y:F6 P:65 SP:F
FB2E  B8        CLV                             A:29 X:FF Y:F6 P:65 SP:F
FB2F  18        CLC                             A:29 X:FF Y:F6 P:25 SP:F
FB30  A9 42     LDA #$42                        A:29 X:FF Y:F6 P:24 SP:F
FB32  60        RTS                             A:42 X:FF Y:F6 P:24 SP:F
F461  57 48    *SRE $48,X @ 47 = 29             A:42 X:FF Y:F6 P:24 SP:F
F463  EA        NOP                             A:56 X:FF Y:F6 P:25 SP:F
F464  EA        NOP                             A:56 X:FF Y:F6 P:25 SP:F
F465  EA        NOP                             A:56 X:FF Y:F6 P:25 SP:F
F466  EA        NOP                             A:56 X:FF Y:F6 P:25 SP:F
F467  20 33 FB  JSR $FB33                       A:56 X:FF Y:F6 P:25 SP:F
FB33  70 40     BVS $FB75                       A:56 X:FF Y:F6 P:25 SP:F
FB35  F0 3E     BEQ $FB75                       A:56 X:FF Y:F6 P:25 SP:F
FB37  30 3C     BMI $FB75                       A:56 X:FF Y:F6 P:25 SP:F
FB39  90 3A     BCC $FB75                       A:56 X:FF Y:F6 P:25 SP:F
FB3B  C9 56     CMP #$56                        A:56 X:FF Y:F6 P:25 SP:F
FB3D  D0 36     BNE $FB75                       A:56 X:FF Y:F6 P:27 SP:F
FB3F  60        RTS                             A:56 X:FF Y:F6 P:27 SP:F
F46A  A5 47     LDA $47 = 14                    A:56 X:FF Y:F6 P:27 SP:F
F46C  C9 14     CMP #$14                        A:14 X:FF Y:F6 P:25 SP:F
F46E  F0 02     BEQ $F472                       A:14 X:FF Y:F6 P:27 SP:F
F472  C8        INY                             A:14 X:FF Y:F6 P:27 SP:F
F473  A9 37     LDA #$37                        A:14 X:FF Y:F7 P:A5 SP:F
F475  85 47     STA $47 = 14                    A:37 X:FF Y:F7 P:25 SP:F
F477  20 40 FB  JSR $FB40                       A:37 X:FF Y:F7 P:25 SP:F
FB40  24 01     BIT $01 = FF                    A:37 X:FF Y:F7 P:25 SP:F
FB42  38        SEC                             A:37 X:FF Y:F7 P:E5 SP:F
FB43  A9 75     LDA #$75                        A:37 X:FF Y:F7 P:E5 SP:F
FB45  60        RTS                             A:75 X:FF Y:F7 P:65 SP:F
F47A  57 48    *SRE $48,X @ 47 = 37             A:75 X:FF Y:F7 P:65 SP:F
F47C  EA        NOP                             A:6E X:FF Y:F7 P:65 SP:F
F47D  EA        NOP                             A:6E X:FF Y:F7 P:65 SP:F
F47E  EA        NOP                             A:6E X:FF Y:F7 P:65 SP:F
F47F  EA        NOP                             A:6E X:FF Y:F7 P:65 SP:F
F480  20 46 FB  JSR $FB46                       A:6E X:FF Y:F7 P:65 SP:F
FB46  50 2D     BVC $FB75                       A:6E X:FF Y:F7 P:65 SP:F
FB48  F0 2B     BEQ $FB75                       A:6E X:FF Y:F7 P:65 SP:F
FB4A  30 29     BMI $FB75                       A:6E X:FF Y:F7 P:65 SP:F
FB4C  90 27     BCC $FB75                       A:6E X:FF Y:F7 P:65 SP:F
FB4E  C9 6E     CMP #$6E                        A:6E X:FF Y:F7 P:65 SP:F
FB50  D0 23     BNE $FB75                       A:6E X:FF Y:F7 P:67 SP:F
FB52  60        RTS                             A:6E X:FF Y:F7 P:67 SP:F
F483  A5 47     LDA $47 = 1B                    A:6E X:FF Y:F7 P:67 SP:F
F485  C9 1B     CMP #$1B                        A:1B X:FF Y:F7 P:65 SP:F
F487  F0 02     BEQ $F48B                       A:1B X:FF Y:F7 P:67 SP:F
F48B  A9 A5     LDA #$A5                        A:1B X:FF Y:F7 P:67 SP:F
F48D  8D 47 06  STA $0647 = 1B                  A:A5 X:FF Y:F7 P:E5 SP:F
F490  A0 FF     LDY #$FF                        A:A5 X:FF Y:F7 P:E5 SP:F
F492  20 1D FB  JSR $FB1D                       A:A5 X:FF Y:FF P:E5 SP:F
FB1D  24 01     BIT $01 = FF                    A:A5 X:FF Y:FF P:E5 SP:F
FB1F  18        CLC                             A:A5 X:FF Y:FF P:E5 SP:F
FB20  A9 B3     LDA #$B3                        A:A5 X:FF Y:FF P:E4 SP:F
FB22  60        RTS                             A:B3 X:FF Y:FF P:E4 SP:F
F495  5B 48 05 *SRE $0548,Y @ 0647 = A5         A:B3 X:FF Y:FF P:E4 SP:F
F498  EA        NOP                             A:E1 X:FF Y:FF P:E5 SP:F
F499  EA        NOP                             A:E1 X:FF Y:FF P:E5 SP:F
F49A  08        PHP                             A:E1 X:FF Y:FF P:E5 SP:F
F49B  48        PHA                             A:E1 X:FF Y:FF P:E5 SP:F
F49C  A0 F8     LDY #$F8                        A:E1 X:FF Y:FF P:E5 SP:F
F49E  68        PLA                             A:E1 X:FF Y:F8 P:E5 SP:F
F49F  28        PLP                             A:E1 X:FF Y:F8 P:E5 SP:F
F4A0  20 23 FB  JSR $FB23                       A:E1 X:FF Y:F8 P:E5 SP:F
FB23  50 50     BVC $FB75                       A:E1 X:FF Y:F8 P:E5 SP:F
FB25  90 4E     BCC $FB75                       A:E1 X:FF Y:F8 P:E5 SP:F
FB27  10 4C     BPL $FB75                       A:E1 X:FF Y:F8 P:E5 SP:F
FB29  C9 E1     CMP #$E1                        A:E1 X:FF Y:F8 P:E5 SP:F
FB2B  D0 48     BNE $FB75                       A:E1 X:FF Y:F8 P:67 SP:F
FB2D  60        RTS                             A:E1 X:FF Y:F8 P:67 SP:F
F4A3  AD 47 06  LDA $0647 = 52                  A:E1 X:FF Y:F8 P:67 SP:F
F4A6  C9 52     CMP #$52                        A:52 X:FF Y:F8 P:65 SP:F
F4A8  F0 02     BEQ $F4AC                       A:52 X:FF Y:F8 P:67 SP:F
F4AC  A0 FF     LDY #$FF                        A:52 X:FF Y:F8 P:67 SP:F
F4AE  A9 29     LDA #$29                        A:52 X:FF Y:FF P:E5 SP:F
F4B0  8D 47 06  STA $0647 = 52                  A:29 X:FF Y:FF P:65 SP:F
F4B3  20 2E FB  JSR $FB2E                       A:29 X:FF Y:FF P:65 SP:F
FB2E  B8        CLV                             A:29 X:FF Y:FF P:65 SP:F
FB2F  18        CLC                             A:29 X:FF Y:FF P:25 SP:F
FB30  A9 42     LDA #$42                        A:29 X:FF Y:FF P:24 SP:F
FB32  60        RTS                             A:42 X:FF Y:FF P:24 SP:F
F4B6  5B 48 05 *SRE $0548,Y @ 0647 = 29         A:42 X:FF Y:FF P:24 SP:F
F4B9  EA        NOP                             A:56 X:FF Y:FF P:25 SP:F
F4BA  EA        NOP                             A:56 X:FF Y:FF P:25 SP:F
F4BB  08        PHP                             A:56 X:FF Y:FF P:25 SP:F
F4BC  48        PHA                             A:56 X:FF Y:FF P:25 SP:F
F4BD  A0 F9     LDY #$F9                        A:56 X:FF Y:FF P:25 SP:F
F4BF  68        PLA                             A:56 X:FF Y:F9 P:A5 SP:F
F4C0  28        PLP                             A:56 X:FF Y:F9 P:25 SP:F
F4C1  20 33 FB  JSR $FB33                       A:56 X:FF Y:F9 P:25 SP:F
FB33  70 40     BVS $FB75                       A:56 X:FF Y:F9 P:25 SP:F
FB35  F0 3E     BEQ $FB75                       A:56 X:FF Y:F9 P:25 SP:F
FB37  30 3C     BMI $FB75                       A:56 X:FF Y:F9 P:25 SP:F
FB39  90 3A     BCC $FB75                       A:56 X:FF Y:F9 P:25 SP:F
FB3B  C9 56     CMP #$56                        A:56 X:FF Y:F9 P:25 SP:F
FB3D  D0 36     BNE $FB75                       A:56 X:FF Y:F9 P:27 SP:F
FB3F  60        RTS                             A:56 X:FF Y:F9 P:27 SP:F
F4C4  AD 47 06  LDA $0647 = 14                  A:56 X:FF Y:F9 P:27 SP:F
F4C7  C9 14     CMP #$14                        A:14 X:FF Y:F9 P:25 SP:F
F4C9  F0 02     BEQ $F4CD                       A:14 X:FF Y:F9 P:27 SP:F
F4CD  A0 FF     LDY #$FF                        A:14 X:FF Y:F9 P:27 SP:F
F4CF  A9 37     LDA #$37                        A:14 X:FF Y:FF P:A5 SP:F
F4D1  8D 47 06  STA $0647 = 14                  A:37 X:FF Y:FF P:25 SP:F
F4D4  20 40 FB  JSR $FB40                       A:37 X:FF Y:FF P:25 SP:F
FB40  24 01     BIT $01 = FF                    A:37 X:FF Y:FF P:25 SP:F
FB42  38        SEC                             A:37 X:FF Y:FF P:E5 SP:F
FB43  A9 75     LDA #$75                        A:37 X:FF Y:FF P:E5 SP:F
FB45  60        RTS                             A:75 X:FF Y:FF P:65 SP:F
F4D7  5B 48 05 *SRE $0548,Y @ 0647 = 37         A:75 X:FF Y:FF P:65 SP:F
F4DA  EA        NOP                             A:6E X:FF Y:FF P:65 SP:F
F4DB  EA        NOP                             A:6E X:FF Y:FF P:65 SP:F
F4DC  08        PHP                             A:6E X:FF Y:FF P:65 SP:F
F4DD  48        PHA                             A:6E X:FF Y:FF P:65 SP:F
F4DE  A0 FA     LDY #$FA                        A:6E X:FF Y:FF P:65 SP:F
F4E0  68        PLA                             A:6E X:FF Y:FA P:E5 SP:F
F4E1  28        PLP                             A:6E X:FF Y:FA P:65 SP:F
F4E2  20 46 FB  JSR $FB46                       A:6E X:FF Y:FA P:65 SP:F
FB46  50 2D     BVC $FB75                       A:6E X:FF Y:FA P:65 SP:F
FB48  F0 2B     BEQ $FB75                       A:6E X:FF Y:FA P:65 SP:F
FB4A  30 29     BMI $FB75                       A:6E X:FF Y:FA P:65 SP:F
FB4C  90 27     BCC $FB75                       A:6E X:FF Y:FA P:65 SP:F
FB4E  C9 6E     CMP #$6E                        A:6E X:FF Y:FA P:65 SP:F
FB50  D0 23     BNE $FB75                       A:6E X:FF Y:FA P:67 SP:F
FB52  60        RTS                             A:6E X:FF Y:FA P:67 SP:F
F4E5  AD 47 06  LDA $0647 = 1B                  A:6E X:FF Y:FA P:67 SP:F
F4E8  C9 1B     CMP #$1B                        A:1B X:FF Y:FA P:65 SP:F
F4EA  F0 02     BEQ $F4EE                       A:1B X:FF Y:FA P:67 SP:F
F4EE  A0 FB     LDY #$FB                        A:1B X:FF Y:FA P:67 SP:F
F4F0  A2 FF     LDX #$FF                        A:1B X:FF Y:FB P:E5 SP:F
F4F2  A9 A5     LDA #$A5                        A:1B X:FF Y:FB P:E5 SP:F
F4F4  8D 47 06  STA $0647 = 1B                  A:A5 X:FF Y:FB P:E5 SP:F
F4F7  20 1D FB  JSR $FB1D                       A:A5 X:FF Y:FB P:E5 SP:F
FB1D  24 01     BIT $01 = FF                    A:A5 X:FF Y:FB P:E5 SP:F
FB1F  18        CLC                             A:A5 X:FF Y:FB P:E5 SP:F
FB20  A9 B3     LDA #$B3                        A:A5 X:FF Y:FB P:E4 SP:F
FB22  60        RTS                             A:B3 X:FF Y:FB P:E4 SP:F
F4FA  5F 48 05 *SRE $0548,X @ 0647 = A5         A:B3 X:FF Y:FB P:E4 SP:F
F4FD  EA        NOP                             A:E1 X:FF Y:FB P:E5 SP:F
F4FE  EA        NOP                             A:E1 X:FF Y:FB P:E5 SP:F
F4FF  EA        NOP                             A:E1 X:FF Y:FB P:E5 SP:F
F500  EA        NOP                             A:E1 X:FF Y:FB P:E5 SP:F
F501  20 23 FB  JSR $FB23                       A:E1 X:FF Y:FB P:E5 SP:F
FB23  50 50     BVC $FB75                       A:E1 X:FF Y:FB P:E5 SP:F
FB25  90 4E     BCC $FB75                       A:E1 X:FF Y:FB P:E5 SP:F
FB27  10 4C     BPL $FB75                       A:E1 X:FF Y:FB P:E5 SP:F
FB29  C9 E1     CMP #$E1                        A:E1 X:FF Y:FB P:E5 SP:F
FB2B  D0 48     BNE $FB75                       A:E1 X:FF Y:FB P:67 SP:F
FB2D  60        RTS                             A:E1 X:FF Y:FB P:67 SP:F
F504  AD 47 06  LDA $0647 = 52                  A:E1 X:FF Y:FB P:67 SP:F
F507  C9 52     CMP #$52                        A:52 X:FF Y:FB P:65 SP:F
F509  F0 02     BEQ $F50D                       A:52 X:FF Y:FB P:67 SP:F
F50D  C8        INY                             A:52 X:FF Y:FB P:67 SP:F
F50E  A9 29     LDA #$29                        A:52 X:FF Y:FC P:E5 SP:F
F510  8D 47 06  STA $0647 = 52                  A:29 X:FF Y:FC P:65 SP:F
F513  20 2E FB  JSR $FB2E                       A:29 X:FF Y:FC P:65 SP:F
FB2E  B8        CLV                             A:29 X:FF Y:FC P:65 SP:F
FB2F  18        CLC                             A:29 X:FF Y:FC P:25 SP:F
FB30  A9 42     LDA #$42                        A:29 X:FF Y:FC P:24 SP:F
FB32  60        RTS                             A:42 X:FF Y:FC P:24 SP:F
F516  5F 48 05 *SRE $0548,X @ 0647 = 29         A:42 X:FF Y:FC P:24 SP:F
F519  EA        NOP                             A:56 X:FF Y:FC P:25 SP:F
F51A  EA        NOP                             A:56 X:FF Y:FC P:25 SP:F
F51B  EA        NOP                             A:56 X:FF Y:FC P:25 SP:F
F51C  EA        NOP                             A:56 X:FF Y:FC P:25 SP:F
F51D  20 33 FB  JSR $FB33                       A:56 X:FF Y:FC P:25 SP:F
FB33  70 40     BVS $FB75                       A:56 X:FF Y:FC P:25 SP:F
FB35  F0 3E     BEQ $FB75                       A:56 X:FF Y:FC P:25 SP:F
FB37  30 3C     BMI $FB75                       A:56 X:FF Y:FC P:25 SP:F
FB39  90 3A     BCC $FB75                       A:56 X:FF Y:FC P:25 SP:F
FB3B  C9 56     CMP #$56                        A:56 X:FF Y:FC P:25 SP:F
FB3D  D0 36     BNE $FB75                       A:56 X:FF Y:FC P:27 SP:F
FB3F  60        RTS                             A:56 X:FF Y:FC P:27 SP:F
F520  AD 47 06  LDA $0647 = 14                  A:56 X:FF Y:FC P:27 SP:F
F523  C9 14     CMP #$14                        A:14 X:FF Y:FC P:25 SP:F
F525  F0 02     BEQ $F529                       A:14 X:FF Y:FC P:27 SP:F
F529  C8        INY                             A:14 X:FF Y:FC P:27 SP:F
F52A  A9 37     LDA #$37                        A:14 X:FF Y:FD P:A5 SP:F
F52C  8D 47 06  STA $0647 = 14                  A:37 X:FF Y:FD P:25 SP:F
F52F  20 40 FB  JSR $FB40                       A:37 X:FF Y:FD P:25 SP:F
FB40  24 01     BIT $01 = FF                    A:37 X:FF Y:FD P:25 SP:F
FB42  38        SEC                             A:37 X:FF Y:FD P:E5 SP:F
FB43  A9 75     LDA #$75                        A:37 X:FF Y:FD P:E5 SP:F
FB45  60        RTS                             A:75 X:FF Y:FD P:65 SP:F
F532  5F 48 05 *SRE $0548,X @ 0647 = 37         A:75 X:FF Y:FD P:65 SP:F
F535  EA        NOP                             A:6E X:FF Y:FD P:65 SP:F
F536  EA        NOP                             A:6E X:FF Y:FD P:65 SP:F
F537  EA        NOP                             A:6E X:FF Y:FD P:65 SP:F
F538  EA        NOP                             A:6E X:FF Y:FD P:65 SP:F
F539  20 46 FB  JSR $FB46                       A:6E X:FF Y:FD P:65 SP:F
FB46  50 2D     BVC $FB75                       A:6E X:FF Y:FD P:65 SP:F
FB48  F0 2B     BEQ $FB75                       A:6E X:FF Y:FD P:65 SP:F
FB4A  30 29     BMI $FB75                       A:6E X:FF Y:FD P:65 SP:F
FB4C  90 27     BCC $FB75                       A:6E X:FF Y:FD P:65 SP:F
FB4E  C9 6E     CMP #$6E                        A:6E X:FF Y:FD P:65 SP:F
FB50  D0 23     BNE $FB75                       A:6E X:FF Y:FD P:67 SP:F
FB52  60        RTS                             A:6E X:FF Y:FD P:67 SP:F
F53C  AD 47 06  LDA $0647 = 1B                  A:6E X:FF Y:FD P:67 SP:F
F53F  C9 1B     CMP #$1B                        A:1B X:FF Y:FD P:65 SP:F
F541  F0 02     BEQ $F545                       A:1B X:FF Y:FD P:67 SP:F
F545  60        RTS                             A:1B X:FF Y:FD P:67 SP:F
C64A  A5 00     LDA $00 = 00                    A:1B X:FF Y:FD P:67 SP:F
C64C  85 11     STA $11 = 00                    A:00 X:FF Y:FD P:67 SP:F
C64E  A9 00     LDA #$00                        A:00 X:FF Y:FD P:67 SP:F
C650  85 00     STA $00 = 00                    A:00 X:FF Y:FD P:67 SP:F
C652  20 46 F5  JSR $F546                       A:00 X:FF Y:FD P:67 SP:F
F546  A9 FF     LDA #$FF                        A:00 X:FF Y:FD P:67 SP:F
F548  85 01     STA $01 = FF                    A:FF X:FF Y:FD P:E5 SP:F
F54A  A0 01     LDY #$01                        A:FF X:FF Y:FD P:E5 SP:F
F54C  A2 02     LDX #$02                        A:FF X:FF Y:01 P:65 SP:F
F54E  A9 47     LDA #$47                        A:FF X:02 Y:01 P:65 SP:F
F550  85 47     STA $47 = 1B                    A:47 X:02 Y:01 P:65 SP:F
F552  A9 06     LDA #$06                        A:47 X:02 Y:01 P:65 SP:F
F554  85 48     STA $48 = 06                    A:06 X:02 Y:01 P:65 SP:F
F556  A9 A5     LDA #$A5                        A:06 X:02 Y:01 P:65 SP:F
F558  8D 47 06  STA $0647 = 1B                  A:A5 X:02 Y:01 P:E5 SP:F
F55B  20 E9 FA  JSR $FAE9                       A:A5 X:02 Y:01 P:E5 SP:F
FAE9  24 01     BIT $01 = FF                    A:A5 X:02 Y:01 P:E5 SP:F
FAEB  18        CLC                             A:A5 X:02 Y:01 P:E5 SP:F
FAEC  A9 B2     LDA #$B2                        A:A5 X:02 Y:01 P:E4 SP:F
FAEE  60        RTS                             A:B2 X:02 Y:01 P:E4 SP:F
F55E  63 45    *RRA ($45,X) @ 47 = 0647 = A5    A:B2 X:02 Y:01 P:E4 SP:F
F560  EA        NOP                             A:05 X:02 Y:01 P:25 SP:F
F561  EA        NOP                             A:05 X:02 Y:01 P:25 SP:F
F562  EA        NOP                             A:05 X:02 Y:01 P:25 SP:F
F563  EA        NOP                             A:05 X:02 Y:01 P:25 SP:F
F564  20 EF FA  JSR $FAEF                       A:05 X:02 Y:01 P:25 SP:F
FAEF  70 2A     BVS $FB1B                       A:05 X:02 Y:01 P:25 SP:F
FAF1  90 28     BCC $FB1B                       A:05 X:02 Y:01 P:25 SP:F
FAF3  30 26     BMI $FB1B                       A:05 X:02 Y:01 P:25 SP:F
FAF5  C9 05     CMP #$05                        A:05 X:02 Y:01 P:25 SP:F
FAF7  D0 22     BNE $FB1B                       A:05 X:02 Y:01 P:27 SP:F
FAF9  60        RTS                             A:05 X:02 Y:01 P:27 SP:F
F567  AD 47 06  LDA $0647 = 52                  A:05 X:02 Y:01 P:27 SP:F
F56A  C9 52     CMP #$52                        A:52 X:02 Y:01 P:25 SP:F
F56C  F0 02     BEQ $F570                       A:52 X:02 Y:01 P:27 SP:F
F570  C8        INY                             A:52 X:02 Y:01 P:27 SP:F
F571  A9 29     LDA #$29                        A:52 X:02 Y:02 P:25 SP:F
F573  8D 47 06  STA $0647 = 52                  A:29 X:02 Y:02 P:25 SP:F
F576  20 FA FA  JSR $FAFA                       A:29 X:02 Y:02 P:25 SP:F
FAFA  B8        CLV                             A:29 X:02 Y:02 P:25 SP:F
FAFB  18        CLC                             A:29 X:02 Y:02 P:25 SP:F
FAFC  A9 42     LDA #$42                        A:29 X:02 Y:02 P:24 SP:F
FAFE  60        RTS                             A:42 X:02 Y:02 P:24 SP:F
F579  63 45    *RRA ($45,X) @ 47 = 0647 = 29    A:42 X:02 Y:02 P:24 SP:F
F57B  EA        NOP                             A:57 X:02 Y:02 P:24 SP:F
F57C  EA        NOP                             A:57 X:02 Y:02 P:24 SP:F
F57D  EA        NOP                             A:57 X:02 Y:02 P:24 SP:F
F57E  EA        NOP                             A:57 X:02 Y:02 P:24 SP:F
F57F  20 FF FA  JSR $FAFF                       A:57 X:02 Y:02 P:24 SP:F
FAFF  70 1A     BVS $FB1B                       A:57 X:02 Y:02 P:24 SP:F
FB01  30 18     BMI $FB1B                       A:57 X:02 Y:02 P:24 SP:F
FB03  B0 16     BCS $FB1B                       A:57 X:02 Y:02 P:24 SP:F
FB05  C9 57     CMP #$57                        A:57 X:02 Y:02 P:24 SP:F
FB07  D0 12     BNE $FB1B                       A:57 X:02 Y:02 P:27 SP:F
FB09  60        RTS                             A:57 X:02 Y:02 P:27 SP:F
F582  AD 47 06  LDA $0647 = 14                  A:57 X:02 Y:02 P:27 SP:F
F585  C9 14     CMP #$14                        A:14 X:02 Y:02 P:25 SP:F
F587  F0 02     BEQ $F58B                       A:14 X:02 Y:02 P:27 SP:F
F58B  C8        INY                             A:14 X:02 Y:02 P:27 SP:F
F58C  A9 37     LDA #$37                        A:14 X:02 Y:03 P:25 SP:F
F58E  8D 47 06  STA $0647 = 14                  A:37 X:02 Y:03 P:25 SP:F
F591  20 0A FB  JSR $FB0A                       A:37 X:02 Y:03 P:25 SP:F
FB0A  24 01     BIT $01 = FF                    A:37 X:02 Y:03 P:25 SP:F
FB0C  38        SEC                             A:37 X:02 Y:03 P:E5 SP:F
FB0D  A9 75     LDA #$75                        A:37 X:02 Y:03 P:E5 SP:F
FB0F  60        RTS                             A:75 X:02 Y:03 P:65 SP:F
F594  63 45    *RRA ($45,X) @ 47 = 0647 = 37    A:75 X:02 Y:03 P:65 SP:F
F596  EA        NOP                             A:11 X:02 Y:03 P:25 SP:F
F597  EA        NOP                             A:11 X:02 Y:03 P:25 SP:F
F598  EA        NOP                             A:11 X:02 Y:03 P:25 SP:F
F599  EA        NOP                             A:11 X:02 Y:03 P:25 SP:F
F59A  20 10 FB  JSR $FB10                       A:11 X:02 Y:03 P:25 SP:F
FB10  70 09     BVS $FB1B                       A:11 X:02 Y:03 P:25 SP:F
FB12  30 07     BMI $FB1B                       A:11 X:02 Y:03 P:25 SP:F
FB14  90 05     BCC $FB1B                       A:11 X:02 Y:03 P:25 SP:F
FB16  C9 11     CMP #$11                        A:11 X:02 Y:03 P:25 SP:F
FB18  D0 01     BNE $FB1B                       A:11 X:02 Y:03 P:27 SP:F
FB1A  60        RTS                             A:11 X:02 Y:03 P:27 SP:F
F59D  AD 47 06  LDA $0647 = 9B                  A:11 X:02 Y:03 P:27 SP:F
F5A0  C9 9B     CMP #$9B                        A:9B X:02 Y:03 P:A5 SP:F
F5A2  F0 02     BEQ $F5A6                       A:9B X:02 Y:03 P:27 SP:F
F5A6  C8        INY                             A:9B X:02 Y:03 P:27 SP:F
F5A7  A9 A5     LDA #$A5                        A:9B X:02 Y:04 P:25 SP:F
F5A9  85 47     STA $47 = 47                    A:A5 X:02 Y:04 P:A5 SP:F
F5AB  20 E9 FA  JSR $FAE9                       A:A5 X:02 Y:04 P:A5 SP:F
FAE9  24 01     BIT $01 = FF                    A:A5 X:02 Y:04 P:A5 SP:F
FAEB  18        CLC                             A:A5 X:02 Y:04 P:E5 SP:F
FAEC  A9 B2     LDA #$B2                        A:A5 X:02 Y:04 P:E4 SP:F
FAEE  60        RTS                             A:B2 X:02 Y:04 P:E4 SP:F
F5AE  67 47    *RRA $47 = A5                    A:B2 X:02 Y:04 P:E4 SP:F
F5B0  EA        NOP                             A:05 X:02 Y:04 P:25 SP:F
F5B1  EA        NOP                             A:05 X:02 Y:04 P:25 SP:F
F5B2  EA        NOP                             A:05 X:02 Y:04 P:25 SP:F
F5B3  EA        NOP                             A:05 X:02 Y:04 P:25 SP:F
F5B4  20 EF FA  JSR $FAEF                       A:05 X:02 Y:04 P:25 SP:F
FAEF  70 2A     BVS $FB1B                       A:05 X:02 Y:04 P:25 SP:F
FAF1  90 28     BCC $FB1B                       A:05 X:02 Y:04 P:25 SP:F
FAF3  30 26     BMI $FB1B                       A:05 X:02 Y:04 P:25 SP:F
FAF5  C9 05     CMP #$05                        A:05 X:02 Y:04 P:25 SP:F
FAF7  D0 22     BNE $FB1B                       A:05 X:02 Y:04 P:27 SP:F
FAF9  60        RTS                             A:05 X:02 Y:04 P:27 SP:F
F5B7  A5 47     LDA $47 = 52                    A:05 X:02 Y:04 P:27 SP:F
F5B9  C9 52     CMP #$52                        A:52 X:02 Y:04 P:25 SP:F
F5BB  F0 02     BEQ $F5BF                       A:52 X:02 Y:04 P:27 SP:F
F5BF  C8        INY                             A:52 X:02 Y:04 P:27 SP:F
F5C0  A9 29     LDA #$29                        A:52 X:02 Y:05 P:25 SP:F
F5C2  85 47     STA $47 = 52                    A:29 X:02 Y:05 P:25 SP:F
F5C4  20 FA FA  JSR $FAFA                       A:29 X:02 Y:05 P:25 SP:F
FAFA  B8        CLV                             A:29 X:02 Y:05 P:25 SP:F
FAFB  18        CLC                             A:29 X:02 Y:05 P:25 SP:F
FAFC  A9 42     LDA #$42                        A:29 X:02 Y:05 P:24 SP:F
FAFE  60        RTS                             A:42 X:02 Y:05 P:24 SP:F
F5C7  67 47    *RRA $47 = 29                    A:42 X:02 Y:05 P:24 SP:F
F5C9  EA        NOP                             A:57 X:02 Y:05 P:24 SP:F
F5CA  EA        NOP                             A:57 X:02 Y:05 P:24 SP:F
F5CB  EA        NOP                             A:57 X:02 Y:05 P:24 SP:F
F5CC  EA        NOP                             A:57 X:02 Y:05 P:24 SP:F
F5CD  20 FF FA  JSR $FAFF                       A:57 X:02 Y:05 P:24 SP:F
FAFF  70 1A     BVS $FB1B                       A:57 X:02 Y:05 P:24 SP:F
FB01  30 18     BMI $FB1B                       A:57 X:02 Y:05 P:24 SP:F
FB03  B0 16     BCS $FB1B                       A:57 X:02 Y:05 P:24 SP:F
FB05  C9 57     CMP #$57                        A:57 X:02 Y:05 P:24 SP:F
FB07  D0 12     BNE $FB1B                       A:57 X:02 Y:05 P:27 SP:F
FB09  60        RTS                             A:57 X:02 Y:05 P:27 SP:F
F5D0  A5 47     LDA $47 = 14                    A:57 X:02 Y:05 P:27 SP:F
F5D2  C9 14     CMP #$14                        A:14 X:02 Y:05 P:25 SP:F
F5D4  F0 02     BEQ $F5D8                       A:14 X:02 Y:05 P:27 SP:F
F5D8  C8        INY                             A:14 X:02 Y:05 P:27 SP:F
F5D9  A9 37     LDA #$37                        A:14 X:02 Y:06 P:25 SP:F
F5DB  85 47     STA $47 = 14                    A:37 X:02 Y:06 P:25 SP:F
F5DD  20 0A FB  JSR $FB0A                       A:37 X:02 Y:06 P:25 SP:F
FB0A  24 01     BIT $01 = FF                    A:37 X:02 Y:06 P:25 SP:F
FB0C  38        SEC                             A:37 X:02 Y:06 P:E5 SP:F
FB0D  A9 75     LDA #$75                        A:37 X:02 Y:06 P:E5 SP:F
FB0F  60        RTS                             A:75 X:02 Y:06 P:65 SP:F
F5E0  67 47    *RRA $47 = 37                    A:75 X:02 Y:06 P:65 SP:F
F5E2  EA        NOP                             A:11 X:02 Y:06 P:25 SP:F
F5E3  EA        NOP                             A:11 X:02 Y:06 P:25 SP:F
F5E4  EA        NOP                             A:11 X:02 Y:06 P:25 SP:F
F5E5  EA        NOP                             A:11 X:02 Y:06 P:25 SP:F
F5E6  20 10 FB  JSR $FB10                       A:11 X:02 Y:06 P:25 SP:F
FB10  70 09     BVS $FB1B                       A:11 X:02 Y:06 P:25 SP:F
FB12  30 07     BMI $FB1B                       A:11 X:02 Y:06 P:25 SP:F
FB14  90 05     BCC $FB1B                       A:11 X:02 Y:06 P:25 SP:F
FB16  C9 11     CMP #$11                        A:11 X:02 Y:06 P:25 SP:F
FB18  D0 01     BNE $FB1B                       A:11 X:02 Y:06 P:27 SP:F
FB1A  60        RTS                             A:11 X:02 Y:06 P:27 SP:F
F5E9  A5 47     LDA $47 = 9B                    A:11 X:02 Y:06 P:27 SP:F
F5EB  C9 9B     CMP #$9B                        A:9B X:02 Y:06 P:A5 SP:F
F5ED  F0 02     BEQ $F5F1                       A:9B X:02 Y:06 P:27 SP:F
F5F1  C8        INY                             A:9B X:02 Y:06 P:27 SP:F
F5F2  A9 A5     LDA #$A5                        A:9B X:02 Y:07 P:25 SP:F
F5F4  8D 47 06  STA $0647 = 9B                  A:A5 X:02 Y:07 P:A5 SP:F
F5F7  20 E9 FA  JSR $FAE9                       A:A5 X:02 Y:07 P:A5 SP:F
FAE9  24 01     BIT $01 = FF                    A:A5 X:02 Y:07 P:A5 SP:F
FAEB  18        CLC                             A:A5 X:02 Y:07 P:E5 SP:F
FAEC  A9 B2     LDA #$B2                        A:A5 X:02 Y:07 P:E4 SP:F
FAEE  60        RTS                             A:B2 X:02 Y:07 P:E4 SP:F
F5FA  6F 47 06 *RRA $0647 = A5                  A:B2 X:02 Y:07 P:E4 SP:F
F5FD  EA        NOP                             A:05 X:02 Y:07 P:25 SP:F
F5FE  EA        NOP                             A:05 X:02 Y:07 P:25 SP:F
F5FF  EA        NOP                             A:05 X:02 Y:07 P:25 SP:F
F600  EA        NOP                             A:05 X:02 Y:07 P:25 SP:F
F601  20 EF FA  JSR $FAEF                       A:05 X:02 Y:07 P:25 SP:F
FAEF  70 2A     BVS $FB1B                       A:05 X:02 Y:07 P:25 SP:F
FAF1  90 28     BCC $FB1B                       A:05 X:02 Y:07 P:25 SP:F
FAF3  30 26     BMI $FB1B                       A:05 X:02 Y:07 P:25 SP:F
FAF5  C9 05     CMP #$05                        A:05 X:02 Y:07 P:25 SP:F
FAF7  D0 22     BNE $FB1B                       A:05 X:02 Y:07 P:27 SP:F
FAF9  60        RTS                             A:05 X:02 Y:07 P:27 SP:F
F604  AD 47 06  LDA $0647 = 52                  A:05 X:02 Y:07 P:27 SP:F
F607  C9 52     CMP #$52                        A:52 X:02 Y:07 P:25 SP:F
F609  F0 02     BEQ $F60D                       A:52 X:02 Y:07 P:27 SP:F
F60D  C8        INY                             A:52 X:02 Y:07 P:27 SP:F
F60E  A9 29     LDA #$29                        A:52 X:02 Y:08 P:25 SP:F
F610  8D 47 06  STA $0647 = 52                  A:29 X:02 Y:08 P:25 SP:F
F613  20 FA FA  JSR $FAFA                       A:29 X:02 Y:08 P:25 SP:F
FAFA  B8        CLV                             A:29 X:02 Y:08 P:25 SP:F
FAFB  18        CLC                             A:29 X:02 Y:08 P:25 SP:F
FAFC  A9 42     LDA #$42                        A:29 X:02 Y:08 P:24 SP:F
FAFE  60        RTS                             A:42 X:02 Y:08 P:24 SP:F
F616  6F 47 06 *RRA $0647 = 29                  A:42 X:02 Y:08 P:24 SP:F
F619  EA        NOP                             A:57 X:02 Y:08 P:24 SP:F
F61A  EA        NOP                             A:57 X:02 Y:08 P:24 SP:F
F61B  EA        NOP                             A:57 X:02 Y:08 P:24 SP:F
F61C  EA        NOP                             A:57 X:02 Y:08 P:24 SP:F
F61D  20 FF FA  JSR $FAFF                       A:57 X:02 Y:08 P:24 SP:F
FAFF  70 1A     BVS $FB1B                       A:57 X:02 Y:08 P:24 SP:F
FB01  30 18     BMI $FB1B                       A:57 X:02 Y:08 P:24 SP:F
FB03  B0 16     BCS $FB1B                       A:57 X:02 Y:08 P:24 SP:F
FB05  C9 57     CMP #$57                        A:57 X:02 Y:08 P:24 SP:F
FB07  D0 12     BNE $FB1B                       A:57 X:02 Y:08 P:27 SP:F
FB09  60        RTS                             A:57 X:02 Y:08 P:27 SP:F
F620  AD 47 06  LDA $0647 = 14                  A:57 X:02 Y:08 P:27 SP:F
F623  C9 14     CMP #$14                        A:14 X:02 Y:08 P:25 SP:F
F625  F0 02     BEQ $F629                       A:14 X:02 Y:08 P:27 SP:F
F629  C8        INY                             A:14 X:02 Y:08 P:27 SP:F
F62A  A9 37     LDA #$37                        A:14 X:02 Y:09 P:25 SP:F
F62C  8D 47 06  STA $0647 = 14                  A:37 X:02 Y:09 P:25 SP:F
F62F  20 0A FB  JSR $FB0A                       A:37 X:02 Y:09 P:25 SP:F
FB0A  24 01     BIT $01 = FF                    A:37 X:02 Y:09 P:25 SP:F
FB0C  38        SEC                             A:37 X:02 Y:09 P:E5 SP:F
FB0D  A9 75     LDA #$75                        A:37 X:02 Y:09 P:E5 SP:F
FB0F  60        RTS                             A:75 X:02 Y:09 P:65 SP:F
F632  6F 47 06 *RRA $0647 = 37                  A:75 X:02 Y:09 P:65 SP:F
F635  EA        NOP                             A:11 X:02 Y:09 P:25 SP:F
F636  EA        NOP                             A:11 X:02 Y:09 P:25 SP:F
F637  EA        NOP                             A:11 X:02 Y:09 P:25 SP:F
F638  EA        NOP                             A:11 X:02 Y:09 P:25 SP:F
F639  20 10 FB  JSR $FB10                       A:11 X:02 Y:09 P:25 SP:F
FB10  70 09     BVS $FB1B                       A:11 X:02 Y:09 P:25 SP:F
FB12  30 07     BMI $FB1B                       A:11 X:02 Y:09 P:25 SP:F
FB14  90 05     BCC $FB1B                       A:11 X:02 Y:09 P:25 SP:F
FB16  C9 11     CMP #$11                        A:11 X:02 Y:09 P:25 SP:F
FB18  D0 01     BNE $FB1B                       A:11 X:02 Y:09 P:27 SP:F
FB1A  60        RTS                             A:11 X:02 Y:09 P:27 SP:F
F63C  AD 47 06  LDA $0647 = 9B                  A:11 X:02 Y:09 P:27 SP:F
F63F  C9 9B     CMP #$9B                        A:9B X:02 Y:09 P:A5 SP:F
F641  F0 02     BEQ $F645                       A:9B X:02 Y:09 P:27 SP:F
F645  A9 A5     LDA #$A5                        A:9B X:02 Y:09 P:27 SP:F
F647  8D 47 06  STA $0647 = 9B                  A:A5 X:02 Y:09 P:A5 SP:F
F64A  A9 48     LDA #$48                        A:A5 X:02 Y:09 P:A5 SP:F
F64C  85 45     STA $45 = 48                    A:48 X:02 Y:09 P:25 SP:F
F64E  A9 05     LDA #$05                        A:48 X:02 Y:09 P:25 SP:F
F650  85 46     STA $46 = 05                    A:05 X:02 Y:09 P:25 SP:F
F652  A0 FF     LDY #$FF                        A:05 X:02 Y:09 P:25 SP:F
F654  20 E9 FA  JSR $FAE9                       A:05 X:02 Y:FF P:A5 SP:F
FAE9  24 01     BIT $01 = FF                    A:05 X:02 Y:FF P:A5 SP:F
FAEB  18        CLC                             A:05 X:02 Y:FF P:E5 SP:F
FAEC  A9 B2     LDA #$B2                        A:05 X:02 Y:FF P:E4 SP:F
FAEE  60        RTS                             A:B2 X:02 Y:FF P:E4 SP:F
F657  73 45    *RRA ($45),Y = 0548 @ 0647 = A5  A:B2 X:02 Y:FF P:E4 SP:F
F659  EA        NOP                             A:05 X:02 Y:FF P:25 SP:F
F65A  EA        NOP                             A:05 X:02 Y:FF P:25 SP:F
F65B  08        PHP                             A:05 X:02 Y:FF P:25 SP:F
F65C  48        PHA                             A:05 X:02 Y:FF P:25 SP:F
F65D  A0 0A     LDY #$0A                        A:05 X:02 Y:FF P:25 SP:F
F65F  68        PLA                             A:05 X:02 Y:0A P:25 SP:F
F660  28        PLP                             A:05 X:02 Y:0A P:25 SP:F
F661  20 EF FA  JSR $FAEF                       A:05 X:02 Y:0A P:25 SP:F
FAEF  70 2A     BVS $FB1B                       A:05 X:02 Y:0A P:25 SP:F
FAF1  90 28     BCC $FB1B                       A:05 X:02 Y:0A P:25 SP:F
FAF3  30 26     BMI $FB1B                       A:05 X:02 Y:0A P:25 SP:F
FAF5  C9 05     CMP #$05                        A:05 X:02 Y:0A P:25 SP:F
FAF7  D0 22     BNE $FB1B                       A:05 X:02 Y:0A P:27 SP:F
FAF9  60        RTS                             A:05 X:02 Y:0A P:27 SP:F
F664  AD 47 06  LDA $0647 = 52                  A:05 X:02 Y:0A P:27 SP:F
F667  C9 52     CMP #$52                        A:52 X:02 Y:0A P:25 SP:F
F669  F0 02     BEQ $F66D                       A:52 X:02 Y:0A P:27 SP:F
F66D  A0 FF     LDY #$FF                        A:52 X:02 Y:0A P:27 SP:F
F66F  A9 29     LDA #$29                        A:52 X:02 Y:FF P:A5 SP:F
F671  8D 47 06  STA $0647 = 52                  A:29 X:02 Y:FF P:25 SP:F
F674  20 FA FA  JSR $FAFA                       A:29 X:02 Y:FF P:25 SP:F
FAFA  B8        CLV                             A:29 X:02 Y:FF P:25 SP:F
FAFB  18        CLC                             A:29 X:02 Y:FF P:25 SP:F
FAFC  A9 42     LDA #$42                        A:29 X:02 Y:FF P:24 SP:F
FAFE  60        RTS                             A:42 X:02 Y:FF P:24 SP:F
F677  73 45    *RRA ($45),Y = 0548 @ 0647 = 29  A:42 X:02 Y:FF P:24 SP:F
F679  EA        NOP                             A:57 X:02 Y:FF P:24 SP:F
F67A  EA        NOP                             A:57 X:02 Y:FF P:24 SP:F
F67B  08        PHP                             A:57 X:02 Y:FF P:24 SP:F
F67C  48        PHA                             A:57 X:02 Y:FF P:24 SP:F
F67D  A0 0B     LDY #$0B                        A:57 X:02 Y:FF P:24 SP:F
F67F  68        PLA                             A:57 X:02 Y:0B P:24 SP:F
F680  28        PLP                             A:57 X:02 Y:0B P:24 SP:F
F681  20 FF FA  JSR $FAFF                       A:57 X:02 Y:0B P:24 SP:F
FAFF  70 1A     BVS $FB1B                       A:57 X:02 Y:0B P:24 SP:F
FB01  30 18     BMI $FB1B                       A:57 X:02 Y:0B P:24 SP:F
FB03  B0 16     BCS $FB1B                       A:57 X:02 Y:0B P:24 SP:F
FB05  C9 57     CMP #$57                        A:57 X:02 Y:0B P:24 SP:F
FB07  D0 12     BNE $FB1B                       A:57 X:02 Y:0B P:27 SP:F
FB09  60        RTS                             A:57 X:02 Y:0B P:27 SP:F
F684  AD 47 06  LDA $0647 = 14                  A:57 X:02 Y:0B P:27 SP:F
F687  C9 14     CMP #$14                        A:14 X:02 Y:0B P:25 SP:F
F689  F0 02     BEQ $F68D                       A:14 X:02 Y:0B P:27 SP:F
F68D  A0 FF     LDY #$FF                        A:14 X:02 Y:0B P:27 SP:F
F68F  A9 37     LDA #$37                        A:14 X:02 Y:FF P:A5 SP:F
F691  8D 47 06  STA $0647 = 14                  A:37 X:02 Y:FF P:25 SP:F
F694  20 0A FB  JSR $FB0A                       A:37 X:02 Y:FF P:25 SP:F
FB0A  24 01     BIT $01 = FF                    A:37 X:02 Y:FF P:25 SP:F
FB0C  38        SEC                             A:37 X:02 Y:FF P:E5 SP:F
FB0D  A9 75     LDA #$75                        A:37 X:02 Y:FF P:E5 SP:F
FB0F  60        RTS                             A:75 X:02 Y:FF P:65 SP:F
F697  73 45    *RRA ($45),Y = 0548 @ 0647 = 37  A:75 X:02 Y:FF P:65 SP:F
F699  EA        NOP                             A:11 X:02 Y:FF P:25 SP:F
F69A  EA        NOP                             A:11 X:02 Y:FF P:25 SP:F
F69B  08        PHP                             A:11 X:02 Y:FF P:25 SP:F
F69C  48        PHA                             A:11 X:02 Y:FF P:25 SP:F
F69D  A0 0C     LDY #$0C                        A:11 X:02 Y:FF P:25 SP:F
F69F  68        PLA                             A:11 X:02 Y:0C P:25 SP:F
F6A0  28        PLP                             A:11 X:02 Y:0C P:25 SP:F
F6A1  20 10 FB  JSR $FB10                       A:11 X:02 Y:0C P:25 SP:F
FB10  70 09     BVS $FB1B                       A:11 X:02 Y:0C P:25 SP:F
FB12  30 07     BMI $FB1B                       A:11 X:02 Y:0C P:25 SP:F
FB14  90 05     BCC $FB1B                       A:11 X:02 Y:0C P:25 SP:F
FB16  C9 11     CMP #$11                        A:11 X:02 Y:0C P:25 SP:F
FB18  D0 01     BNE $FB1B                       A:11 X:02 Y:0C P:27 SP:F
FB1A  60        RTS                             A:11 X:02 Y:0C P:27 SP:F
F6A4  AD 47 06  LDA $0647 = 9B                  A:11 X:02 Y:0C P:27 SP:F
F6A7  C9 9B     CMP #$9B                        A:9B X:02 Y:0C P:A5 SP:F
F6A9  F0 02     BEQ $F6AD                       A:9B X:02 Y:0C P:27 SP:F
F6AD  A0 0D     LDY #$0D                        A:9B X:02 Y:0C P:27 SP:F
F6AF  A2 FF     LDX #$FF                        A:9B X:02 Y:0D P:25 SP:F
F6B1  A9 A5     LDA #$A5                        A:9B X:FF Y:0D P:A5 SP:F
F6B3  85 47     STA $47 = 9B                    A:A5 X:FF Y:0D P:A5 SP:F
F6B5  20 E9 FA  JSR $FAE9                       A:A5 X:FF Y:0D P:A5 SP:F
FAE9  24 01     BIT $01 = FF                    A:A5 X:FF Y:0D P:A5 SP:F
FAEB  18        CLC                             A:A5 X:FF Y:0D P:E5 SP:F
FAEC  A9 B2     LDA #$B2                        A:A5 X:FF Y:0D P:E4 SP:F
FAEE  60        RTS                             A:B2 X:FF Y:0D P:E4 SP:F
F6B8  77 48    *RRA $48,X @ 47 = A5             A:B2 X:FF Y:0D P:E4 SP:F
F6BA  EA        NOP                             A:05 X:FF Y:0D P:25 SP:F
F6BB  EA        NOP                             A:05 X:FF Y:0D P:25 SP:F
F6BC  EA        NOP                             A:05 X:FF Y:0D P:25 SP:F
F6BD  EA        NOP                             A:05 X:FF Y:0D P:25 SP:F
F6BE  20 EF FA  JSR $FAEF                       A:05 X:FF Y:0D P:25 SP:F
FAEF  70 2A     BVS $FB1B                       A:05 X:FF Y:0D P:25 SP:F
FAF1  90 28     BCC $FB1B                       A:05 X:FF Y:0D P:25 SP:F
FAF3  30 26     BMI $FB1B                       A:05 X:FF Y:0D P:25 SP:F
FAF5  C9 05     CMP #$05                        A:05 X:FF Y:0D P:25 SP:F
FAF7  D0 22     BNE $FB1B                       A:05 X:FF Y:0D P:27 SP:F
FAF9  60        RTS                             A:05 X:FF Y:0D P:27 SP:F
F6C1  A5 47     LDA $47 = 52                    A:05 X:FF Y:0D P:27 SP:F
F6C3  C9 52     CMP #$52                        A:52 X:FF Y:0D P:25 SP:F
F6C5  F0 02     BEQ $F6C9                       A:52 X:FF Y:0D P:27 SP:F
F6C9  C8        INY                             A:52 X:FF Y:0D P:27 SP:F
F6CA  A9 29     LDA #$29                        A:52 X:FF Y:0E P:25 SP:F
F6CC  85 47     STA $47 = 52                    A:29 X:FF Y:0E P:25 SP:F
F6CE  20 FA FA  JSR $FAFA                       A:29 X:FF Y:0E P:25 SP:F
FAFA  B8        CLV                             A:29 X:FF Y:0E P:25 SP:F
FAFB  18        CLC                             A:29 X:FF Y:0E P:25 SP:F
FAFC  A9 42     LDA #$42                        A:29 X:FF Y:0E P:24 SP:F
FAFE  60        RTS                             A:42 X:FF Y:0E P:24 SP:F
F6D1  77 48    *RRA $48,X @ 47 = 29             A:42 X:FF Y:0E P:24 SP:F
F6D3  EA        NOP                             A:57 X:FF Y:0E P:24 SP:F
F6D4  EA        NOP                             A:57 X:FF Y:0E P:24 SP:F
F6D5  EA        NOP                             A:57 X:FF Y:0E P:24 SP:F
F6D6  EA        NOP                             A:57 X:FF Y:0E P:24 SP:F
F6D7  20 FF FA  JSR $FAFF                       A:57 X:FF Y:0E P:24 SP:F
FAFF  70 1A     BVS $FB1B                       A:57 X:FF Y:0E P:24 SP:F
FB01  30 18     BMI $FB1B                       A:57 X:FF Y:0E P:24 SP:F
FB03  B0 16     BCS $FB1B                       A:57 X:FF Y:0E P:24 SP:F
FB05  C9 57     CMP #$57                        A:57 X:FF Y:0E P:24 SP:F
FB07  D0 12     BNE $FB1B                       A:57 X:FF Y:0E P:27 SP:F
FB09  60        RTS                             A:57 X:FF Y:0E P:27 SP:F
F6DA  A5 47     LDA $47 = 14                    A:57 X:FF Y:0E P:27 SP:F
F6DC  C9 14     CMP #$14                        A:14 X:FF Y:0E P:25 SP:F
F6DE  F0 02     BEQ $F6E2                       A:14 X:FF Y:0E P:27 SP:F
F6E2  C8        INY                             A:14 X:FF Y:0E P:27 SP:F
F6E3  A9 37     LDA #$37                        A:14 X:FF Y:0F P:25 SP:F
F6E5  85 47     STA $47 = 14                    A:37 X:FF Y:0F P:25 SP:F
F6E7  20 0A FB  JSR $FB0A                       A:37 X:FF Y:0F P:25 SP:F
FB0A  24 01     BIT $01 = FF                    A:37 X:FF Y:0F P:25 SP:F
FB0C  38        SEC                             A:37 X:FF Y:0F P:E5 SP:F
FB0D  A9 75     LDA #$75                        A:37 X:FF Y:0F P:E5 SP:F
FB0F  60        RTS                             A:75 X:FF Y:0F P:65 SP:F
F6EA  77 48    *RRA $48,X @ 47 = 37             A:75 X:FF Y:0F P:65 SP:F
F6EC  EA        NOP                             A:11 X:FF Y:0F P:25 SP:F
F6ED  EA        NOP                             A:11 X:FF Y:0F P:25 SP:F
F6EE  EA        NOP                             A:11 X:FF Y:0F P:25 SP:F
F6EF  EA        NOP                             A:11 X:FF Y:0F P:25 SP:F
F6F0  20 10 FB  JSR $FB10                       A:11 X:FF Y:0F P:25 SP:F
FB10  70 09     BVS $FB1B                       A:11 X:FF Y:0F P:25 SP:F
FB12  30 07     BMI $FB1B                       A:11 X:FF Y:0F P:25 SP:F
FB14  90 05     BCC $FB1B                       A:11 X:FF Y:0F P:25 SP:F
FB16  C9 11     CMP #$11                        A:11 X:FF Y:0F P:25 SP:F
FB18  D0 01     BNE $FB1B                       A:11 X:FF Y:0F P:27 SP:F
FB1A  60        RTS                             A:11 X:FF Y:0F P:27 SP:F
F6F3  A5 47     LDA $47 = 9B                    A:11 X:FF Y:0F P:27 SP:F
F6F5  C9 9B     CMP #$9B                        A:9B X:FF Y:0F P:A5 SP:F
F6F7  F0 02     BEQ $F6FB                       A:9B X:FF Y:0F P:27 SP:F
F6FB  A9 A5     LDA #$A5                        A:9B X:FF Y:0F P:27 SP:F
F6FD  8D 47 06  STA $0647 = 9B                  A:A5 X:FF Y:0F P:A5 SP:F
F700  A0 FF     LDY #$FF                        A:A5 X:FF Y:0F P:A5 SP:F
F702  20 E9 FA  JSR $FAE9                       A:A5 X:FF Y:FF P:A5 SP:F
FAE9  24 01     BIT $01 = FF                    A:A5 X:FF Y:FF P:A5 SP:F
FAEB  18        CLC                             A:A5 X:FF Y:FF P:E5 SP:F
FAEC  A9 B2     LDA #$B2                        A:A5 X:FF Y:FF P:E4 SP:F
FAEE  60        RTS                             A:B2 X:FF Y:FF P:E4 SP:F
F705  7B 48 05 *RRA $0548,Y @ 0647 = A5         A:B2 X:FF Y:FF P:E4 SP:F
F708  EA        NOP                             A:05 X:FF Y:FF P:25 SP:F
F709  EA        NOP                             A:05 X:FF Y:FF P:25 SP:F
F70A  08        PHP                             A:05 X:FF Y:FF P:25 SP:F
F70B  48        PHA                             A:05 X:FF Y:FF P:25 SP:F
F70C  A0 10     LDY #$10                        A:05 X:FF Y:FF P:25 SP:F
F70E  68        PLA                             A:05 X:FF Y:10 P:25 SP:F
F70F  28        PLP                             A:05 X:FF Y:10 P:25 SP:F
F710  20 EF FA  JSR $FAEF                       A:05 X:FF Y:10 P:25 SP:F
FAEF  70 2A     BVS $FB1B                       A:05 X:FF Y:10 P:25 SP:F
FAF1  90 28     BCC $FB1B                       A:05 X:FF Y:10 P:25 SP:F
FAF3  30 26     BMI $FB1B                       A:05 X:FF Y:10 P:25 SP:F
FAF5  C9 05     CMP #$05                        A:05 X:FF Y:10 P:25 SP:F
FAF7  D0 22     BNE $FB1B                       A:05 X:FF Y:10 P:27 SP:F
FAF9  60        RTS                             A:05 X:FF Y:10 P:27 SP:F
F713  AD 47 06  LDA $0647 = 52                  A:05 X:FF Y:10 P:27 SP:F
F716  C9 52     CMP #$52                        A:52 X:FF Y:10 P:25 SP:F
F718  F0 02     BEQ $F71C                       A:52 X:FF Y:10 P:27 SP:F
F71C  A0 FF     LDY #$FF                        A:52 X:FF Y:10 P:27 SP:F
F71E  A9 29     LDA #$29                        A:52 X:FF Y:FF P:A5 SP:F
F720  8D 47 06  STA $0647 = 52                  A:29 X:FF Y:FF P:25 SP:F
F723  20 FA FA  JSR $FAFA                       A:29 X:FF Y:FF P:25 SP:F
FAFA  B8        CLV                             A:29 X:FF Y:FF P:25 SP:F
FAFB  18        CLC                             A:29 X:FF Y:FF P:25 SP:F
FAFC  A9 42     LDA #$42                        A:29 X:FF Y:FF P:24 SP:F
FAFE  60        RTS                             A:42 X:FF Y:FF P:24 SP:F
F726  7B 48 05 *RRA $0548,Y @ 0647 = 29         A:42 X:FF Y:FF P:24 SP:F
F729  EA        NOP                             A:57 X:FF Y:FF P:24 SP:F
F72A  EA        NOP                             A:57 X:FF Y:FF P:24 SP:F
F72B  08        PHP                             A:57 X:FF Y:FF P:24 SP:F
F72C  48        PHA                             A:57 X:FF Y:FF P:24 SP:F
F72D  A0 11     LDY #$11                        A:57 X:FF Y:FF P:24 SP:F
F72F  68        PLA                             A:57 X:FF Y:11 P:24 SP:F
F730  28        PLP                             A:57 X:FF Y:11 P:24 SP:F
F731  20 FF FA  JSR $FAFF                       A:57 X:FF Y:11 P:24 SP:F
FAFF  70 1A     BVS $FB1B                       A:57 X:FF Y:11 P:24 SP:F
FB01  30 18     BMI $FB1B                       A:57 X:FF Y:11 P:24 SP:F
FB03  B0 16     BCS $FB1B                       A:57 X:FF Y:11 P:24 SP:F
FB05  C9 57     CMP #$57                        A:57 X:FF Y:11 P:24 SP:F
FB07  D0 12     BNE $FB1B                       A:57 X:FF Y:11 P:27 SP:F
FB09  60        RTS                             A:57 X:FF Y:11 P:27 SP:F
F734  AD 47 06  LDA $0647 = 14                  A:57 X:FF Y:11 P:27 SP:F
F737  C9 14     CMP #$14                        A:14 X:FF Y:11 P:25 SP:F
F739  F0 02     BEQ $F73D                       A:14 X:FF Y:11 P:27 SP:F
F73D  A0 FF     LDY #$FF                        A:14 X:FF Y:11 P:27 SP:F
F73F  A9 37     LDA #$37                        A:14 X:FF Y:FF P:A5 SP:F
F741  8D 47 06  STA $0647 = 14                  A:37 X:FF Y:FF P:25 SP:F
F744  20 0A FB  JSR $FB0A                       A:37 X:FF Y:FF P:25 SP:F
FB0A  24 01     BIT $01 = FF                    A:37 X:FF Y:FF P:25 SP:F
FB0C  38        SEC                             A:37 X:FF Y:FF P:E5 SP:F
FB0D  A9 75     LDA #$75                        A:37 X:FF Y:FF P:E5 SP:F
FB0F  60        RTS                             A:75 X:FF Y:FF P:65 SP:F
F747  7B 48 05 *RRA $0548,Y @ 0647 = 37         A:75 X:FF Y:FF P:65 SP:F
F74A  EA        NOP                             A:11 X:FF Y:FF P:25 SP:F
F74B  EA        NOP                             A:11 X:FF Y:FF P:25 SP:F
F74C  08        PHP                             A:11 X:FF Y:FF P:25 SP:F
F74D  48        PHA                             A:11 X:FF Y:FF P:25 SP:F
F74E  A0 12     LDY #$12                        A:11 X:FF Y:FF P:25 SP:F
F750  68        PLA                             A:11 X:FF Y:12 P:25 SP:F
F751  28        PLP                             A:11 X:FF Y:12 P:25 SP:F
F752  20 10 FB  JSR $FB10                       A:11 X:FF Y:12 P:25 SP:F
FB10  70 09     BVS $FB1B                       A:11 X:FF Y:12 P:25 SP:F
FB12  30 07     BMI $FB1B                       A:11 X:FF Y:12 P:25 SP:F
FB14  90 05     BCC $FB1B                       A:11 X:FF Y:12 P:25 SP:F
FB16  C9 11     CMP #$11                        A:11 X:FF Y:12 P:25 SP:F
FB18  D0 01     BNE $FB1B                       A:11 X:FF Y:12 P:27 SP:F
FB1A  60        RTS                             A:11 X:FF Y:12 P:27 SP:F
F755  AD 47 06  LDA $0647 = 9B                  A:11 X:FF Y:12 P:27 SP:F
F758  C9 9B     CMP #$9B                        A:9B X:FF Y:12 P:A5 SP:F
F75A  F0 02     BEQ $F75E                       A:9B X:FF Y:12 P:27 SP:F
F75E  A0 13     LDY #$13                        A:9B X:FF Y:12 P:27 SP:F
F760  A2 FF     LDX #$FF                        A:9B X:FF Y:13 P:25 SP:F
F762  A9 A5     LDA #$A5                        A:9B X:FF Y:13 P:A5 SP:F
F764  8D 47 06  STA $0647 = 9B                  A:A5 X:FF Y:13 P:A5 SP:F
F767  20 E9 FA  JSR $FAE9                       A:A5 X:FF Y:13 P:A5 SP:F
FAE9  24 01     BIT $01 = FF                    A:A5 X:FF Y:13 P:A5 SP:F
FAEB  18        CLC                             A:A5 X:FF Y:13 P:E5 SP:F
FAEC  A9 B2     LDA #$B2                        A:A5 X:FF Y:13 P:E4 SP:F
FAEE  60        RTS                             A:B2 X:FF Y:13 P:E4 SP:F
F76A  7F 48 05 *RRA $0548,X @ 0647 = A5         A:B2 X:FF Y:13 P:E4 SP:F
F76D  EA        NOP                             A:05 X:FF Y:13 P:25 SP:F
F76E  EA        NOP                             A:05 X:FF Y:13 P:25 SP:F
F76F  EA        NOP                             A:05 X:FF Y:13 P:25 SP:F
F770  EA        NOP                             A:05 X:FF Y:13 P:25 SP:F
F771  20 EF FA  JSR $FAEF                       A:05 X:FF Y:13 P:25 SP:F
FAEF  70 2A     BVS $FB1B                       A:05 X:FF Y:13 P:25 SP:F
FAF1  90 28     BCC $FB1B                       A:05 X:FF Y:13 P:25 SP:F
FAF3  30 26     BMI $FB1B                       A:05 X:FF Y:13 P:25 SP:F
FAF5  C9 05     CMP #$05                        A:05 X:FF Y:13 P:25 SP:F
FAF7  D0 22     BNE $FB1B                       A:05 X:FF Y:13 P:27 SP:F
FAF9  60        RTS                             A:05 X:FF Y:13 P:27 SP:F
F774  AD 47 06  LDA $0647 = 52                  A:05 X:FF Y:13 P:27 SP:F
F777  C9 52     CMP #$52                        A:52 X:FF Y:13 P:25 SP:F
F779  F0 02     BEQ $F77D                       A:52 X:FF Y:13 P:27 SP:F
F77D  C8        INY                             A:52 X:FF Y:13 P:27 SP:F
F77E  A9 29     LDA #$29                        A:52 X:FF Y:14 P:25 SP:F
F780  8D 47 06  STA $0647 = 52                  A:29 X:FF Y:14 P:25 SP:F
F783  20 FA FA  JSR $FAFA                       A:29 X:FF Y:14 P:25 SP:F
FAFA  B8        CLV                             A:29 X:FF Y:14 P:25 SP:F
FAFB  18        CLC                             A:29 X:FF Y:14 P:25 SP:F
FAFC  A9 42     LDA #$42                        A:29 X:FF Y:14 P:24 SP:F
FAFE  60        RTS                             A:42 X:FF Y:14 P:24 SP:F
F786  7F 48 05 *RRA $0548,X @ 0647 = 29         A:42 X:FF Y:14 P:24 SP:F
F789  EA        NOP                             A:57 X:FF Y:14 P:24 SP:F
F78A  EA        NOP                             A:57 X:FF Y:14 P:24 SP:F
F78B  EA        NOP                             A:57 X:FF Y:14 P:24 SP:F
F78C  EA        NOP                             A:57 X:FF Y:14 P:24 SP:F
F78D  20 FF FA  JSR $FAFF                       A:57 X:FF Y:14 P:24 SP:F
FAFF  70 1A     BVS $FB1B                       A:57 X:FF Y:14 P:24 SP:F
FB01  30 18     BMI $FB1B                       A:57 X:FF Y:14 P:24 SP:F
FB03  B0 16     BCS $FB1B                       A:57 X:FF Y:14 P:24 SP:F
FB05  C9 57     CMP #$57                        A:57 X:FF Y:14 P:24 SP:F
FB07  D0 12     BNE $FB1B                       A:57 X:FF Y:14 P:27 SP:F
FB09  60        RTS                             A:57 X:FF Y:14 P:27 SP:F
F790  AD 47 06  LDA $0647 = 14                  A:57 X:FF Y:14 P:27 SP:F
F793  C9 14     CMP #$14                        A:14 X:FF Y:14 P:25 SP:F
F795  F0 02     BEQ $F799                       A:14 X:FF Y:14 P:27 SP:F
F799  C8        INY                             A:14 X:FF Y:14 P:27 SP:F
F79A  A9 37     LDA #$37                        A:14 X:FF Y:15 P:25 SP:F
F79C  8D 47 06  STA $0647 = 14                  A:37 X:FF Y:15 P:25 SP:F
F79F  20 0A FB  JSR $FB0A                       A:37 X:FF Y:15 P:25 SP:F
FB0A  24 01     BIT $01 = FF                    A:37 X:FF Y:15 P:25 SP:F
FB0C  38        SEC                             A:37 X:FF Y:15 P:E5 SP:F
FB0D  A9 75     LDA #$75                        A:37 X:FF Y:15 P:E5 SP:F
FB0F  60        RTS                             A:75 X:FF Y:15 P:65 SP:F
F7A2  7F 48 05 *RRA $0548,X @ 0647 = 37         A:75 X:FF Y:15 P:65 SP:F
F7A5  EA        NOP                             A:11 X:FF Y:15 P:25 SP:F
F7A6  EA        NOP                             A:11 X:FF Y:15 P:25 SP:F
F7A7  EA        NOP                             A:11 X:FF Y:15 P:25 SP:F
F7A8  EA        NOP                             A:11 X:FF Y:15 P:25 SP:F
F7A9  20 10 FB  JSR $FB10                       A:11 X:FF Y:15 P:25 SP:F
FB10  70 09     BVS $FB1B                       A:11 X:FF Y:15 P:25 SP:F
FB12  30 07     BMI $FB1B                       A:11 X:FF Y:15 P:25 SP:F
FB14  90 05     BCC $FB1B                       A:11 X:FF Y:15 P:25 SP:F
FB16  C9 11     CMP #$11                        A:11 X:FF Y:15 P:25 SP:F
FB18  D0 01     BNE $FB1B                       A:11 X:FF Y:15 P:27 SP:F
FB1A  60        RTS                             A:11 X:FF Y:15 P:27 SP:F
F7AC  AD 47 06  LDA $0647 = 9B                  A:11 X:FF Y:15 P:27 SP:F
F7AF  C9 9B     CMP #$9B                        A:9B X:FF Y:15 P:A5 SP:F
F7B1  F0 02     BEQ $F7B5                       A:9B X:FF Y:15 P:27 SP:F
F7B5  60        RTS                             A:9B X:FF Y:15 P:27 SP:F
C655  A5 00     LDA $00 = 00                    A:9B X:FF Y:15 P:27 SP:F
C657  05 10     ORA $10 = 00                    A:00 X:FF Y:15 P:27 SP:F
C659  05 11     ORA $11 = 00                    A:00 X:FF Y:15 P:27 SP:F
C65B  F0 0E     BEQ $C66B                       A:00 X:FF Y:15 P:27 SP:F
C66B  20 89 C6  JSR $C689                       A:00 X:FF Y:15 P:27 SP:F
C689  A9 02     LDA #$02                        A:00 X:FF Y:15 P:27 SP:F
C68B  8D 15 40  STA $4015 = FF                  A:02 X:FF Y:15 P:25 SP:F
C68E  A9 3F     LDA #$3F                        A:02 X:FF Y:15 P:25 SP:F
C690  8D 04 40  STA $4004 = FF                  A:3F X:FF Y:15 P:25 SP:F
C693  A9 9A     LDA #$9A                        A:3F X:FF Y:15 P:25 SP:F
C695  8D 05 40  STA $4005 = FF                  A:9A X:FF Y:15 P:A5 SP:F
C698  A9 FF     LDA #$FF                        A:9A X:FF Y:15 P:A5 SP:F
C69A  8D 06 40  STA $4006 = FF                  A:FF X:FF Y:15 P:A5 SP:F
C69D  A9 00     LDA #$00                        A:FF X:FF Y:15 P:A5 SP:F
C69F  8D 07 40  STA $4007 = FF                  A:00 X:FF Y:15 P:27 SP:F
C6A2  60        RTS                             A:00 X:FF Y:15 P:27 SP:F
C66E  60        RTS                             A:00 X:FF Y:15 P:27 SP:F
